
/root/projects/compiled/non_crypto/stripped/bminor_binutils-gdb.git_libctf-bitfield-name-lookup_654e21b2_stripped.o:     file format elf32-littlearm


Disassembly of section .text:

00000000 <.text>:
   0:	4b754a74 	blmi	0x1d529d8
   4:	4ff0e92d 	svcmi	0x00f0e92d
   8:	4606447a 			; <UNDEFINED> instruction: 0x4606447a
   c:	460fb093 			; <UNDEFINED> instruction: 0x460fb093
  10:	f10d58d3 			; <UNDEFINED> instruction: 0xf10d58d3
  14:	46580b24 	ldrbmi	r0, [r8], -r4, lsr #22
  18:	9311681b 	tstls	r1, #1769472	; 0x1b0000
  1c:	0300f04f 	movweq	pc, #79	; 0x4f	; <UNPREDICTABLE>
  20:	fffef7ff 			; <UNDEFINED> instruction: 0xfffef7ff
  24:	447b4b6d 	ldrbtmi	r4, [fp], #-2925	; 0xfffff493
  28:	28009306 	stmdacs	r0, {r1, r2, r8, r9, ip, pc}
  2c:	8083f000 	addhi	pc, r3, r0
  30:	23002201 	movwcs	r2, #513	; 0x201
  34:	46052400 	strmi	r2, [r5], -r0, lsl #8
  38:	940c9610 	strls	r9, [ip], #-1552	; 0xfffff9f0
  3c:	230ee9cd 	movwcs	lr, #59853	; 0xe9cd
  40:	230ae9cd 	movwcs	lr, #43469	; 0xa9cd
  44:	f8dfb1e6 			; <UNDEFINED> instruction: 0xf8dfb1e6
  48:	f10d9198 			; <UNDEFINED> instruction: 0xf10d9198
  4c:	f8df0828 			; <UNDEFINED> instruction: 0xf8df0828
  50:	44f9a194 	ldrbtmi	sl, [r9], #404	; 0x194
  54:	42a744fa 	adcmi	r4, r7, #-100663296	; 0xfa000000
  58:	4643d04a 	strbmi	sp, [r3], -sl, asr #32
  5c:	2101464a 	tstcs	r1, sl, asr #12
  60:	440c4628 	strmi	r4, [ip], #-1576	; 0xfffff9d8
  64:	fffef7ff 			; <UNDEFINED> instruction: 0xfffef7ff
  68:	320be9dd 	andcc	lr, fp, #3620864	; 0x374000
  6c:	fab342a6 	blx	0xfecd0b0c
  70:	f102f383 			; <UNDEFINED> instruction: 0xf102f383
  74:	920c0201 	andls	r0, ip, #268435456	; 0x10000000
  78:	1353ea4f 	cmpne	r3, #323584	; 0x4f000
  7c:	d1ea930b 	mvnle	r9, fp, lsl #6
  80:	d05042b7 	ldrhle	r4, [r0], #-39	; 0xffffffd9
  84:	5280f44f 	addpl	pc, r0, #1325400064	; 0x4f000000
  88:	4628a908 	strtmi	sl, [r8], -r8, lsl #18
  8c:	fffef7ff 			; <UNDEFINED> instruction: 0xfffef7ff
  90:	28004604 	stmdacs	r0, {r2, r9, sl, lr}
  94:	4628d06d 	strtmi	sp, [r8], -sp, rrx
  98:	fffef7ff 			; <UNDEFINED> instruction: 0xfffef7ff
  9c:	99082300 	stmdbls	r8, {r8, r9, sp}
  a0:	4620461a 			; <UNDEFINED> instruction: 0x4620461a
  a4:	b00cf8cd 	andlt	pc, ip, sp, asr #17
  a8:	3301e9cd 	movwcc	lr, #6605	; 0x19cd
  ac:	f7ff9300 			; <UNDEFINED> instruction: 0xf7ff9300
  b0:	4605fffe 			; <UNDEFINED> instruction: 0x4605fffe
  b4:	d03e2800 	eorsle	r2, lr, r0, lsl #16
  b8:	4479494b 	ldrbtmi	r4, [r9], #-2379	; 0xfffff6b5
  bc:	fffef7ff 			; <UNDEFINED> instruction: 0xfffef7ff
  c0:	f1b04680 			; <UNDEFINED> instruction: 0xf1b04680
  c4:	d06d3fff 	strdle	r3, [sp], #-255	; 0xffffff01	; <UNPREDICTABLE>
  c8:	aa0a4601 	bge	0x2918d4
  cc:	f7ff4628 			; <UNDEFINED> instruction: 0xf7ff4628
  d0:	2800fffe 	stmdacs	r0, {r1, r2, r3, r4, r5, r6, r7, r8, r9, sl, fp, ip, sp, lr, pc}
  d4:	e9dddb63 	ldmib	sp, {r0, r1, r5, r6, r8, r9, fp, ip, lr, pc}^
  d8:	4296120b 	addsmi	r1, r6, #-1342177280	; 0xb0000000
  dc:	2900d865 	stmdbcs	r0, {r0, r2, r5, r6, fp, ip, lr, pc}
  e0:	4628d163 	strtmi	sp, [r8], -r3, ror #2
  e4:	fffef7ff 			; <UNDEFINED> instruction: 0xfffef7ff
  e8:	f7ff4620 			; <UNDEFINED> instruction: 0xf7ff4620
  ec:	e033fffe 	ldrsht	pc, [r3], -lr	; <UNPREDICTABLE>
  f0:	ab0e2101 	blge	0x3884fc
  f4:	46284652 			; <UNDEFINED> instruction: 0x46284652
  f8:	fffef7ff 			; <UNDEFINED> instruction: 0xfffef7ff
  fc:	46524643 	ldrbmi	r4, [r2], -r3, asr #12
 100:	46282101 	strtmi	r2, [r8], -r1, lsl #2
 104:	f7ff1c7c 			; <UNDEFINED> instruction: 0xf7ff1c7c
 108:	9b0bfffe 	blls	0x300108
 10c:	fab342a6 	blx	0xfecd0bac
 110:	ea4ff383 	b	0x13fcf24
 114:	930b1353 	movwls	r1, #45907	; 0xb353
 118:	f1039b0c 			; <UNDEFINED> instruction: 0xf1039b0c
 11c:	930c0301 	movwls	r0, #49921	; 0xc301
 120:	42b7d199 	adcsmi	sp, r7, #1073741862	; 0x40000026
 124:	4a31d1ae 	bmi	0xc747e4
 128:	2101ab0e 	tstcs	r1, lr, lsl #22
 12c:	447a4628 	ldrbtmi	r4, [sl], #-1576	; 0xfffff9d8
 130:	fffef7ff 			; <UNDEFINED> instruction: 0xfffef7ff
 134:	4b2ee7a6 	blmi	0xbb9fd4
 138:	98099a06 	stmdals	r9, {r1, r2, r9, fp, ip, pc}
 13c:	681d58d3 	ldmdavs	sp, {r0, r1, r4, r6, r7, fp, ip, lr}
 140:	fffef7ff 			; <UNDEFINED> instruction: 0xfffef7ff
 144:	46044b2b 	strmi	r4, [r4], -fp, lsr #22
 148:	21014a2b 	tstcs	r1, fp, lsr #20
 14c:	4628447b 			; <UNDEFINED> instruction: 0x4628447b
 150:	9400447a 	strls	r4, [r0], #-1146	; 0xfffffb86
 154:	fffef7ff 			; <UNDEFINED> instruction: 0xfffef7ff
 158:	4b1f4a28 	blmi	0x7d2a00
 15c:	58d3447a 	ldmpl	r3, {r1, r3, r4, r5, r6, sl, lr}^
 160:	9b11681a 	blls	0x45a1d0
 164:	f04f405a 			; <UNDEFINED> instruction: 0xf04f405a
 168:	d1300300 	teqle	r0, r0, lsl #6
 16c:	e8bdb013 	pop	{r0, r1, r4, ip, sp, pc}
 170:	4b238ff0 	blmi	0x8e4138
 174:	4a1e447b 	bmi	0x791368
 178:	93074628 	movwls	r4, #30248	; 0x7628
 17c:	589a9b06 	ldmpl	sl, {r1, r2, r8, r9, fp, ip, pc}
 180:	f7ff6815 			; <UNDEFINED> instruction: 0xf7ff6815
 184:	f7fffffe 			; <UNDEFINED> instruction: 0xf7fffffe
 188:	4a1efffe 	bmi	0x7c0188
 18c:	9b074604 	blls	0x1d19a4
 190:	2101447a 	tstcs	r1, sl, ror r4
 194:	94004628 	strls	r4, [r0], #-1576	; 0xfffff9d8
 198:	fffef7ff 			; <UNDEFINED> instruction: 0xfffef7ff
 19c:	4b1ae7dc 	blmi	0x6ba114
 1a0:	e7e8447b 			; <UNDEFINED> instruction: 0xe7e8447b
 1a4:	447b4b19 	ldrbtmi	r4, [fp], #-2841	; 0xfffff4e7
 1a8:	4819e7e5 	ldmdami	r9, {r0, r2, r5, r6, r7, r8, r9, sl, sp, lr, pc}
 1ac:	9c064633 	stcls	6, cr4, [r6], {51}	; 0x33
 1b0:	e9cd5820 	stmib	sp, {r5, fp, ip, lr}^
 1b4:	21012103 	tstcs	r1, r3, lsl #2
 1b8:	447a4a16 	ldrbtmi	r4, [sl], #-2582	; 0xfffff5ea
 1bc:	2801e9cd 	stmdacs	r1, {r0, r2, r3, r6, r7, r8, fp, sp, lr, pc}
 1c0:	68004a15 	stmdavs	r0, {r0, r2, r4, r9, fp, lr}
 1c4:	9700447a 	smlsdxls	r0, sl, r4, r4
 1c8:	fffef7ff 			; <UNDEFINED> instruction: 0xfffef7ff
 1cc:	f7ffe7c4 			; <UNDEFINED> instruction: 0xf7ffe7c4
 1d0:	bf00fffe 	svclt	0x0000fffe
 1d4:	000001c8 	andeq	r0, r0, r8, asr #3
 1d8:	00000000 	andeq	r0, r0, r0
 1dc:	000001b2 			; <UNDEFINED> instruction: 0x000001b2
 1e0:	0000018a 	andeq	r0, r0, sl, lsl #3
 1e4:	0000018c 	andeq	r0, r0, ip, lsl #3
 1e8:	0000012a 	andeq	r0, r0, sl, lsr #2
 1ec:	000000ba 	strheq	r0, [r0], -sl
 1f0:	00000000 	andeq	r0, r0, r0
 1f4:	000000a4 	andeq	r0, r0, r4, lsr #1
 1f8:	000000a4 	andeq	r0, r0, r4, lsr #1
 1fc:	0000009c 	muleq	r0, ip, r0
 200:	00000088 	andeq	r0, r0, r8, lsl #1
 204:	00000070 	andeq	r0, r0, r0, ror r0
 208:	00000064 	andeq	r0, r0, r4, rrx
 20c:	00000062 	andeq	r0, r0, r2, rrx
 210:	00000000 	andeq	r0, r0, r0
 214:	00000056 	andeq	r0, r0, r6, asr r0
 218:	00000050 	andeq	r0, r0, r0, asr r0
 21c:	4b754a74 	blmi	0x1d52bf4
 220:	4ff0e92d 	svcmi	0x00f0e92d
 224:	4606447a 			; <UNDEFINED> instruction: 0x4606447a
 228:	460fb093 			; <UNDEFINED> instruction: 0x460fb093
 22c:	f10d58d3 			; <UNDEFINED> instruction: 0xf10d58d3
 230:	46580b24 	ldrbmi	r0, [r8], -r4, lsr #22
 234:	9311681b 	tstls	r1, #1769472	; 0x1b0000
 238:	0300f04f 	movweq	pc, #79	; 0x4f	; <UNPREDICTABLE>
 23c:	fffef7ff 			; <UNDEFINED> instruction: 0xfffef7ff
 240:	447b4b6d 	ldrbtmi	r4, [fp], #-2925	; 0xfffff493
 244:	28009306 	stmdacs	r0, {r1, r2, r8, r9, ip, pc}
 248:	8084f000 	addhi	pc, r4, r0
 24c:	22011e73 	andcs	r1, r1, #1840	; 0x730
 250:	4605930c 	strmi	r9, [r5], -ip, lsl #6
 254:	96102300 	ldrls	r2, [r0], -r0, lsl #6
 258:	230ee9cd 	movwcs	lr, #59853	; 0xe9cd
 25c:	230ae9cd 	movwcs	lr, #43469	; 0xa9cd
 260:	f8dfb1ee 			; <UNDEFINED> instruction: 0xf8dfb1ee
 264:	24009198 	strcs	r9, [r0], #-408	; 0xfffffe68
 268:	a194f8df 			; <UNDEFINED> instruction: 0xa194f8df
 26c:	0828f10d 	stmdaeq	r8!, {r0, r2, r3, r8, ip, sp, lr, pc}
 270:	44fa44f9 	ldrbtmi	r4, [sl], #1273	; 0x4f9
 274:	d04a42a7 	suble	r4, sl, r7, lsr #5
 278:	464a4643 	strbmi	r4, [sl], -r3, asr #12
 27c:	46282101 	strtmi	r2, [r8], -r1, lsl #2
 280:	f7ff440c 			; <UNDEFINED> instruction: 0xf7ff440c
 284:	e9ddfffe 	ldmib	sp, {r1, r2, r3, r4, r5, r6, r7, r8, r9, sl, fp, ip, sp, lr, pc}^
 288:	42a6320b 	adcmi	r3, r6, #-1342177280	; 0xb0000000
 28c:	f383fab3 			; <UNDEFINED> instruction: 0xf383fab3
 290:	32fff102 	rscscc	pc, pc, #-2147483648	; 0x80000000
 294:	ea4f920c 	b	0x13e4acc
 298:	930b1353 	movwls	r1, #45907	; 0xb353
 29c:	42b7d1ea 	adcsmi	sp, r7, #-2147483590	; 0x8000003a
 2a0:	f44fd050 	vst4.16	{d29-d32}, [pc :64], r0
 2a4:	a9085280 	stmdbge	r8, {r7, r9, ip, lr}
 2a8:	f7ff4628 			; <UNDEFINED> instruction: 0xf7ff4628
 2ac:	4604fffe 			; <UNDEFINED> instruction: 0x4604fffe
 2b0:	d06d2800 	rsble	r2, sp, r0, lsl #16
 2b4:	f7ff4628 			; <UNDEFINED> instruction: 0xf7ff4628
 2b8:	2300fffe 	movwcs	pc, #4094	; 0xffe	; <UNPREDICTABLE>
 2bc:	461a9908 	ldrmi	r9, [sl], -r8, lsl #18
 2c0:	f8cd4620 			; <UNDEFINED> instruction: 0xf8cd4620
 2c4:	e9cdb00c 	stmib	sp, {r2, r3, ip, sp, pc}^
 2c8:	93003301 	movwls	r3, #769	; 0x301
 2cc:	fffef7ff 			; <UNDEFINED> instruction: 0xfffef7ff
 2d0:	28004605 	stmdacs	r0, {r0, r2, r9, sl, lr}
 2d4:	494bd03e 	stmdbmi	fp, {r1, r2, r3, r4, r5, ip, lr, pc}^
 2d8:	f7ff4479 			; <UNDEFINED> instruction: 0xf7ff4479
 2dc:	4680fffe 			; <UNDEFINED> instruction: 0x4680fffe
 2e0:	3ffff1b0 	svccc	0x00fff1b0
 2e4:	4601d06d 	strmi	sp, [r1], -sp, rrx
 2e8:	4628aa0a 	strtmi	sl, [r8], -sl, lsl #20
 2ec:	fffef7ff 			; <UNDEFINED> instruction: 0xfffef7ff
 2f0:	db632800 	blle	0x18ca2f8
 2f4:	120be9dd 	andne	lr, fp, #3620864	; 0x374000
 2f8:	d8654296 	stmdale	r5!, {r1, r2, r4, r7, r9, lr}^
 2fc:	d1632900 	cmnle	r3, r0, lsl #18
 300:	f7ff4628 			; <UNDEFINED> instruction: 0xf7ff4628
 304:	4620fffe 	qsub8mi	pc, r0, lr	; <UNPREDICTABLE>
 308:	fffef7ff 			; <UNDEFINED> instruction: 0xfffef7ff
 30c:	2101e033 	tstcs	r1, r3, lsr r0
 310:	4652ab0e 	ldrbmi	sl, [r2], -lr, lsl #22
 314:	f7ff4628 			; <UNDEFINED> instruction: 0xf7ff4628
 318:	4643fffe 			; <UNDEFINED> instruction: 0x4643fffe
 31c:	21014652 	tstcs	r1, r2, asr r6
 320:	1c7c4628 	ldclne	6, cr4, [ip], #-160	; 0xffffff60
 324:	fffef7ff 			; <UNDEFINED> instruction: 0xfffef7ff
 328:	42a69b0b 	adcmi	r9, r6, #11264	; 0x2c00
 32c:	f383fab3 			; <UNDEFINED> instruction: 0xf383fab3
 330:	1353ea4f 	cmpne	r3, #323584	; 0x4f000
 334:	9b0c930b 	blls	0x324f68
 338:	33fff103 	mvnscc	pc, #-1073741824	; 0xc0000000
 33c:	d199930c 	orrsle	r9, r9, ip, lsl #6
 340:	d1ae42b7 			; <UNDEFINED> instruction: 0xd1ae42b7
 344:	ab0e4a30 	blge	0x392c0c
 348:	46282101 	strtmi	r2, [r8], -r1, lsl #2
 34c:	f7ff447a 			; <UNDEFINED> instruction: 0xf7ff447a
 350:	e7a6fffe 			; <UNDEFINED> instruction: 0xe7a6fffe
 354:	9a064b2d 	bls	0x193010
 358:	58d39809 	ldmpl	r3, {r0, r3, fp, ip, pc}^
 35c:	f7ff681d 			; <UNDEFINED> instruction: 0xf7ff681d
 360:	4b2bfffe 	blmi	0xb00360
 364:	4a2b4604 	bmi	0xad1b7c
 368:	447b2101 	ldrbtmi	r2, [fp], #-257	; 0xfffffeff
 36c:	447a4628 	ldrbtmi	r4, [sl], #-1576	; 0xfffff9d8
 370:	f7ff9400 			; <UNDEFINED> instruction: 0xf7ff9400
 374:	4a28fffe 	bmi	0xa40374
 378:	447a4b1e 	ldrbtmi	r4, [sl], #-2846	; 0xfffff4e2
 37c:	681a58d3 	ldmdavs	sl, {r0, r1, r4, r6, r7, fp, ip, lr}
 380:	405a9b11 	subsmi	r9, sl, r1, lsl fp
 384:	0300f04f 	movweq	pc, #79	; 0x4f	; <UNPREDICTABLE>
 388:	b013d130 	andslt	sp, r3, r0, lsr r1
 38c:	8ff0e8bd 	svchi	0x00f0e8bd
 390:	447b4b22 	ldrbtmi	r4, [fp], #-2850	; 0xfffff4de
 394:	46284a1d 			; <UNDEFINED> instruction: 0x46284a1d
 398:	9b069307 	blls	0x1a4fbc
 39c:	6815589a 	ldmdavs	r5, {r1, r3, r4, r7, fp, ip, lr}
 3a0:	fffef7ff 			; <UNDEFINED> instruction: 0xfffef7ff
 3a4:	fffef7ff 			; <UNDEFINED> instruction: 0xfffef7ff
 3a8:	46044a1d 			; <UNDEFINED> instruction: 0x46044a1d
 3ac:	447a9b07 	ldrbtmi	r9, [sl], #-2823	; 0xfffff4f9
 3b0:	46282101 	strtmi	r2, [r8], -r1, lsl #2
 3b4:	f7ff9400 			; <UNDEFINED> instruction: 0xf7ff9400
 3b8:	e7dcfffe 			; <UNDEFINED> instruction: 0xe7dcfffe
 3bc:	447b4b19 	ldrbtmi	r4, [fp], #-2841	; 0xfffff4e7
 3c0:	4b19e7e8 	blmi	0x67a368
 3c4:	e7e5447b 			; <UNDEFINED> instruction: 0xe7e5447b
 3c8:	46334818 			; <UNDEFINED> instruction: 0x46334818
 3cc:	58209c06 	stmdapl	r0!, {r1, r2, sl, fp, ip, pc}
 3d0:	2103e9cd 	smlabtcs	r3, sp, r9, lr
 3d4:	4a162101 	bmi	0x5887e0
 3d8:	e9cd447a 	stmib	sp, {r1, r3, r4, r5, r6, sl, lr}^
 3dc:	4a152801 	bmi	0x54a3e8
 3e0:	447a6800 	ldrbtmi	r6, [sl], #-2048	; 0xfffff800
 3e4:	f7ff9700 			; <UNDEFINED> instruction: 0xf7ff9700
 3e8:	e7c4fffe 			; <UNDEFINED> instruction: 0xe7c4fffe
 3ec:	fffef7ff 			; <UNDEFINED> instruction: 0xfffef7ff
 3f0:	000001c8 	andeq	r0, r0, r8, asr #3
 3f4:	00000000 	andeq	r0, r0, r0
 3f8:	000001b2 			; <UNDEFINED> instruction: 0x000001b2
 3fc:	00000188 	andeq	r0, r0, r8, lsl #3
 400:	0000018a 	andeq	r0, r0, sl, lsl #3
 404:	00000128 	andeq	r0, r0, r8, lsr #2
 408:	000000b8 	strheq	r0, [r0], -r8
 40c:	00000000 	andeq	r0, r0, r0
 410:	000000a2 	andeq	r0, r0, r2, lsr #1
 414:	000000a2 	andeq	r0, r0, r2, lsr #1
 418:	0000009a 	muleq	r0, sl, r0
 41c:	00000086 	andeq	r0, r0, r6, lsl #1
 420:	0000006e 	andeq	r0, r0, lr, rrx
 424:	00000062 	andeq	r0, r0, r2, rrx
 428:	00000060 	andeq	r0, r0, r0, rrx
 42c:	00000000 	andeq	r0, r0, r0
 430:	00000054 	andeq	r0, r0, r4, asr r0
 434:	0000004e 	andeq	r0, r0, lr, asr #32
 438:	4ff0e92d 	svcmi	0x00f0e92d
 43c:	4a7d4617 	bmi	0x1f51ca0
 440:	4606b095 			; <UNDEFINED> instruction: 0x4606b095
 444:	447aab0b 	ldrbtmi	sl, [sl], #-2827	; 0xfffff4f5
 448:	460c4618 			; <UNDEFINED> instruction: 0x460c4618
 44c:	4b7a9309 	blmi	0x1ea5078
 450:	58d39108 	ldmpl	r3, {r3, r8, ip, pc}^
 454:	9313681b 	tstls	r3, #1769472	; 0x1b0000
 458:	0300f04f 	movweq	pc, #79	; 0x4f	; <UNPREDICTABLE>
 45c:	fffef7ff 			; <UNDEFINED> instruction: 0xfffef7ff
 460:	447b4b76 	ldrbtmi	r4, [fp], #-2934	; 0xfffff48a
 464:	28009307 	stmdacs	r0, {r0, r1, r2, r8, r9, ip, pc}
 468:	8092f000 	addshi	pc, r2, r0
 46c:	23002201 	movwcs	r2, #513	; 0x201
 470:	96124605 	ldrls	r4, [r2], -r5, lsl #12
 474:	2310e9cd 	tstcs	r0, #3358720	; 0x334000
 478:	d0652c00 	rsble	r2, r5, r0, lsl #24
 47c:	22012300 	andcs	r2, r1, #0, 6
 480:	2300930e 	movwcs	r9, #782	; 0x30e
 484:	230ce9cd 	movwcs	lr, #51661	; 0xc9cd
 488:	9b08b326 	blls	0x22d128
 48c:	f8df2400 			; <UNDEFINED> instruction: 0xf8df2400
 490:	f10da1b0 			; <UNDEFINED> instruction: 0xf10da1b0
 494:	f8df0830 			; <UNDEFINED> instruction: 0xf8df0830
 498:	2b00b1ac 	blcs	0x2cb50
 49c:	bf1844fa 	svclt	0x001844fa
 4a0:	0901f04f 	stmdbeq	r1, {r0, r1, r2, r3, r6, ip, sp, lr, pc}
 4a4:	bf0844fb 	svclt	0x000844fb
 4a8:	39fff04f 	ldmibcc	pc!, {r0, r1, r2, r3, r6, ip, sp, lr, pc}^	; <UNPREDICTABLE>
 4ac:	d04d42bc 	strhle	r4, [sp], #-44	; 0xffffffd4
 4b0:	46524643 	ldrbmi	r4, [r2], -r3, asr #12
 4b4:	46282101 	strtmi	r2, [r8], -r1, lsl #2
 4b8:	fffef7ff 			; <UNDEFINED> instruction: 0xfffef7ff
 4bc:	34019b0e 	strcc	r9, [r1], #-2830	; 0xfffff4f2
 4c0:	930e444b 	movwls	r4, #58443	; 0xe44b
 4c4:	42a69b0d 	adcmi	r9, r6, #13312	; 0x3400
 4c8:	f383fab3 			; <UNDEFINED> instruction: 0xf383fab3
 4cc:	1353ea4f 	cmpne	r3, #323584	; 0x4f000
 4d0:	d1eb930d 	mvnle	r9, sp, lsl #6
 4d4:	d05342b7 	ldrhle	r4, [r3], #-39	; 0xffffffd9
 4d8:	5280f44f 	addpl	pc, r0, #1325400064	; 0x4f000000
 4dc:	4628a90a 	strtmi	sl, [r8], -sl, lsl #18
 4e0:	fffef7ff 			; <UNDEFINED> instruction: 0xfffef7ff
 4e4:	28004604 	stmdacs	r0, {r2, r9, sl, lr}
 4e8:	4628d071 			; <UNDEFINED> instruction: 0x4628d071
 4ec:	fffef7ff 			; <UNDEFINED> instruction: 0xfffef7ff
 4f0:	93039b09 	movwls	r9, #15113	; 0x3b09
 4f4:	990a2300 	stmdbls	sl, {r8, r9, sp}
 4f8:	4620461a 			; <UNDEFINED> instruction: 0x4620461a
 4fc:	3301e9cd 	movwcc	lr, #6605	; 0x19cd
 500:	f7ff9300 			; <UNDEFINED> instruction: 0xf7ff9300
 504:	4605fffe 			; <UNDEFINED> instruction: 0x4605fffe
 508:	d0412800 	suble	r2, r1, r0, lsl #16
 50c:	4479494e 	ldrbtmi	r4, [r9], #-2382	; 0xfffff6b2
 510:	fffef7ff 			; <UNDEFINED> instruction: 0xfffef7ff
 514:	f1b04681 			; <UNDEFINED> instruction: 0xf1b04681
 518:	d06c3fff 	strdle	r3, [ip], #-255	; 0xffffff01	; <UNPREDICTABLE>
 51c:	aa0c4601 	bge	0x311d28
 520:	f7ff4628 			; <UNDEFINED> instruction: 0xf7ff4628
 524:	2800fffe 	stmdacs	r0, {r1, r2, r3, r4, r5, r6, r7, r8, r9, sl, fp, ip, sp, lr, pc}
 528:	e9dddb62 	ldmib	sp, {r1, r5, r6, r8, r9, fp, ip, lr, pc}^
 52c:	429e830d 	addsmi	r8, lr, #872415232	; 0x34000000
 530:	f1b8d864 			; <UNDEFINED> instruction: 0xf1b8d864
 534:	d1610f00 	cmnle	r1, r0, lsl #30
 538:	f7ff4628 			; <UNDEFINED> instruction: 0xf7ff4628
 53c:	4620fffe 	qsub8mi	pc, r0, lr	; <UNPREDICTABLE>
 540:	fffef7ff 			; <UNDEFINED> instruction: 0xfffef7ff
 544:	e0354640 	eors	r4, r5, r0, asr #12
 548:	e7981e73 			; <UNDEFINED> instruction: 0xe7981e73
 54c:	ab102101 	blge	0x408958
 550:	4628465a 			; <UNDEFINED> instruction: 0x4628465a
 554:	fffef7ff 			; <UNDEFINED> instruction: 0xfffef7ff
 558:	465a4643 	ldrbmi	r4, [sl], -r3, asr #12
 55c:	46282101 	strtmi	r2, [r8], -r1, lsl #2
 560:	f7ff3401 			; <UNDEFINED> instruction: 0xf7ff3401
 564:	9b0dfffe 	blls	0x380564
 568:	fab342a6 	blx	0xfecd1008
 56c:	ea4ff383 	b	0x13fd380
 570:	930d1353 	movwls	r1, #54099	; 0xd353
 574:	444b9b0e 	strbmi	r9, [fp], #-2830	; 0xfffff4f2
 578:	d197930e 	orrsle	r9, r7, lr, lsl #6
 57c:	d1ab42b7 			; <UNDEFINED> instruction: 0xd1ab42b7
 580:	ab104a32 	blge	0x412e50
 584:	46282101 	strtmi	r2, [r8], -r1, lsl #2
 588:	f7ff447a 			; <UNDEFINED> instruction: 0xf7ff447a
 58c:	e7a3fffe 			; <UNDEFINED> instruction: 0xe7a3fffe
 590:	9a074b2f 	bls	0x1d3254
 594:	58d3980b 	ldmpl	r3, {r0, r1, r3, fp, ip, pc}^
 598:	f7ff681d 			; <UNDEFINED> instruction: 0xf7ff681d
 59c:	4b2dfffe 	blmi	0xb8059c
 5a0:	4a2d4604 	bmi	0xb51db8
 5a4:	447a447b 	ldrbtmi	r4, [sl], #-1147	; 0xfffffb85
 5a8:	46282101 	strtmi	r2, [r8], -r1, lsl #2
 5ac:	f7ff9400 			; <UNDEFINED> instruction: 0xf7ff9400
 5b0:	2001fffe 	strdcs	pc, [r1], -lr
 5b4:	4b204a29 	blmi	0x812e60
 5b8:	58d3447a 	ldmpl	r3, {r1, r3, r4, r5, r6, sl, lr}^
 5bc:	9b13681a 	blls	0x4da62c
 5c0:	f04f405a 			; <UNDEFINED> instruction: 0xf04f405a
 5c4:	d1320300 	teqle	r2, r0, lsl #6
 5c8:	e8bdb015 	pop	{r0, r2, r4, ip, sp, pc}
 5cc:	4b248ff0 	blmi	0x924594
 5d0:	4a1f447b 	bmi	0x7d17c4
 5d4:	93084628 	movwls	r4, #34344	; 0x8628
 5d8:	589a9b07 	ldmpl	sl, {r0, r1, r2, r8, r9, fp, ip, pc}
 5dc:	f7ff6815 			; <UNDEFINED> instruction: 0xf7ff6815
 5e0:	f7fffffe 			; <UNDEFINED> instruction: 0xf7fffffe
 5e4:	4a1ffffe 	bmi	0x8005e4
 5e8:	46049b08 	strmi	r9, [r4], -r8, lsl #22
 5ec:	e7db447a 			; <UNDEFINED> instruction: 0xe7db447a
 5f0:	447b4b1d 	ldrbtmi	r4, [fp], #-2845	; 0xfffff4e3
 5f4:	4b1de7ed 	blmi	0x77a5b0
 5f8:	e7ea447b 			; <UNDEFINED> instruction: 0xe7ea447b
 5fc:	99074a1c 	stmdbls	r7, {r2, r3, r4, r9, fp, lr}
 600:	6810588a 	ldmdavs	r0, {r1, r3, r7, fp, ip, lr}
 604:	b97a9a08 	ldmdblt	sl!, {r3, r9, fp, ip, pc}^
 608:	4479491a 	ldrbtmi	r4, [r9], #-2330	; 0xfffff6e6
 60c:	e9cd4a1a 	stmib	sp, {r1, r3, r4, r9, fp, lr}^
 610:	46333803 	ldrtmi	r3, [r3], -r3, lsl #16
 614:	7100e9cd 	smlabtvc	r0, sp, r9, lr
 618:	2101447a 	tstcs	r1, sl, ror r4
 61c:	9008f8cd 	andls	pc, r8, sp, asr #17
 620:	fffef7ff 			; <UNDEFINED> instruction: 0xfffef7ff
 624:	e7c52001 	strb	r2, [r5, r1]
 628:	44794914 	ldrbtmi	r4, [r9], #-2324	; 0xfffff6ec
 62c:	f7ffe7ee 			; <UNDEFINED> instruction: 0xf7ffe7ee
 630:	bf00fffe 	svclt	0x0000fffe
 634:	000001ea 	andeq	r0, r0, sl, ror #3
 638:	00000000 	andeq	r0, r0, r0
 63c:	000001d6 	ldrdeq	r0, [r0], -r6
 640:	000001a0 	andeq	r0, r0, r0, lsr #3
 644:	0000019c 	muleq	r0, ip, r1
 648:	00000136 	andeq	r0, r0, r6, lsr r1
 64c:	000000c0 	andeq	r0, r0, r0, asr #1
 650:	00000000 	andeq	r0, r0, r0
 654:	000000ac 	andeq	r0, r0, ip, lsr #1
 658:	000000ae 	andeq	r0, r0, lr, lsr #1
 65c:	000000a0 	andeq	r0, r0, r0, lsr #1
 660:	0000008c 	andeq	r0, r0, ip, lsl #1
 664:	00000074 	andeq	r0, r0, r4, ror r0
 668:	00000072 	andeq	r0, r0, r2, ror r0
 66c:	00000070 	andeq	r0, r0, r0, ror r0
 670:	00000000 	andeq	r0, r0, r0
 674:	00000066 	andeq	r0, r0, r6, rrx
 678:	0000005c 	andeq	r0, r0, ip, asr r0
 67c:	0000004e 	andeq	r0, r0, lr, asr #32
 680:	00c4b570 	sbceq	fp, r4, r0, ror r5
 684:	21004620 	tstcs	r0, r0, lsr #12
 688:	f7ff1066 			; <UNDEFINED> instruction: 0xf7ff1066
 68c:	4620fcb9 			; <UNDEFINED> instruction: 0x4620fcb9
 690:	1e652100 	pownes	f2, f5, f0
 694:	fdc2f7ff 	stc2l	7, cr15, [r2, #1020]	; 0x3fc
 698:	21014620 	tstcs	r1, r0, lsr #12
 69c:	fcb0f7ff 	ldc2	7, cr15, [r0], #1020	; 0x3fc
 6a0:	21014620 	tstcs	r1, r0, lsr #12
 6a4:	fdbaf7ff 	ldc2	7, cr15, [sl, #1020]!	; 0x3fc
 6a8:	46204631 			; <UNDEFINED> instruction: 0x46204631
 6ac:	fca8f7ff 	stc2	7, cr15, [r8], #1020	; 0x3fc
 6b0:	46204631 			; <UNDEFINED> instruction: 0x46204631
 6b4:	fdb2f7ff 	ldc2	7, cr15, [r2, #1020]!	; 0x3fc
 6b8:	46204629 	strtmi	r4, [r0], -r9, lsr #12
 6bc:	fca0f7ff 	stc2	7, cr15, [r0], #1020	; 0x3fc
 6c0:	46204629 	strtmi	r4, [r0], -r9, lsr #12
 6c4:	fdaaf7ff 	stc2	7, cr15, [sl, #1020]!	; 0x3fc
 6c8:	46204621 	strtmi	r4, [r0], -r1, lsr #12
 6cc:	fc98f7ff 	ldc2	7, cr15, [r8], {255}	; 0xff
 6d0:	46204621 	strtmi	r4, [r0], -r1, lsr #12
 6d4:	4070e8bd 	ldrhtmi	lr, [r0], #-141	; 0xffffff73
 6d8:	bf00e5a0 	svclt	0x0000e5a0

Disassembly of section .text.startup:

00000000 <.text.startup>:
   0:	2001b508 	andcs	fp, r1, r8, lsl #10
   4:	fffef7ff 			; <UNDEFINED> instruction: 0xfffef7ff
   8:	f7ff2002 			; <UNDEFINED> instruction: 0xf7ff2002
   c:	2004fffe 	strdcs	pc, [r4], -lr
  10:	fffef7ff 			; <UNDEFINED> instruction: 0xfffef7ff
  14:	f7ff2004 			; <UNDEFINED> instruction: 0xf7ff2004
  18:	2008fffe 	strdcs	pc, [r8], -lr
  1c:	fffef7ff 			; <UNDEFINED> instruction: 0xfffef7ff
  20:	44784802 	ldrbtmi	r4, [r8], #-2050	; 0xfffff7fe
  24:	fffef7ff 			; <UNDEFINED> instruction: 0xfffef7ff
  28:	bd082000 	stclt	0, cr2, [r8, #-0]
  2c:	00000006 	andeq	r0, r0, r6
