
/root/projects/compiled/non_crypto/stripped/lz4_lz4.git_round_trip_hc_fuzzer_d595804b_stripped.o:     file format elf32-littlearm


Disassembly of section .text:

00000000 <.text>:
   0:	4ff0e92d 	svcmi	0x00f0e92d
   4:	f8df4680 			; <UNDEFINED> instruction: 0xf8df4680
   8:	b085911c 	addlt	r9, r5, ip, lsl r1
   c:	fffef7ff 			; <UNDEFINED> instruction: 0xfffef7ff
  10:	2102220c 	tstcs	r2, ip, lsl #4
  14:	f7ff4607 			; <UNDEFINED> instruction: 0xf7ff4607
  18:	4682fffe 			; <UNDEFINED> instruction: 0x4682fffe
  1c:	44f94638 	ldrbtmi	r4, [r9], #1592	; 0x638
  20:	fffef7ff 			; <UNDEFINED> instruction: 0xfffef7ff
  24:	f7ff4605 			; <UNDEFINED> instruction: 0xf7ff4605
  28:	4683fffe 			; <UNDEFINED> instruction: 0x4683fffe
  2c:	fffef7ff 			; <UNDEFINED> instruction: 0xfffef7ff
  30:	46284604 	strtmi	r4, [r8], -r4, lsl #12
  34:	fffef7ff 			; <UNDEFINED> instruction: 0xfffef7ff
  38:	4606b33c 			; <UNDEFINED> instruction: 0x4606b33c
  3c:	d0632800 	rsble	r2, r3, r0, lsl #16
  40:	465b462a 	ldrbmi	r4, [fp], -sl, lsr #12
  44:	46404621 	strbmi	r4, [r0], -r1, lsr #12
  48:	a000f8cd 	andge	pc, r0, sp, asr #17
  4c:	fffef7ff 			; <UNDEFINED> instruction: 0xfffef7ff
  50:	dd4b1e02 	stclle	14, cr1, [fp, #-8]
  54:	4631462b 	ldrtmi	r4, [r1], -fp, lsr #12
  58:	f7ff4620 			; <UNDEFINED> instruction: 0xf7ff4620
  5c:	4602fffe 			; <UNDEFINED> instruction: 0x4602fffe
  60:	d13542a8 	teqle	r5, r8, lsr #5
  64:	46314640 	ldrtmi	r4, [r1], -r0, asr #12
  68:	fffef7ff 			; <UNDEFINED> instruction: 0xfffef7ff
  6c:	bb084605 	bllt	0x211888
  70:	f7ff4620 			; <UNDEFINED> instruction: 0xf7ff4620
  74:	4630fffe 	shsub8mi	pc, r0, lr	; <UNPREDICTABLE>
  78:	fffef7ff 			; <UNDEFINED> instruction: 0xfffef7ff
  7c:	f7ff4638 			; <UNDEFINED> instruction: 0xf7ff4638
  80:	4628fffe 	qsub8mi	pc, r8, lr	; <UNPREDICTABLE>
  84:	e8bdb005 	pop	{r0, r2, ip, sp, pc}
  88:	48278ff0 	stmdami	r7!, {r4, r5, r6, r7, r8, r9, sl, fp, pc}
  8c:	4a27241b 	bmi	0x9c9100
  90:	447a4927 	ldrbtmi	r4, [sl], #-2343	; 0xfffff6d9
  94:	f8594b27 			; <UNDEFINED> instruction: 0xf8594b27
  98:	44790000 	ldrbtmi	r0, [r9], #-0
  9c:	447b9202 	ldrbtmi	r9, [fp], #-514	; 0xfffffdfe
  a0:	447a4a25 	ldrbtmi	r4, [sl], #-2597	; 0xfffff5db
  a4:	4100e9cd 	smlabtmi	r0, sp, r9, lr
  a8:	68002101 	stmdavs	r0, {r0, r8, sp}
  ac:	fffef7ff 			; <UNDEFINED> instruction: 0xfffef7ff
  b0:	fffef7ff 			; <UNDEFINED> instruction: 0xfffef7ff
  b4:	2425481c 	strtcs	r4, [r5], #-2076	; 0xfffff7e4
  b8:	49214a20 	stmdbmi	r1!, {r5, r9, fp, lr}
  bc:	4b21447a 	blmi	0x8512ac
  c0:	0000f859 	andeq	pc, r0, r9, asr r8	; <UNPREDICTABLE>
  c4:	92024479 	andls	r4, r2, #2030043136	; 0x79000000
  c8:	4a1f447b 	bmi	0x7d12bc
  cc:	e7e9447a 			; <UNDEFINED> instruction: 0xe7e9447a
  d0:	24244815 	strtcs	r4, [r4], #-2069	; 0xfffff7eb
  d4:	491e4a1d 	ldmdbmi	lr, {r0, r2, r3, r4, r9, fp, lr}
  d8:	4b1e447a 	blmi	0x7912c8
  dc:	0000f859 	andeq	pc, r0, r9, asr r8	; <UNPREDICTABLE>
  e0:	92024479 	andls	r4, r2, #2030043136	; 0x79000000
  e4:	4a1c447b 	bmi	0x7112d8
  e8:	e7db447a 			; <UNDEFINED> instruction: 0xe7db447a
  ec:	2421480e 	strtcs	r4, [r1], #-2062	; 0xfffff7f2
  f0:	491b4a1a 	ldmdbmi	fp, {r1, r3, r4, r9, fp, lr}
  f4:	4b1b447a 	blmi	0x6d12e4
  f8:	0000f859 	andeq	pc, r0, r9, asr r8	; <UNPREDICTABLE>
  fc:	92024479 	andls	r4, r2, #2030043136	; 0x79000000
 100:	4a19447b 	bmi	0x6512f4
 104:	e7cd447a 			; <UNDEFINED> instruction: 0xe7cd447a
 108:	241c4807 	ldrcs	r4, [ip], #-2055	; 0xfffff7f9
 10c:	49184a17 	ldmdbmi	r8, {r0, r1, r2, r4, r9, fp, lr}
 110:	4b18447a 	blmi	0x611300
 114:	0000f859 	andeq	pc, r0, r9, asr r8	; <UNPREDICTABLE>
 118:	92024479 	andls	r4, r2, #2030043136	; 0x79000000
 11c:	4a16447b 	bmi	0x591310
 120:	e7bf447a 			; <UNDEFINED> instruction: 0xe7bf447a
 124:	00000102 	andeq	r0, r0, r2, lsl #2
 128:	00000000 	andeq	r0, r0, r0
 12c:	00000096 	muleq	r0, r6, r0
 130:	00000092 	muleq	r0, r2, r0
 134:	00000092 	muleq	r0, r2, r0
 138:	00000092 	muleq	r0, r2, r0
 13c:	0000007c 	andeq	r0, r0, ip, ror r0
 140:	00000078 	andeq	r0, r0, r8, ror r0
 144:	00000078 	andeq	r0, r0, r8, ror r0
 148:	00000078 	andeq	r0, r0, r8, ror r0
 14c:	00000070 	andeq	r0, r0, r0, ror r0
 150:	0000006c 	andeq	r0, r0, ip, rrx
 154:	0000006c 	andeq	r0, r0, ip, rrx
 158:	0000006c 	andeq	r0, r0, ip, rrx
 15c:	00000064 	andeq	r0, r0, r4, rrx
 160:	00000060 	andeq	r0, r0, r0, rrx
 164:	00000060 	andeq	r0, r0, r0, rrx
 168:	00000060 	andeq	r0, r0, r0, rrx
 16c:	00000058 	andeq	r0, r0, r8, asr r0
 170:	00000054 	andeq	r0, r0, r4, asr r0
 174:	00000054 	andeq	r0, r0, r4, asr r0
 178:	00000054 	andeq	r0, r0, r4, asr r0
