
/root/projects/compiled/non_crypto/stripped/lz4_lz4.git_compress_fuzzer_7cff7958_stripped.o:     file format elf32-littlearm


Disassembly of section .text:

00000000 <.text>:
   0:	4b6f4a6e 	blmi	0x1bd29c0
   4:	e92d447a 	push	{r1, r3, r4, r5, r6, sl, lr}
   8:	468047f0 			; <UNDEFINED> instruction: 0x468047f0
   c:	f8dfb086 			; <UNDEFINED> instruction: 0xf8dfb086
  10:	58d3a1b4 	ldmpl	r3, {r2, r4, r5, r7, r8, sp, pc}^
  14:	681b44fa 	ldmdavs	fp, {r1, r3, r4, r5, r6, r7, sl, lr}
  18:	f04f9305 			; <UNDEFINED> instruction: 0xf04f9305
  1c:	f7ff0300 			; <UNDEFINED> instruction: 0xf7ff0300
  20:	4681fffe 			; <UNDEFINED> instruction: 0x4681fffe
  24:	fffef7ff 			; <UNDEFINED> instruction: 0xfffef7ff
  28:	46484604 	strbmi	r4, [r8], -r4, lsl #12
  2c:	fffef7ff 			; <UNDEFINED> instruction: 0xfffef7ff
  30:	f7ff4605 			; <UNDEFINED> instruction: 0xf7ff4605
  34:	2100fffe 	strdcs	pc, [r0, -lr]
  38:	46204602 	strtmi	r4, [r0], -r2, lsl #12
  3c:	fffef7ff 			; <UNDEFINED> instruction: 0xfffef7ff
  40:	f7ff4607 			; <UNDEFINED> instruction: 0xf7ff4607
  44:	4604fffe 			; <UNDEFINED> instruction: 0x4604fffe
  48:	f7ff4628 			; <UNDEFINED> instruction: 0xf7ff4628
  4c:	2c00fffe 	stccs	15, cr15, [r0], {254}	; 0xfe
  50:	4606d07b 			; <UNDEFINED> instruction: 0x4606d07b
  54:	d06a2800 	rsble	r2, sl, r0, lsl #16
  58:	463b462a 	ldrtmi	r4, [fp], -sl, lsr #12
  5c:	46404621 	strbmi	r4, [r0], -r1, lsr #12
  60:	fffef7ff 			; <UNDEFINED> instruction: 0xfffef7ff
  64:	dc2f1e02 	stcle	14, cr1, [pc], #-8	; 0x64
  68:	aa04b1bf 	bge	0x12c76c
  6c:	4621463b 			; <UNDEFINED> instruction: 0x4621463b
  70:	95044640 	strls	r4, [r4, #-1600]	; 0xfffff9c0
  74:	fffef7ff 			; <UNDEFINED> instruction: 0xfffef7ff
  78:	f3401e02 	vcge.f32	d17, d0, d2
  7c:	462b8090 			; <UNDEFINED> instruction: 0x462b8090
  80:	46204631 			; <UNDEFINED> instruction: 0x46204631
  84:	fffef7ff 			; <UNDEFINED> instruction: 0xfffef7ff
  88:	42829a04 	addmi	r9, r2, #4, 20	; 0x4000
  8c:	4640d16b 	strbmi	sp, [r0], -fp, ror #2
  90:	f7ff4631 			; <UNDEFINED> instruction: 0xf7ff4631
  94:	2800fffe 	stmdacs	r0, {r1, r2, r3, r4, r5, r6, r7, r8, r9, sl, fp, ip, sp, lr, pc}
  98:	4620d139 			; <UNDEFINED> instruction: 0x4620d139
  9c:	fffef7ff 			; <UNDEFINED> instruction: 0xfffef7ff
  a0:	f7ff4630 			; <UNDEFINED> instruction: 0xf7ff4630
  a4:	4648fffe 			; <UNDEFINED> instruction: 0x4648fffe
  a8:	fffef7ff 			; <UNDEFINED> instruction: 0xfffef7ff
  ac:	4b444a46 	blmi	0x11129cc
  b0:	58d3447a 	ldmpl	r3, {r1, r3, r4, r5, r6, sl, lr}^
  b4:	9b05681a 	blls	0x15a124
  b8:	f04f405a 			; <UNDEFINED> instruction: 0xf04f405a
  bc:	d1340300 	teqle	r4, r0, lsl #6
  c0:	b0062000 	andlt	r2, r6, r0
  c4:	87f0e8bd 			; <UNDEFINED> instruction: 0x87f0e8bd
  c8:	4631462b 	ldrtmi	r4, [r1], -fp, lsr #12
  cc:	f7ff4620 			; <UNDEFINED> instruction: 0xf7ff4620
  d0:	4602fffe 			; <UNDEFINED> instruction: 0x4602fffe
  d4:	d15442a8 	cmple	r4, r8, lsr #5
  d8:	46404631 			; <UNDEFINED> instruction: 0x46404631
  dc:	fffef7ff 			; <UNDEFINED> instruction: 0xfffef7ff
  e0:	d0c12800 	sbcle	r2, r1, r0, lsl #16
  e4:	24264839 	strtcs	r4, [r6], #-2105	; 0xfffff7c7
  e8:	493a4a39 	ldmdbmi	sl!, {r0, r3, r4, r5, r9, fp, lr}
  ec:	4b3a447a 	blmi	0xe912dc
  f0:	0000f85a 	andeq	pc, r0, sl, asr r8	; <UNPREDICTABLE>
  f4:	92024479 	andls	r4, r2, #2030043136	; 0x79000000
  f8:	4a38447b 	bmi	0xe112ec
  fc:	e9cd447a 	stmib	sp, {r1, r3, r4, r5, r6, sl, lr}^
 100:	21014100 	mrscs	r4, (UNDEF: 17)
 104:	f7ff6800 			; <UNDEFINED> instruction: 0xf7ff6800
 108:	f7fffffe 			; <UNDEFINED> instruction: 0xf7fffffe
 10c:	482ffffe 	stmdami	pc!, {r1, r2, r3, r4, r5, r6, r7, r8, r9, sl, fp, ip, sp, lr, pc}	; <UNPREDICTABLE>
 110:	4a332432 	bmi	0xcc91e0
 114:	447a4933 	ldrbtmi	r4, [sl], #-2355	; 0xfffff6cd
 118:	f85a4b33 			; <UNDEFINED> instruction: 0xf85a4b33
 11c:	44790000 	ldrbtmi	r0, [r9], #-0
 120:	447b9202 	ldrbtmi	r9, [fp], #-514	; 0xfffffdfe
 124:	447a4a31 	ldrbtmi	r4, [sl], #-2609	; 0xfffff5cf
 128:	f7ffe7e9 			; <UNDEFINED> instruction: 0xf7ffe7e9
 12c:	4827fffe 	stmdami	r7!, {r1, r2, r3, r4, r5, r6, r7, r8, r9, sl, fp, ip, sp, lr, pc}
 130:	4a2f241d 	bmi	0xbc91ac
 134:	447a492f 	ldrbtmi	r4, [sl], #-2351	; 0xfffff6d1
 138:	f85a4b2f 			; <UNDEFINED> instruction: 0xf85a4b2f
 13c:	44790000 	ldrbtmi	r0, [r9], #-0
 140:	447b9202 	ldrbtmi	r9, [fp], #-514	; 0xfffffdfe
 144:	447a4a2d 	ldrbtmi	r4, [sl], #-2605	; 0xfffff5d3
 148:	4820e7d9 	stmdami	r0!, {r0, r3, r4, r6, r7, r8, r9, sl, sp, lr, pc}
 14c:	4a2c241c 	bmi	0xb091c4
 150:	447a492c 	ldrbtmi	r4, [sl], #-2348	; 0xfffff6d4
 154:	f85a4b2c 			; <UNDEFINED> instruction: 0xf85a4b2c
 158:	44790000 	ldrbtmi	r0, [r9], #-0
 15c:	447b9202 	ldrbtmi	r9, [fp], #-514	; 0xfffffdfe
 160:	447a4a2a 	ldrbtmi	r4, [sl], #-2602	; 0xfffff5d6
 164:	4819e7cb 	ldmdami	r9, {r0, r1, r3, r6, r7, r8, r9, sl, sp, lr, pc}
 168:	4a292431 	bmi	0xa49234
 16c:	447a4929 	ldrbtmi	r4, [sl], #-2345	; 0xfffff6d7
 170:	f85a4b29 			; <UNDEFINED> instruction: 0xf85a4b29
 174:	44790000 	ldrbtmi	r0, [r9], #-0
 178:	447b9202 	ldrbtmi	r9, [fp], #-514	; 0xfffffdfe
 17c:	447a4a27 	ldrbtmi	r4, [sl], #-2599	; 0xfffff5d9
 180:	4812e7bd 	ldmdami	r2, {r0, r2, r3, r4, r5, r7, r8, r9, sl, sp, lr, pc}
 184:	4a262425 	bmi	0x989220
 188:	447a4926 	ldrbtmi	r4, [sl], #-2342	; 0xfffff6da
 18c:	f85a4b26 			; <UNDEFINED> instruction: 0xf85a4b26
 190:	44790000 	ldrbtmi	r0, [r9], #-0
 194:	447b9202 	ldrbtmi	r9, [fp], #-514	; 0xfffffdfe
 198:	447a4a24 	ldrbtmi	r4, [sl], #-2596	; 0xfffff5dc
 19c:	480be7af 	stmdami	fp, {r0, r1, r2, r3, r5, r7, r8, r9, sl, sp, lr, pc}
 1a0:	4a23242f 	bmi	0x8c9264
 1a4:	447a4923 	ldrbtmi	r4, [sl], #-2339	; 0xfffff6dd
 1a8:	f85a4b23 			; <UNDEFINED> instruction: 0xf85a4b23
 1ac:	44790000 	ldrbtmi	r0, [r9], #-0
 1b0:	447b9202 	ldrbtmi	r9, [fp], #-514	; 0xfffffdfe
 1b4:	447a4a21 	ldrbtmi	r4, [sl], #-2593	; 0xfffff5df
 1b8:	bf00e7a1 	svclt	0x0000e7a1
 1bc:	000001b4 			; <UNDEFINED> instruction: 0x000001b4
 1c0:	00000000 	andeq	r0, r0, r0
 1c4:	000001ac 	andeq	r0, r0, ip, lsr #3
 1c8:	00000114 	andeq	r0, r0, r4, lsl r1
 1cc:	00000000 	andeq	r0, r0, r0
 1d0:	000000e0 	andeq	r0, r0, r0, ror #1
 1d4:	000000dc 	ldrdeq	r0, [r0], -ip
 1d8:	000000dc 	ldrdeq	r0, [r0], -ip
 1dc:	000000dc 	ldrdeq	r0, [r0], -ip
 1e0:	000000c6 	andeq	r0, r0, r6, asr #1
 1e4:	000000c2 	andeq	r0, r0, r2, asr #1
 1e8:	000000c2 	andeq	r0, r0, r2, asr #1
 1ec:	000000c2 	andeq	r0, r0, r2, asr #1
 1f0:	000000b6 	strheq	r0, [r0], -r6
 1f4:	000000b2 	strheq	r0, [r0], -r2
 1f8:	000000b2 	strheq	r0, [r0], -r2
 1fc:	000000b2 	strheq	r0, [r0], -r2
 200:	000000aa 	andeq	r0, r0, sl, lsr #1
 204:	000000a6 	andeq	r0, r0, r6, lsr #1
 208:	000000a6 	andeq	r0, r0, r6, lsr #1
 20c:	000000a6 	andeq	r0, r0, r6, lsr #1
 210:	0000009e 	muleq	r0, lr, r0
 214:	0000009a 	muleq	r0, sl, r0
 218:	0000009a 	muleq	r0, sl, r0
 21c:	0000009a 	muleq	r0, sl, r0
 220:	00000092 	muleq	r0, r2, r0
 224:	0000008e 	andeq	r0, r0, lr, lsl #1
 228:	0000008e 	andeq	r0, r0, lr, lsl #1
 22c:	0000008e 	andeq	r0, r0, lr, lsl #1
 230:	00000086 	andeq	r0, r0, r6, lsl #1
 234:	00000082 	andeq	r0, r0, r2, lsl #1
 238:	00000082 	andeq	r0, r0, r2, lsl #1
 23c:	00000082 	andeq	r0, r0, r2, lsl #1
