
/root/projects/compiled/non_crypto/stripped/lz4_lz4.git_round_trip_stream_fuzzer_7a37c5a7_stripped.o:     file format elf32-littlearm


Disassembly of section .text:

00000000 <.text>:
   0:	4604b570 			; <UNDEFINED> instruction: 0x4604b570
   4:	13b1f647 			; <UNDEFINED> instruction: 0x13b1f647
   8:	6337f6c9 	teqvs	r7, #210763776	; 0xc900000	; <UNPREDICTABLE>
   c:	2077f64c 	rsbscs	pc, r7, ip, asr #12
  10:	50ebf2c8 	rscpl	pc, fp, r8, asr #5
  14:	69216b22 	stmdbvs	r1!, {r1, r5, r8, r9, fp, sp, lr}
  18:	4e22b084 	cdpmi	0, 2, cr11, cr2, cr4, {4}
  1c:	3f8cf5b1 	svccc	0x008cf5b1
  20:	0002fb03 	andeq	pc, r2, r3, lsl #22
  24:	f44fbf28 			; <UNDEFINED> instruction: 0xf44fbf28
  28:	3101318c 	smlabbcc	r1, ip, r1, r3
  2c:	ea4f447e 	b	0x13d122c
  30:	632040f0 			; <UNDEFINED> instruction: 0x632040f0
  34:	f7ff0940 			; <UNDEFINED> instruction: 0xf7ff0940
  38:	6963fffe 	stmdbvs	r3!, {r1, r2, r3, r4, r5, r6, r7, r8, r9, sl, fp, ip, sp, lr, pc}^
  3c:	6ae3b983 	bvs	0xff8ee650
  40:	460dbb13 			; <UNDEFINED> instruction: 0x460dbb13
  44:	462a6a60 	strtmi	r6, [sl], -r0, ror #20
  48:	f7ff68e1 			; <UNDEFINED> instruction: 0xf7ff68e1
  4c:	6962fffe 	stmdbvs	r2!, {r1, r2, r3, r4, r5, r6, r7, r8, r9, sl, fp, ip, sp, lr, pc}^
  50:	46286ae3 	strtmi	r6, [r8], -r3, ror #21
  54:	6162442a 	cmnvs	r2, sl, lsr #8
  58:	62e3442b 	rscvs	r4, r3, #721420288	; 0x2b000000
  5c:	bd70b004 	ldcllt	0, cr11, [r0, #-16]!
  60:	24834811 	strcs	r4, [r3], #2065	; 0x811
  64:	49124a11 	ldmdbmi	r2, {r0, r4, r9, fp, lr}
  68:	4b12447a 	blmi	0x491258
  6c:	44795830 	ldrbtmi	r5, [r9], #-2096	; 0xfffff7d0
  70:	447b9202 	ldrbtmi	r9, [fp], #-514	; 0xfffffdfe
  74:	447a4a10 	ldrbtmi	r4, [sl], #-2576	; 0xfffff5f0
  78:	4100e9cd 	smlabtmi	r0, sp, r9, lr
  7c:	68002101 	stmdavs	r0, {r0, r8, sp}
  80:	fffef7ff 			; <UNDEFINED> instruction: 0xfffef7ff
  84:	fffef7ff 			; <UNDEFINED> instruction: 0xfffef7ff
  88:	24844807 	strcs	r4, [r4], #2055	; 0x807
  8c:	490c4a0b 	stmdbmi	ip, {r0, r1, r3, r9, fp, lr}
  90:	4b0c447a 	blmi	0x311280
  94:	44795830 	ldrbtmi	r5, [r9], #-2096	; 0xfffff7d0
  98:	447b9202 	ldrbtmi	r9, [fp], #-514	; 0xfffffdfe
  9c:	447a4a0a 	ldrbtmi	r4, [sl], #-2570	; 0xfffff5f6
  a0:	bf00e7ea 	svclt	0x0000e7ea
  a4:	00000074 	andeq	r0, r0, r4, ror r0
  a8:	00000000 	andeq	r0, r0, r0
  ac:	00000040 	andeq	r0, r0, r0, asr #32
  b0:	0000003e 	andeq	r0, r0, lr, lsr r0
  b4:	0000003e 	andeq	r0, r0, lr, lsr r0
  b8:	0000003e 	andeq	r0, r0, lr, lsr r0
  bc:	00000028 	andeq	r0, r0, r8, lsr #32
  c0:	00000026 	andeq	r0, r0, r6, lsr #32
  c4:	00000026 	andeq	r0, r0, r6, lsr #32
  c8:	00000026 	andeq	r0, r0, r6, lsr #32
  cc:	242f4a0c 	strtcs	r4, [pc], #-2572	; 0xd4
  d0:	f8dfb500 			; <UNDEFINED> instruction: 0xf8dfb500
  d4:	447ac030 	ldrbtmi	ip, [sl], #-48	; 0xffffffd0
  d8:	480bb085 	stmdami	fp, {r0, r2, r7, ip, sp, pc}
  dc:	f852490b 			; <UNDEFINED> instruction: 0xf852490b
  e0:	4478500c 	ldrbtmi	r5, [r8], #-12
  e4:	4b0a4479 	blmi	0x2912d0
  e8:	4100e9cd 	smlabtmi	r0, sp, r9, lr
  ec:	4a092101 	bmi	0x2484f8
  f0:	9002447b 	andls	r4, r2, fp, ror r4
  f4:	6828447a 	stmdavs	r8!, {r1, r3, r4, r5, r6, sl, lr}
  f8:	fffef7ff 			; <UNDEFINED> instruction: 0xfffef7ff
  fc:	fffef7ff 			; <UNDEFINED> instruction: 0xfffef7ff
 100:	00000026 	andeq	r0, r0, r6, lsr #32
 104:	00000000 	andeq	r0, r0, r0
 108:	00000022 	andeq	r0, r0, r2, lsr #32
 10c:	00000024 	andeq	r0, r0, r4, lsr #32
 110:	0000001c 	andeq	r0, r0, ip, lsl r0
 114:	0000001c 	andeq	r0, r0, ip, lsl r0
 118:	4ff0e92d 	svcmi	0x00f0e92d
 11c:	69024604 	stmdbvs	r2, {r2, r9, sl, lr}
 120:	4b48b089 	blmi	0x122c34c
 124:	447b4610 	ldrbtmi	r4, [fp], #-1552	; 0xfffff9f0
 128:	93079206 	movwls	r9, #29190	; 0x7206
 12c:	fffef7ff 			; <UNDEFINED> instruction: 0xfffef7ff
 130:	90059a06 	andls	r9, r5, r6, lsl #20
 134:	f0002800 			; <UNDEFINED> instruction: 0xf0002800
 138:	68e18082 	stmiavs	r1!, {r1, r7, pc}^
 13c:	f7ff9206 			; <UNDEFINED> instruction: 0xf7ff9206
 140:	f8d4fffe 			; <UNDEFINED> instruction: 0xf8d4fffe
 144:	9a06a014 	bls	0x1a819c
 148:	d04f4552 	suble	r4, pc, r2, asr r5	; <UNPREDICTABLE>
 14c:	18b1f647 	ldmne	r1!, {r0, r1, r2, r6, r9, sl, ip, sp, lr, pc}
 150:	6837f6c9 	ldmdavs	r7!, {r0, r3, r6, r7, r9, sl, ip, sp, lr, pc}
 154:	2977f64c 	ldmdbcs	r7!, {r2, r3, r6, r9, sl, ip, sp, lr, pc}^
 158:	59ebf2c8 	stmibpl	fp!, {r3, r6, r7, r9, ip, sp, lr, pc}^
 15c:	27019d05 	strcs	r9, [r1, -r5, lsl #26]
 160:	461346d3 			; <UNDEFINED> instruction: 0x461346d3
 164:	07fae006 	ldrbeq	lr, [sl, r6]!
 168:	0101f107 	tsteq	r1, r7, lsl #2	; <UNPREDICTABLE>
 16c:	bf4c460f 	svclt	0x004c460f
 170:	9d0568e5 	stcls	8, cr6, [r5, #-916]	; 0xfffffc6c
 174:	f1cb6b20 			; <UNDEFINED> instruction: 0xf1cb6b20
 178:	44190101 	ldrmi	r0, [r9], #-257	; 0xfffffeff
 17c:	a020f8d4 	ldrdge	pc, [r0], -r4	; <UNPREDICTABLE>
 180:	fb0869a6 	blx	0x21a822
 184:	44569000 	ldrbmi	r9, [r6], #-0
 188:	40f0ea4f 	rscsmi	lr, r0, pc, asr #20
 18c:	09406320 	stmdbeq	r0, {r5, r8, r9, sp, lr}^
 190:	fffef7ff 			; <UNDEFINED> instruction: 0xfffef7ff
 194:	6820460b 	stmdavs	r0!, {r0, r1, r3, r9, sl, lr}
 198:	010beb05 	tsteq	fp, r5, lsl #22
 19c:	2300461d 	movwcs	r4, #1565	; 0x61d
 1a0:	69e39301 	stmibvs	r3!, {r0, r8, r9, ip, pc}^
 1a4:	020aeba3 	andeq	lr, sl, #166912	; 0x28c00
 1a8:	9200462b 	andls	r4, r0, #45088768	; 0x2b00000
 1ac:	f7ff4632 			; <UNDEFINED> instruction: 0xf7ff4632
 1b0:	1e03fffe 	mcrne	15, 0, pc, cr3, cr14, {7}	; <UNPREDICTABLE>
 1b4:	6960dd20 	stmdbvs	r0!, {r5, r8, sl, fp, ip, lr, pc}^
 1b8:	6a224631 	bvs	0x891a84
 1bc:	61654405 	cmnvs	r5, r5, lsl #8
 1c0:	6222441a 	eorvs	r4, r2, #436207616	; 0x1a000000
 1c4:	2509e9d4 	strcs	lr, [r9, #-2516]	; 0xfffff62c
 1c8:	c02cf8d4 	ldrdgt	pc, [ip], -r4	; <UNPREDICTABLE>
 1cc:	eba568a0 	bl	0xfe95a454
 1d0:	4462050c 	strbtmi	r0, [r2], #-1292	; 0xfffffaf4
 1d4:	f7ff9500 			; <UNDEFINED> instruction: 0xf7ff9500
 1d8:	2800fffe 	stmdacs	r0, {r1, r2, r3, r4, r5, r6, r7, r8, r9, sl, fp, ip, sp, lr, pc}
 1dc:	e9d4db21 	ldmib	r4, {r0, r5, r8, r9, fp, ip, lr, pc}^
 1e0:	6ae13b04 	bvs	0xff84edf8
 1e4:	4401459b 	strmi	r4, [r1], #-1435	; 0xfffffa65
 1e8:	d1bc62e1 			; <UNDEFINED> instruction: 0xd1bc62e1
 1ec:	b0099805 	andlt	r9, r9, r5, lsl #16
 1f0:	4ff0e8bd 	svcmi	0x00f0e8bd
 1f4:	bffef7ff 	svclt	0x00fef7ff
 1f8:	24aa4813 	strtcs	r4, [sl], #2067	; 0x813
 1fc:	4a139d07 	bmi	0x4e7620
 200:	447a4913 	ldrbtmi	r4, [sl], #-2323	; 0xfffff6ed
 204:	58284b13 	stmdapl	r8!, {r0, r1, r4, r8, r9, fp, lr}
 208:	92024479 	andls	r4, r2, #2030043136	; 0x79000000
 20c:	4a12447b 	bmi	0x491400
 210:	e9cd447a 	stmib	sp, {r1, r3, r4, r5, r6, sl, lr}^
 214:	21014100 	mrscs	r4, (UNDEF: 17)
 218:	f7ff6800 			; <UNDEFINED> instruction: 0xf7ff6800
 21c:	f7fffffe 			; <UNDEFINED> instruction: 0xf7fffffe
 220:	4809fffe 	stmdami	r9, {r1, r2, r3, r4, r5, r6, r7, r8, r9, sl, fp, ip, sp, lr, pc}
 224:	9d07246d 	cfstrsls	mvf2, [r7, #-436]	; 0xfffffe4c
 228:	490d4a0c 	stmdbmi	sp, {r2, r3, r9, fp, lr}
 22c:	4b0d447a 	blmi	0x35141c
 230:	44795828 	ldrbtmi	r5, [r9], #-2088	; 0xfffff7d8
 234:	447b9202 	ldrbtmi	r9, [fp], #-514	; 0xfffffdfe
 238:	447a4a0b 	ldrbtmi	r4, [sl], #-2571	; 0xfffff5f5
 23c:	f7ffe7e9 			; <UNDEFINED> instruction: 0xf7ffe7e9
 240:	bf00ff45 	svclt	0x0000ff45
 244:	0000011a 	andeq	r0, r0, sl, lsl r1
 248:	00000000 	andeq	r0, r0, r0
 24c:	00000046 	andeq	r0, r0, r6, asr #32
 250:	00000044 	andeq	r0, r0, r4, asr #32
 254:	00000044 	andeq	r0, r0, r4, asr #32
 258:	00000044 	andeq	r0, r0, r4, asr #32
 25c:	0000002c 	andeq	r0, r0, ip, lsr #32
 260:	0000002a 	andeq	r0, r0, sl, lsr #32
 264:	0000002a 	andeq	r0, r0, sl, lsr #32
 268:	0000002a 	andeq	r0, r0, sl, lsr #32
 26c:	1204e9d0 	andne	lr, r4, #208, 18	; 0x340000
 270:	4ff0e92d 	svcmi	0x00f0e92d
 274:	b0e8f8df 	ldrdlt	pc, [r8], #143	; 0x8f	; <UNPREDICTABLE>
 278:	4291b087 	addsmi	fp, r1, #135	; 0x87
 27c:	d04944fb 	strdle	r4, [r9], #-75	; 0xffffffb5
 280:	17b1f647 	ldrne	pc, [r1, r7, asr #12]!
 284:	6737f6c9 	ldrvs	pc, [r7, -r9, asr #13]!
 288:	2677f64c 	ldrbtcs	pc, [r7], -ip, asr #12	; <UNPREDICTABLE>
 28c:	56ebf2c8 	strbtpl	pc, [fp], r8, asr #5	; <UNPREDICTABLE>
 290:	6b204604 	blvs	0x811aa8
 294:	0c01f1c2 	stfeqd	f7, [r1], {194}	; 0xc2
 298:	446168e3 	strbtmi	r6, [r1], #-2275	; 0xfffff71d
 29c:	a020f8d4 	ldrdge	pc, [r0], -r4	; <UNPREDICTABLE>
 2a0:	eb0369a5 	bl	0xda93c
 2a4:	fb070902 	blx	0x1c26b6
 2a8:	44556000 	ldrbmi	r6, [r5], #-0
 2ac:	40f0ea4f 	rscsmi	lr, r0, pc, asr #20
 2b0:	09406320 	stmdbeq	r0, {r5, r8, r9, sp, lr}^
 2b4:	fffef7ff 			; <UNDEFINED> instruction: 0xfffef7ff
 2b8:	460b69e2 	strmi	r6, [fp], -r2, ror #19
 2bc:	eba26860 	bl	0xfe89a444
 2c0:	46880a0a 	strmi	r0, [r8], sl, lsl #20
 2c4:	4649462a 	strbmi	r4, [r9], -sl, lsr #12
 2c8:	a000f8cd 	andge	pc, r0, sp, asr #17
 2cc:	fffef7ff 			; <UNDEFINED> instruction: 0xfffef7ff
 2d0:	dd221e03 	stcle	14, cr1, [r2, #-12]!
 2d4:	6ae16a62 	bvs	0xff85ac64
 2d8:	92056960 	andls	r6, r5, #96, 18	; 0x180000
 2dc:	44806aa2 	strmi	r6, [r0], #2722	; 0xaa2
 2e0:	eba26a20 	bl	0xfe89ab68
 2e4:	9a050e01 	bls	0x143af0
 2e8:	0c03eb00 			; <UNDEFINED> instruction: 0x0c03eb00
 2ec:	8014f8c4 	andshi	pc, r4, r4, asr #17
 2f0:	440a68a0 	strmi	r6, [sl], #-2208	; 0xfffff760
 2f4:	c020f8c4 	eorgt	pc, r0, r4, asr #17
 2f8:	f8cd4629 			; <UNDEFINED> instruction: 0xf8cd4629
 2fc:	f7ffe000 			; <UNDEFINED> instruction: 0xf7ffe000
 300:	2800fffe 	stmdacs	r0, {r1, r2, r3, r4, r5, r6, r7, r8, r9, sl, fp, ip, sp, lr, pc}
 304:	e9d4db1e 	ldmib	r4, {r1, r2, r3, r4, r8, r9, fp, ip, lr, pc}^
 308:	6ae31204 	bvs	0xff8c4b20
 30c:	4403428a 	strmi	r4, [r3], #-650	; 0xfffffd76
 310:	d1be62e3 			; <UNDEFINED> instruction: 0xd1be62e3
 314:	e8bdb007 	pop	{r0, r1, r2, ip, sp, pc}
 318:	48128ff0 	ldmdami	r2, {r4, r5, r6, r7, r8, r9, sl, fp, pc}
 31c:	4a1224db 	bmi	0x489690
 320:	447a4912 	ldrbtmi	r4, [sl], #-2322	; 0xfffff6ee
 324:	f85b4b12 			; <UNDEFINED> instruction: 0xf85b4b12
 328:	44790000 	ldrbtmi	r0, [r9], #-0
 32c:	447b9202 	ldrbtmi	r9, [fp], #-514	; 0xfffffdfe
 330:	447a4a10 	ldrbtmi	r4, [sl], #-2576	; 0xfffff5f0
 334:	4100e9cd 	smlabtmi	r0, sp, r9, lr
 338:	68002101 	stmdavs	r0, {r0, r8, sp}
 33c:	fffef7ff 			; <UNDEFINED> instruction: 0xfffef7ff
 340:	fffef7ff 			; <UNDEFINED> instruction: 0xfffef7ff
 344:	246d4807 	strbtcs	r4, [sp], #-2055	; 0xfffff7f9
 348:	490c4a0b 	stmdbmi	ip, {r0, r1, r3, r9, fp, lr}
 34c:	4b0c447a 	blmi	0x31153c
 350:	0000f85b 	andeq	pc, r0, fp, asr r8	; <UNPREDICTABLE>
 354:	92024479 	andls	r4, r2, #2030043136	; 0x79000000
 358:	4a0a447b 	bmi	0x29154c
 35c:	e7e9447a 			; <UNDEFINED> instruction: 0xe7e9447a
 360:	000000e0 	andeq	r0, r0, r0, ror #1
 364:	00000000 	andeq	r0, r0, r0
 368:	00000042 	andeq	r0, r0, r2, asr #32
 36c:	0000003e 	andeq	r0, r0, lr, lsr r0
 370:	0000003e 	andeq	r0, r0, lr, lsr r0
 374:	0000003e 	andeq	r0, r0, lr, lsr r0
 378:	00000028 	andeq	r0, r0, r8, lsr #32
 37c:	00000024 	andeq	r0, r0, r4, lsr #32
 380:	00000024 	andeq	r0, r0, r4, lsr #32
 384:	00000024 	andeq	r0, r0, r4, lsr #32
 388:	4ff0e92d 	svcmi	0x00f0e92d
 38c:	e9d04b3b 	ldmib	r0, {r0, r1, r3, r4, r5, r8, r9, fp, lr}^
 390:	b0871204 	addlt	r1, r7, r4, lsl #4
 394:	4291447b 	addsmi	r4, r1, #2063597568	; 0x7b000000
 398:	d0499305 	suble	r9, r9, r5, lsl #6
 39c:	17b1f647 	ldrne	pc, [r1, r7, asr #12]!
 3a0:	6737f6c9 	ldrvs	pc, [r7, -r9, asr #13]!
 3a4:	2677f64c 	ldrbtcs	pc, [r7], -ip, asr #12	; <UNPREDICTABLE>
 3a8:	56ebf2c8 	strbtpl	pc, [fp], r8, asr #5	; <UNPREDICTABLE>
 3ac:	f04f4604 			; <UNDEFINED> instruction: 0xf04f4604
 3b0:	6b200b00 	blvs	0x802fb8
 3b4:	0c01f1c2 	stfeqd	f7, [r1], {194}	; 0xc2
 3b8:	446168e3 	strbtmi	r6, [r1], #-2275	; 0xfffff71d
 3bc:	a020f8d4 	ldrdge	pc, [r0], -r4	; <UNPREDICTABLE>
 3c0:	eb0369a5 	bl	0xdaa5c
 3c4:	fb070902 	blx	0x1c27d6
 3c8:	44556000 	ldrbmi	r6, [r5], #-0
 3cc:	40f0ea4f 	rscsmi	lr, r0, pc, asr #20
 3d0:	09406320 	stmdbeq	r0, {r5, r8, r9, sp, lr}^
 3d4:	fffef7ff 			; <UNDEFINED> instruction: 0xfffef7ff
 3d8:	460b69e2 	strmi	r6, [fp], -r2, ror #19
 3dc:	eba26820 	bl	0xfe89a464
 3e0:	46880a0a 	strmi	r0, [r8], sl, lsl #20
 3e4:	4649462a 	strbmi	r4, [r9], -sl, lsr #12
 3e8:	ab00e9cd 	blge	0x3ab24
 3ec:	fffef7ff 			; <UNDEFINED> instruction: 0xfffef7ff
 3f0:	dd201e03 	stcle	14, cr1, [r0, #-12]!
 3f4:	6ae16960 	bvs	0xff85a97c
 3f8:	6a204480 	bvs	0x811600
 3fc:	eb006a62 	bl	0x1ad8c
 400:	6aa00c03 	bvs	0xfe803414
 404:	f8c4440a 			; <UNDEFINED> instruction: 0xf8c4440a
 408:	eba08014 	bl	0xfe820460
 40c:	f8c40e01 			; <UNDEFINED> instruction: 0xf8c40e01
 410:	68a0c020 	stmiavs	r0!, {r5, lr, pc}
 414:	f8cd4629 			; <UNDEFINED> instruction: 0xf8cd4629
 418:	f7ffe000 			; <UNDEFINED> instruction: 0xf7ffe000
 41c:	2800fffe 	stmdacs	r0, {r1, r2, r3, r4, r5, r6, r7, r8, r9, sl, fp, ip, sp, lr, pc}
 420:	e9d4db1e 	ldmib	r4, {r1, r2, r3, r4, r8, r9, fp, ip, lr, pc}^
 424:	6ae31204 	bvs	0xff8c4c3c
 428:	4403428a 	strmi	r4, [r3], #-650	; 0xfffffd76
 42c:	d1c062e3 	bicle	r6, r0, r3, ror #5
 430:	e8bdb007 	pop	{r0, r1, r2, ip, sp, pc}
 434:	48128ff0 	ldmdami	r2, {r4, r5, r6, r7, r8, r9, sl, fp, pc}
 438:	9d052495 	cfstrsls	mvf2, [r5, #-596]	; 0xfffffdac
 43c:	49124a11 	ldmdbmi	r2, {r0, r4, r9, fp, lr}
 440:	4b12447a 	blmi	0x491630
 444:	44795828 	ldrbtmi	r5, [r9], #-2088	; 0xfffff7d8
 448:	447b9202 	ldrbtmi	r9, [fp], #-514	; 0xfffffdfe
 44c:	447a4a10 	ldrbtmi	r4, [sl], #-2576	; 0xfffff5f0
 450:	4100e9cd 	smlabtmi	r0, sp, r9, lr
 454:	68002101 	stmdavs	r0, {r0, r8, sp}
 458:	fffef7ff 			; <UNDEFINED> instruction: 0xfffef7ff
 45c:	fffef7ff 			; <UNDEFINED> instruction: 0xfffef7ff
 460:	246d4807 	strbtcs	r4, [sp], #-2055	; 0xfffff7f9
 464:	4a0b9d05 	bmi	0x2e7880
 468:	447a490b 	ldrbtmi	r4, [sl], #-2315	; 0xfffff6f5
 46c:	58284b0b 	stmdapl	r8!, {r0, r1, r3, r8, r9, fp, lr}
 470:	92024479 	andls	r4, r2, #2030043136	; 0x79000000
 474:	4a0a447b 	bmi	0x291668
 478:	e7e9447a 			; <UNDEFINED> instruction: 0xe7e9447a
 47c:	000000e4 	andeq	r0, r0, r4, ror #1
 480:	00000000 	andeq	r0, r0, r0
 484:	00000040 	andeq	r0, r0, r0, asr #32
 488:	0000003e 	andeq	r0, r0, lr, lsr r0
 48c:	0000003e 	andeq	r0, r0, lr, lsr r0
 490:	0000003e 	andeq	r0, r0, lr, lsr r0
 494:	00000026 	andeq	r0, r0, r6, lsr #32
 498:	00000024 	andeq	r0, r0, r4, lsr #32
 49c:	00000024 	andeq	r0, r0, r4, lsr #32
 4a0:	00000024 	andeq	r0, r0, r4, lsr #32
 4a4:	4604b570 			; <UNDEFINED> instruction: 0x4604b570
 4a8:	b08268c6 	addlt	r6, r2, r6, asr #17
 4ac:	fda8f7ff 	stc2	7, cr15, [r8, #1020]!	; 0x3fc
 4b0:	f7ff9001 			; <UNDEFINED> instruction: 0xf7ff9001
 4b4:	9a01fffe 	bls	0x804b4
 4b8:	46314605 	ldrtmi	r4, [r1], -r5, lsl #12
 4bc:	fffef7ff 			; <UNDEFINED> instruction: 0xfffef7ff
 4c0:	46296820 	strtmi	r6, [r9], -r0, lsr #16
 4c4:	fffef7ff 			; <UNDEFINED> instruction: 0xfffef7ff
 4c8:	46319a01 	ldrtmi	r9, [r1], -r1, lsl #20
 4cc:	f7ff68a0 			; <UNDEFINED> instruction: 0xf7ff68a0
 4d0:	6b21fffe 	blvs	0x8804d0
 4d4:	12b1f647 	adcsne	pc, r1, #74448896	; 0x4700000
 4d8:	6237f6c9 	eorsvs	pc, r7, #210763776	; 0xc900000
 4dc:	2377f64c 	cmncs	r7, #76, 12	; 0x4c00000	; <UNPREDICTABLE>
 4e0:	53ebf2c8 	mvnpl	pc, #200, 4	; 0x8000000c
 4e4:	fb024620 	blx	0x91d6e
 4e8:	ea4f3301 	b	0x13cd0f4
 4ec:	632343f3 			; <UNDEFINED> instruction: 0x632343f3
 4f0:	d507069b 	strle	r0, [r7, #-1691]	; 0xfffff965
 4f4:	ff48f7ff 			; <UNDEFINED> instruction: 0xff48f7ff
 4f8:	b0024628 	andlt	r4, r2, r8, lsr #12
 4fc:	4070e8bd 	ldrhtmi	lr, [r0], #-141	; 0xffffff73
 500:	bffef7ff 	svclt	0x00fef7ff
 504:	fe08f7ff 	mcr2	7, 0, pc, cr8, cr15, {7}	; <UNPREDICTABLE>
 508:	b0024628 	andlt	r4, r2, r8, lsr #12
 50c:	4070e8bd 	ldrhtmi	lr, [r0], #-141	; 0xffffff73
 510:	bffef7ff 	svclt	0x00fef7ff
 514:	4ff0e92d 	svcmi	0x00f0e92d
 518:	69054604 	stmdbvs	r5, {r2, r9, sl, lr}
 51c:	4b45b087 	blmi	0x116c740
 520:	447b4628 	ldrbtmi	r4, [fp], #-1576	; 0xfffff9d8
 524:	f7ff9305 			; <UNDEFINED> instruction: 0xf7ff9305
 528:	9004fffe 	strdls	pc, [r4], -lr
 52c:	d07e2800 	rsbsle	r2, lr, r0, lsl #16
 530:	462a68e1 	strtmi	r6, [sl], -r1, ror #17
 534:	fffef7ff 			; <UNDEFINED> instruction: 0xfffef7ff
 538:	42b56966 	adcsmi	r6, r5, #1671168	; 0x198000
 53c:	f647d04e 			; <UNDEFINED> instruction: 0xf647d04e
 540:	f6c919b1 			; <UNDEFINED> instruction: 0xf6c919b1
 544:	f64c6937 			; <UNDEFINED> instruction: 0xf64c6937
 548:	f2c82877 	vrshrn.i16	d18, <illegal reg q11.5>, #8
 54c:	f8dd58eb 			; <UNDEFINED> instruction: 0xf8dd58eb
 550:	2701b010 	smladcs	r1, r0, r0, fp
 554:	07fae008 	ldrbeq	lr, [sl, r8]!
 558:	0301f107 	movweq	pc, #4359	; 0x1107	; <UNPREDICTABLE>
 55c:	bf4c461f 	svclt	0x004c461f
 560:	b00cf8d4 	ldrdlt	pc, [ip], -r4
 564:	b010f8dd 			; <UNDEFINED> instruction: 0xb010f8dd
 568:	f1c66b20 			; <UNDEFINED> instruction: 0xf1c66b20
 56c:	69a30101 	stmibvs	r3!, {r0, r8}
 570:	f8d44429 			; <UNDEFINED> instruction: 0xf8d44429
 574:	fb09a020 	blx	0x2685fe
 578:	eb038000 	bl	0xe0580
 57c:	ea4f050a 	b	0x13c19ac
 580:	632040f0 			; <UNDEFINED> instruction: 0x632040f0
 584:	f7ff0940 			; <UNDEFINED> instruction: 0xf7ff0940
 588:	69e2fffe 	stmibvs	r2!, {r1, r2, r3, r4, r5, r6, r7, r8, r9, sl, fp, ip, sp, lr, pc}^
 58c:	6860460b 	stmdavs	r0!, {r0, r1, r3, r9, sl, lr}^
 590:	0106eb0b 	tsteq	r6, fp, lsl #22
 594:	020aeba2 	andeq	lr, sl, #165888	; 0x28800
 598:	462a9200 	strtmi	r9, [sl], -r0, lsl #4
 59c:	f7ff461e 			; <UNDEFINED> instruction: 0xf7ff461e
 5a0:	1e03fffe 	mcrne	15, 0, pc, cr3, cr14, {7}	; <UNPREDICTABLE>
 5a4:	6a21dd20 	bvs	0x877a2c
 5a8:	f8d46960 			; <UNDEFINED> instruction: 0xf8d46960
 5ac:	6a62c02c 	bvs	0x18b0664
 5b0:	18ce4430 	stmiane	lr, {r4, r5, sl, lr}^
 5b4:	6aa54629 	bvs	0xfe951e60
 5b8:	61604462 	cmnvs	r0, r2, ror #8
 5bc:	050ceba5 	streq	lr, [ip, #-2981]	; 0xfffff45b
 5c0:	622668a0 	eorvs	r6, r6, #160, 16	; 0xa00000
 5c4:	f7ff9500 			; <UNDEFINED> instruction: 0xf7ff9500
 5c8:	2800fffe 	stmdacs	r0, {r1, r2, r3, r4, r5, r6, r7, r8, r9, sl, fp, ip, sp, lr, pc}
 5cc:	e9d4db21 	ldmib	r4, {r0, r5, r8, r9, fp, ip, lr, pc}^
 5d0:	6ae35604 	bvs	0xff8d5de8
 5d4:	440342ae 	strmi	r4, [r3], #-686	; 0xfffffd52
 5d8:	d1bc62e3 			; <UNDEFINED> instruction: 0xd1bc62e3
 5dc:	b0079804 	andlt	r9, r7, r4, lsl #16
 5e0:	4ff0e8bd 	svcmi	0x00f0e8bd
 5e4:	bffef7ff 	svclt	0x00fef7ff
 5e8:	24f14813 	ldrbtcs	r4, [r1], #2067	; 0x813
 5ec:	4a139d05 	bmi	0x4e7a08
 5f0:	447a4913 	ldrbtmi	r4, [sl], #-2323	; 0xfffff6ed
 5f4:	58284b13 	stmdapl	r8!, {r0, r1, r4, r8, r9, fp, lr}
 5f8:	92024479 	andls	r4, r2, #2030043136	; 0x79000000
 5fc:	4a12447b 	bmi	0x4917f0
 600:	e9cd447a 	stmib	sp, {r1, r3, r4, r5, r6, sl, lr}^
 604:	21014100 	mrscs	r4, (UNDEF: 17)
 608:	f7ff6800 			; <UNDEFINED> instruction: 0xf7ff6800
 60c:	f7fffffe 			; <UNDEFINED> instruction: 0xf7fffffe
 610:	4809fffe 	stmdami	r9, {r1, r2, r3, r4, r5, r6, r7, r8, r9, sl, fp, ip, sp, lr, pc}
 614:	9d05246d 	cfstrsls	mvf2, [r5, #-436]	; 0xfffffe4c
 618:	490d4a0c 	stmdbmi	sp, {r2, r3, r9, fp, lr}
 61c:	4b0d447a 	blmi	0x35180c
 620:	44795828 	ldrbtmi	r5, [r9], #-2088	; 0xfffff7d8
 624:	447b9202 	ldrbtmi	r9, [fp], #-514	; 0xfffffdfe
 628:	447a4a0b 	ldrbtmi	r4, [sl], #-2571	; 0xfffff5f5
 62c:	f7ffe7e9 			; <UNDEFINED> instruction: 0xf7ffe7e9
 630:	bf00fd4d 	svclt	0x0000fd4d
 634:	0000010e 	andeq	r0, r0, lr, lsl #2
 638:	00000000 	andeq	r0, r0, r0
 63c:	00000046 	andeq	r0, r0, r6, asr #32
 640:	00000044 	andeq	r0, r0, r4, asr #32
 644:	00000044 	andeq	r0, r0, r4, asr #32
 648:	00000044 	andeq	r0, r0, r4, asr #32
 64c:	0000002c 	andeq	r0, r0, ip, lsr #32
 650:	0000002a 	andeq	r0, r0, sl, lsr #32
 654:	0000002a 	andeq	r0, r0, sl, lsr #32
 658:	0000002a 	andeq	r0, r0, sl, lsr #32
 65c:	4604b570 			; <UNDEFINED> instruction: 0x4604b570
 660:	b08268c6 	addlt	r6, r2, r6, asr #17
 664:	fcccf7ff 	stc2l	7, cr15, [ip], {255}	; 0xff
 668:	f7ff9001 			; <UNDEFINED> instruction: 0xf7ff9001
 66c:	6b61fffe 	blvs	0x188066c
 670:	f7ff4605 			; <UNDEFINED> instruction: 0xf7ff4605
 674:	9a01fffe 	bls	0x80674
 678:	46284631 			; <UNDEFINED> instruction: 0x46284631
 67c:	fffef7ff 			; <UNDEFINED> instruction: 0xfffef7ff
 680:	46296860 	strtmi	r6, [r9], -r0, ror #16
 684:	fffef7ff 			; <UNDEFINED> instruction: 0xfffef7ff
 688:	46319a01 	ldrtmi	r9, [r1], -r1, lsl #20
 68c:	f7ff68a0 			; <UNDEFINED> instruction: 0xf7ff68a0
 690:	6b21fffe 	blvs	0x880690
 694:	12b1f647 	adcsne	pc, r1, #74448896	; 0x4700000
 698:	6237f6c9 	eorsvs	pc, r7, #210763776	; 0xc900000
 69c:	2377f64c 	cmncs	r7, #76, 12	; 0x4c00000	; <UNPREDICTABLE>
 6a0:	53ebf2c8 	mvnpl	pc, #200, 4	; 0x8000000c
 6a4:	fb024620 	blx	0x91f2e
 6a8:	ea4f3301 	b	0x13cd2b4
 6ac:	632343f3 			; <UNDEFINED> instruction: 0x632343f3
 6b0:	d507069b 	strle	r0, [r7, #-1691]	; 0xfffff965
 6b4:	fddaf7ff 	ldc2l	7, cr15, [sl, #1020]	; 0x3fc
 6b8:	b0024628 	andlt	r4, r2, r8, lsr #12
 6bc:	4070e8bd 	ldrhtmi	lr, [r0], #-141	; 0xffffff73
 6c0:	bffef7ff 	svclt	0x00fef7ff
 6c4:	ff26f7ff 			; <UNDEFINED> instruction: 0xff26f7ff
 6c8:	b0024628 	andlt	r4, r2, r8, lsr #12
 6cc:	4070e8bd 	ldrhtmi	lr, [r0], #-141	; 0xffffff73
 6d0:	bffef7ff 	svclt	0x00fef7ff
 6d4:	43f0e92d 	mvnsmi	lr, #737280	; 0xb4000
 6d8:	6b004604 	blvs	0x11ef0
 6dc:	17b1f647 	ldrne	pc, [r1, r7, asr #12]!
 6e0:	6737f6c9 	ldrvs	pc, [r7, -r9, asr #13]!
 6e4:	2577f64c 	ldrbcs	pc, [r7, #-1612]!	; 0xfffff9b4	; <UNPREDICTABLE>
 6e8:	55ebf2c8 	strbpl	pc, [fp, #712]!	; 0x2c8	; <UNPREDICTABLE>
 6ec:	9103e9d4 	ldrdls	lr, [r3, -r4]
 6f0:	fb07b085 	blx	0x1ec90e
 6f4:	f8df5000 			; <UNDEFINED> instruction: 0xf8df5000
 6f8:	f5b180bc 			; <UNDEFINED> instruction: 0xf5b180bc
 6fc:	bf283f8c 	svclt	0x00283f8c
 700:	318cf44f 	orrcc	pc, ip, pc, asr #8
 704:	ea4f44f8 	b	0x13d1aec
 708:	310140f0 	strdcc	r4, [r1, -r0]
 70c:	09406320 	stmdbeq	r0, {r5, r8, r9, sp, lr}^
 710:	fffef7ff 			; <UNDEFINED> instruction: 0xfffef7ff
 714:	2b006963 	blcs	0x1aca8
 718:	6ae3d13d 	bvs	0xff8f4c14
 71c:	460ebb33 			; <UNDEFINED> instruction: 0x460ebb33
 720:	6a60460a 	bvs	0x1811f50
 724:	f7ff4649 			; <UNDEFINED> instruction: 0xf7ff4649
 728:	6963fffe 	stmdbvs	r3!, {r1, r2, r3, r4, r5, r6, r7, r8, r9, sl, fp, ip, sp, lr, pc}^
 72c:	46494632 			; <UNDEFINED> instruction: 0x46494632
 730:	61634433 	cmnvs	r3, r3, lsr r4
 734:	68206ae3 	stmdavs	r0!, {r0, r1, r5, r6, r7, r9, fp, sp, lr}
 738:	62e34433 	rscvs	r4, r3, #855638016	; 0x33000000
 73c:	fffef7ff 			; <UNDEFINED> instruction: 0xfffef7ff
 740:	463268a0 	ldrtmi	r6, [r2], -r0, lsr #17
 744:	f7ff4649 			; <UNDEFINED> instruction: 0xf7ff4649
 748:	6b23fffe 	blvs	0x900748
 74c:	fb074620 	blx	0x1d1fd6
 750:	ea4f5503 	b	0x13d5b64
 754:	632545f5 			; <UNDEFINED> instruction: 0x632545f5
 758:	d50306ab 	strle	r0, [r3, #-1707]	; 0xfffff955
 75c:	e8bdb005 	pop	{r0, r2, ip, sp, pc}
 760:	e61143f0 			; <UNDEFINED> instruction: 0xe61143f0
 764:	e8bdb005 	pop	{r0, r2, ip, sp, pc}
 768:	e4d543f0 	ldrb	r4, [r5], #1008	; 0x3f0
 76c:	24844812 	strcs	r4, [r4], #2066	; 0x812
 770:	49134a12 	ldmdbmi	r3, {r1, r4, r9, fp, lr}
 774:	4b13447a 	blmi	0x4d1964
 778:	0000f858 	andeq	pc, r0, r8, asr r8	; <UNPREDICTABLE>
 77c:	92024479 	andls	r4, r2, #2030043136	; 0x79000000
 780:	4a11447b 	bmi	0x451974
 784:	e9cd447a 	stmib	sp, {r1, r3, r4, r5, r6, sl, lr}^
 788:	21014100 	mrscs	r4, (UNDEF: 17)
 78c:	f7ff6800 			; <UNDEFINED> instruction: 0xf7ff6800
 790:	f7fffffe 			; <UNDEFINED> instruction: 0xf7fffffe
 794:	4808fffe 	stmdami	r8, {r1, r2, r3, r4, r5, r6, r7, r8, r9, sl, fp, ip, sp, lr, pc}
 798:	4a0c2483 	bmi	0x3099ac
 79c:	447a490c 	ldrbtmi	r4, [sl], #-2316	; 0xfffff6f4
 7a0:	f8584b0c 			; <UNDEFINED> instruction: 0xf8584b0c
 7a4:	44790000 	ldrbtmi	r0, [r9], #-0
 7a8:	447b9202 	ldrbtmi	r9, [fp], #-514	; 0xfffffdfe
 7ac:	447a4a0a 	ldrbtmi	r4, [sl], #-2570	; 0xfffff5f6
 7b0:	bf00e7e9 	svclt	0x0000e7e9
 7b4:	000000ac 	andeq	r0, r0, ip, lsr #1
 7b8:	00000000 	andeq	r0, r0, r0
 7bc:	00000044 	andeq	r0, r0, r4, asr #32
 7c0:	00000040 	andeq	r0, r0, r0, asr #32
 7c4:	00000040 	andeq	r0, r0, r0, asr #32
 7c8:	00000040 	andeq	r0, r0, r0, asr #32
 7cc:	0000002a 	andeq	r0, r0, sl, lsr #32
 7d0:	00000026 	andeq	r0, r0, r6, lsr #32
 7d4:	00000026 	andeq	r0, r0, r6, lsr #32
 7d8:	00000026 	andeq	r0, r0, r6, lsr #32
 7dc:	43f0e92d 	mvnsmi	lr, #737280	; 0xb4000
 7e0:	6b004604 	blvs	0x11ff8
 7e4:	17b1f647 	ldrne	pc, [r1, r7, asr #12]!
 7e8:	6737f6c9 	ldrvs	pc, [r7, -r9, asr #13]!
 7ec:	2577f64c 	ldrbcs	pc, [r7, #-1612]!	; 0xfffff9b4	; <UNPREDICTABLE>
 7f0:	55ebf2c8 	strbpl	pc, [fp, #712]!	; 0x2c8	; <UNPREDICTABLE>
 7f4:	9103e9d4 	ldrdls	lr, [r3, -r4]
 7f8:	fb07b085 	blx	0x1eca16
 7fc:	f8df5000 			; <UNDEFINED> instruction: 0xf8df5000
 800:	f5b180bc 			; <UNDEFINED> instruction: 0xf5b180bc
 804:	bf283f8c 	svclt	0x00283f8c
 808:	318cf44f 	orrcc	pc, ip, pc, asr #8
 80c:	ea4f44f8 	b	0x13d1bf4
 810:	310140f0 	strdcc	r4, [r1, -r0]
 814:	09406320 	stmdbeq	r0, {r5, r8, r9, sp, lr}^
 818:	fffef7ff 			; <UNDEFINED> instruction: 0xfffef7ff
 81c:	2b006963 	blcs	0x1adb0
 820:	6ae3d13d 	bvs	0xff8f4d1c
 824:	460ebb33 			; <UNDEFINED> instruction: 0x460ebb33
 828:	6a60460a 	bvs	0x1812058
 82c:	f7ff4649 			; <UNDEFINED> instruction: 0xf7ff4649
 830:	6963fffe 	stmdbvs	r3!, {r1, r2, r3, r4, r5, r6, r7, r8, r9, sl, fp, ip, sp, lr, pc}^
 834:	46494632 			; <UNDEFINED> instruction: 0x46494632
 838:	61634433 	cmnvs	r3, r3, lsr r4
 83c:	68606ae3 	stmdavs	r0!, {r0, r1, r5, r6, r7, r9, fp, sp, lr}^
 840:	62e34433 	rscvs	r4, r3, #855638016	; 0x33000000
 844:	fffef7ff 			; <UNDEFINED> instruction: 0xfffef7ff
 848:	463268a0 	ldrtmi	r6, [r2], -r0, lsr #17
 84c:	f7ff4649 			; <UNDEFINED> instruction: 0xf7ff4649
 850:	6b23fffe 	blvs	0x900850
 854:	fb074620 	blx	0x1d20de
 858:	ea4f5503 	b	0x13d5c6c
 85c:	632545f5 			; <UNDEFINED> instruction: 0x632545f5
 860:	d50306ab 	strle	r0, [r3, #-1707]	; 0xfffff955
 864:	e8bdb005 	pop	{r0, r2, ip, sp, pc}
 868:	e4ff43f0 	ldrbt	r4, [pc], #1008	; 0x870
 86c:	e8bdb005 	pop	{r0, r2, ip, sp, pc}
 870:	e64f43f0 			; <UNDEFINED> instruction: 0xe64f43f0
 874:	24844812 	strcs	r4, [r4], #2066	; 0x812
 878:	49134a12 	ldmdbmi	r3, {r1, r4, r9, fp, lr}
 87c:	4b13447a 	blmi	0x4d1a6c
 880:	0000f858 	andeq	pc, r0, r8, asr r8	; <UNPREDICTABLE>
 884:	92024479 	andls	r4, r2, #2030043136	; 0x79000000
 888:	4a11447b 	bmi	0x451a7c
 88c:	e9cd447a 	stmib	sp, {r1, r3, r4, r5, r6, sl, lr}^
 890:	21014100 	mrscs	r4, (UNDEF: 17)
 894:	f7ff6800 			; <UNDEFINED> instruction: 0xf7ff6800
 898:	f7fffffe 			; <UNDEFINED> instruction: 0xf7fffffe
 89c:	4808fffe 	stmdami	r8, {r1, r2, r3, r4, r5, r6, r7, r8, r9, sl, fp, ip, sp, lr, pc}
 8a0:	4a0c2483 	bmi	0x309ab4
 8a4:	447a490c 	ldrbtmi	r4, [sl], #-2316	; 0xfffff6f4
 8a8:	f8584b0c 			; <UNDEFINED> instruction: 0xf8584b0c
 8ac:	44790000 	ldrbtmi	r0, [r9], #-0
 8b0:	447b9202 	ldrbtmi	r9, [fp], #-514	; 0xfffffdfe
 8b4:	447a4a0a 	ldrbtmi	r4, [sl], #-2570	; 0xfffff5f6
 8b8:	bf00e7e9 	svclt	0x0000e7e9
 8bc:	000000ac 	andeq	r0, r0, ip, lsr #1
 8c0:	00000000 	andeq	r0, r0, r0
 8c4:	00000044 	andeq	r0, r0, r4, asr #32
 8c8:	00000040 	andeq	r0, r0, r0, asr #32
 8cc:	00000040 	andeq	r0, r0, r0, asr #32
 8d0:	00000040 	andeq	r0, r0, r0, asr #32
 8d4:	0000002a 	andeq	r0, r0, sl, lsr #32
 8d8:	00000026 	andeq	r0, r0, r6, lsr #32
 8dc:	00000026 	andeq	r0, r0, r6, lsr #32
 8e0:	00000026 	andeq	r0, r0, r6, lsr #32
 8e4:	4604b538 			; <UNDEFINED> instruction: 0x4604b538
 8e8:	460d4608 	strmi	r4, [sp], -r8, lsl #12
 8ec:	fffef7ff 			; <UNDEFINED> instruction: 0xfffef7ff
 8f0:	2300b128 	movwcs	fp, #296	; 0x128
 8f4:	0500e9c4 	streq	lr, [r0, #-2500]	; 0xfffff63c
 8f8:	462060a3 	strtmi	r6, [r0], -r3, lsr #1
 8fc:	f7ffbd38 			; <UNDEFINED> instruction: 0xf7ffbd38
 900:	bf00fbe5 	svclt	0x0000fbe5
 904:	ab04b084 	blge	0x12cb1c
 908:	0007e903 	andeq	lr, r7, r3, lsl #18
 90c:	f7ffb004 			; <UNDEFINED> instruction: 0xf7ffb004
 910:	bf00bffe 	svclt	0x0000bffe
 914:	4ff0e92d 	svcmi	0x00f0e92d
 918:	4b2d4699 	blmi	0xb52384
 91c:	4604b087 	strmi	fp, [r4], -r7, lsl #1
 920:	447b4610 	ldrbtmi	r4, [fp], #-1552	; 0xfffff9f0
 924:	468a4616 	pkhbtmi	r4, sl, r6, lsl #12
 928:	f7ff9305 			; <UNDEFINED> instruction: 0xf7ff9305
 92c:	f500fffe 			; <UNDEFINED> instruction: 0xf500fffe
 930:	00457000 	subeq	r7, r5, r0
 934:	f7ff4628 			; <UNDEFINED> instruction: 0xf7ff4628
 938:	b320fffe 	msrlt	CPSR_, #1016	; 0x3f8
 93c:	46304607 	ldrtmi	r4, [r0], -r7, lsl #12
 940:	fffef7ff 			; <UNDEFINED> instruction: 0xfffef7ff
 944:	b1f04680 	mvnslt	r4, r0, lsl #13
 948:	fffef7ff 			; <UNDEFINED> instruction: 0xfffef7ff
 94c:	d0312800 	eorsle	r2, r1, r0, lsl #16
 950:	f7ff9004 			; <UNDEFINED> instruction: 0xf7ff9004
 954:	4683fffe 			; <UNDEFINED> instruction: 0x4683fffe
 958:	fffef7ff 			; <UNDEFINED> instruction: 0xfffef7ff
 95c:	b1a09b04 	lsllt	r9, r4, #22
 960:	3b00e9c4 	blcc	0x3b078
 964:	e9c42300 	stmib	r4, {r8, r9, sp}^
 968:	46200a02 	strtmi	r0, [r0], -r2, lsl #20
 96c:	612661a7 			; <UNDEFINED> instruction: 0x612661a7
 970:	e9c461e5 	stmib	r4, {r0, r2, r5, r6, r7, r8, sp, lr}^
 974:	f8c48609 			; <UNDEFINED> instruction: 0xf8c48609
 978:	61639030 	cmnvs	r3, r0, lsr r0
 97c:	62e36223 	rscvs	r6, r3, #805306370	; 0x30000002
 980:	e8bdb007 	pop	{r0, r1, r2, ip, sp, pc}
 984:	f7ff8ff0 			; <UNDEFINED> instruction: 0xf7ff8ff0
 988:	4812fba1 	ldmdami	r2, {r0, r5, r7, r8, r9, fp, ip, sp, lr, pc}
 98c:	9d05244d 	cfstrsls	mvf2, [r5, #-308]	; 0xfffffecc
 990:	49124a11 	ldmdbmi	r2, {r0, r4, r9, fp, lr}
 994:	4b12447a 	blmi	0x491b84
 998:	44795828 	ldrbtmi	r5, [r9], #-2088	; 0xfffff7d8
 99c:	447b9202 	ldrbtmi	r9, [fp], #-514	; 0xfffffdfe
 9a0:	447a4a10 	ldrbtmi	r4, [sl], #-2576	; 0xfffff5f0
 9a4:	4100e9cd 	smlabtmi	r0, sp, r9, lr
 9a8:	68002101 	stmdavs	r0, {r0, r8, sp}
 9ac:	fffef7ff 			; <UNDEFINED> instruction: 0xfffef7ff
 9b0:	fffef7ff 			; <UNDEFINED> instruction: 0xfffef7ff
 9b4:	24494807 	strbcs	r4, [r9], #-2055	; 0xfffff7f9
 9b8:	4a0b9d05 	bmi	0x2e7dd4
 9bc:	447a490b 	ldrbtmi	r4, [sl], #-2315	; 0xfffff6f5
 9c0:	58284b0b 	stmdapl	r8!, {r0, r1, r3, r8, r9, fp, lr}
 9c4:	92024479 	andls	r4, r2, #2030043136	; 0x79000000
 9c8:	4a0a447b 	bmi	0x291bbc
 9cc:	e7e9447a 			; <UNDEFINED> instruction: 0xe7e9447a
 9d0:	000000aa 	andeq	r0, r0, sl, lsr #1
 9d4:	00000000 	andeq	r0, r0, r0
 9d8:	00000040 	andeq	r0, r0, r0, asr #32
 9dc:	0000003e 	andeq	r0, r0, lr, lsr r0
 9e0:	0000003e 	andeq	r0, r0, lr, lsr r0
 9e4:	0000003e 	andeq	r0, r0, lr, lsr r0
 9e8:	00000026 	andeq	r0, r0, r6, lsr #32
 9ec:	00000024 	andeq	r0, r0, r4, lsr #32
 9f0:	00000024 	andeq	r0, r0, r4, lsr #32
 9f4:	00000024 	andeq	r0, r0, r4, lsr #32
 9f8:	b508b084 	strlt	fp, [r8, #-132]	; 0xffffff7c
 9fc:	0c08f10d 	stfeqd	f7, [r8], {13}
 a00:	000fe88c 	andeq	lr, pc, ip, lsl #17
 a04:	f7ff9808 			; <UNDEFINED> instruction: 0xf7ff9808
 a08:	980bfffe 	stmdals	fp, {r1, r2, r3, r4, r5, r6, r7, r8, r9, sl, fp, ip, sp, lr, pc}
 a0c:	fffef7ff 			; <UNDEFINED> instruction: 0xfffef7ff
 a10:	f7ff9802 			; <UNDEFINED> instruction: 0xf7ff9802
 a14:	9803fffe 	stmdals	r3, {r1, r2, r3, r4, r5, r6, r7, r8, r9, sl, fp, ip, sp, lr, pc}
 a18:	fffef7ff 			; <UNDEFINED> instruction: 0xfffef7ff
 a1c:	e8bd9804 	pop	{r2, fp, ip, pc}
 a20:	b0044008 	andlt	r4, r4, r8
 a24:	bffef7ff 	svclt	0x00fef7ff
 a28:	4954460a 	ldmdbmi	r4, {r1, r3, r9, sl, lr}^
 a2c:	2a044b54 	bcs	0x113784
 a30:	e92d4479 	push	{r0, r3, r4, r5, r6, sl, lr}
 a34:	f64c4ff0 			; <UNDEFINED> instruction: 0xf64c4ff0
 a38:	f2c82777 	vqshl.s8	q9, <illegal reg q11.5>, #0
 a3c:	b09757eb 	addslt	r5, r7, fp, ror #15
 a40:	461158cb 	ldrmi	r5, [r1], -fp, asr #17
 a44:	2104bf28 	tstcs	r4, r8, lsr #30
 a48:	091cf10d 	ldmdbeq	ip, {r0, r2, r3, r8, ip, sp, lr, pc}
 a4c:	9315681b 	tstls	r5, #1769472	; 0x1b0000
 a50:	0300f04f 	movweq	pc, #79	; 0x4f	; <UNPREDICTABLE>
 a54:	1a544b4b 	bne	0x1513788
 a58:	22001846 	andcs	r1, r0, #4587520	; 0x460000
 a5c:	9305447b 	movwls	r4, #21627	; 0x547b
 a60:	fffef7ff 			; <UNDEFINED> instruction: 0xfffef7ff
 a64:	46054631 			; <UNDEFINED> instruction: 0x46054631
 a68:	46224603 	strtmi	r4, [r2], -r3, lsl #12
 a6c:	26004648 	strcs	r4, [r0], -r8, asr #12
 a70:	fffef7ff 			; <UNDEFINED> instruction: 0xfffef7ff
 a74:	13b1f647 			; <UNDEFINED> instruction: 0x13b1f647
 a78:	6337f6c9 	teqvs	r7, #210763776	; 0xc900000	; <UNPREDICTABLE>
 a7c:	32a3f648 	adccc	pc, r3, #72, 12	; 0x4800000
 a80:	222ef6cb 	eorcs	pc, lr, #212860928	; 0xcb00000
 a84:	7005fb03 	andvc	pc, r5, r3, lsl #22
 a88:	4d3f230b 	ldcmi	3, cr2, [pc, #-44]!	; 0xa64
 a8c:	47f0ea4f 	ldrbmi	lr, [r0, pc, asr #20]!
 a90:	f105447d 			; <UNDEFINED> instruction: 0xf105447d
 a94:	ea4f0a20 	b	0x13c331c
 a98:	fba21857 	blx	0xfe886bfe
 a9c:	08d21208 	ldmeq	r2, {r3, r9, ip}^
 aa0:	8812fb03 	ldmdahi	r2, {r0, r1, r8, r9, fp, ip, sp, lr, pc}
 aa4:	0802f108 	stmdaeq	r2, {r3, r8, ip, sp, lr, pc}
 aa8:	f8cd9807 			; <UNDEFINED> instruction: 0xf8cd9807
 aac:	f7ff8050 			; <UNDEFINED> instruction: 0xf7ff8050
 ab0:	9914fffe 	ldmdbls	r4, {r1, r2, r3, r4, r5, r6, r7, r8, r9, sl, fp, ip, sp, lr, pc}
 ab4:	f7ff9808 			; <UNDEFINED> instruction: 0xf7ff9808
 ab8:	2200fffe 	andcs	pc, r0, #1016	; 0x3f8
 abc:	98094611 	stmdals	r9, {r0, r4, r9, sl, lr}
 ac0:	fffef7ff 			; <UNDEFINED> instruction: 0xfffef7ff
 ac4:	3b04f855 	blcc	0x13ec20
 ac8:	960c4648 	strls	r4, [ip], -r8, asr #12
 acc:	e9cd960f 	stmib	sp, {r0, r1, r2, r3, r9, sl, ip, pc}^
 ad0:	47986712 			; <UNDEFINED> instruction: 0x47986712
 ad4:	9b129a0b 	blls	0x4a7308
 ad8:	429a980a 	addsmi	r9, sl, #655360	; 0xa0000
 adc:	f8ddd129 			; <UNDEFINED> instruction: 0xf8ddd129
 ae0:	4659b040 	ldrbmi	fp, [r9], -r0, asr #32
 ae4:	fffef7ff 			; <UNDEFINED> instruction: 0xfffef7ff
 ae8:	28004604 	stmdacs	r0, {r2, r9, sl, lr}
 aec:	45aad136 	strmi	sp, [sl, #310]!	; 0x136
 af0:	e9ddd1da 	ldmib	sp, {r1, r3, r4, r6, r7, r8, ip, lr, pc}^
 af4:	980d7607 	stmdals	sp, {r0, r1, r2, r9, sl, ip, sp, lr}
 af8:	f7ff9d09 			; <UNDEFINED> instruction: 0xf7ff9d09
 afc:	4658fffe 	usub8mi	pc, r8, lr	; <UNPREDICTABLE>
 b00:	fffef7ff 			; <UNDEFINED> instruction: 0xfffef7ff
 b04:	f7ff4638 			; <UNDEFINED> instruction: 0xf7ff4638
 b08:	4630fffe 	shsub8mi	pc, r0, lr	; <UNPREDICTABLE>
 b0c:	fffef7ff 			; <UNDEFINED> instruction: 0xfffef7ff
 b10:	f7ff4628 			; <UNDEFINED> instruction: 0xf7ff4628
 b14:	4a1dfffe 	bmi	0x780b14
 b18:	447a4b19 	ldrbtmi	r4, [sl], #-2841	; 0xfffff4e7
 b1c:	681a58d3 	ldmdavs	sl, {r0, r1, r4, r6, r7, fp, ip, lr}
 b20:	405a9b15 	subsmi	r9, sl, r5, lsl fp
 b24:	0300f04f 	movweq	pc, #79	; 0x4f	; <UNPREDICTABLE>
 b28:	4620d126 	strtmi	sp, [r0], -r6, lsr #2
 b2c:	e8bdb017 	pop	{r0, r1, r2, r4, ip, sp, pc}
 b30:	48178ff0 	ldmdami	r7, {r4, r5, r6, r7, r8, r9, sl, fp, pc}
 b34:	9d052475 	cfstrsls	mvf2, [r5, #-468]	; 0xfffffe2c
 b38:	49174a16 	ldmdbmi	r7, {r1, r2, r4, r9, fp, lr}
 b3c:	4b17447a 	blmi	0x5d1d2c
 b40:	44795828 	ldrbtmi	r5, [r9], #-2088	; 0xfffff7d8
 b44:	447b9202 	ldrbtmi	r9, [fp], #-514	; 0xfffffdfe
 b48:	447a4a15 	ldrbtmi	r4, [sl], #-2581	; 0xfffff5eb
 b4c:	4100e9cd 	smlabtmi	r0, sp, r9, lr
 b50:	68002101 	stmdavs	r0, {r0, r8, sp}
 b54:	fffef7ff 			; <UNDEFINED> instruction: 0xfffef7ff
 b58:	fffef7ff 			; <UNDEFINED> instruction: 0xfffef7ff
 b5c:	2476480c 	ldrbtcs	r4, [r6], #-2060	; 0xfffff7f4
 b60:	4a109d05 	bmi	0x427f7c
 b64:	447a4910 	ldrbtmi	r4, [sl], #-2320	; 0xfffff6f0
 b68:	58284b10 	stmdapl	r8!, {r4, r8, r9, fp, lr}
 b6c:	92024479 	andls	r4, r2, #2030043136	; 0x79000000
 b70:	4a0f447b 	bmi	0x3d1d64
 b74:	e7e9447a 			; <UNDEFINED> instruction: 0xe7e9447a
 b78:	fffef7ff 			; <UNDEFINED> instruction: 0xfffef7ff
 b7c:	00000148 	andeq	r0, r0, r8, asr #2
 b80:	00000000 	andeq	r0, r0, r0
 b84:	00000124 	andeq	r0, r0, r4, lsr #2
 b88:	000000f4 	strdeq	r0, [r0], -r4
 b8c:	0000006e 	andeq	r0, r0, lr, rrx
 b90:	00000000 	andeq	r0, r0, r0
 b94:	00000054 	andeq	r0, r0, r4, asr r0
 b98:	00000052 	andeq	r0, r0, r2, asr r0
 b9c:	00000052 	andeq	r0, r0, r2, asr r0
 ba0:	00000052 	andeq	r0, r0, r2, asr r0
 ba4:	0000003a 	andeq	r0, r0, sl, lsr r0
 ba8:	00000038 	andeq	r0, r0, r8, lsr r0
 bac:	00000038 	andeq	r0, r0, r8, lsr r0
 bb0:	00000038 	andeq	r0, r0, r8, lsr r0
