
/root/projects/compiled/non_crypto/stripped/lz4_lz4.git_round_trip_frame_fuzzer_4a1615c1_stripped.o:     file format elf32-littlearm


Disassembly of section .text:

00000000 <.text>:
   0:	4b584a57 	blmi	0x1612964
   4:	e92d447a 	push	{r1, r3, r4, r5, r6, sl, lr}
   8:	46804ff0 			; <UNDEFINED> instruction: 0x46804ff0
   c:	f8dfb095 			; <UNDEFINED> instruction: 0xf8dfb095
  10:	58d39158 	ldmpl	r3, {r3, r4, r6, r8, ip, pc}^
  14:	0b10f10d 	bleq	0x43c450
  18:	681b44f9 	ldmdavs	fp, {r0, r3, r4, r5, r6, r7, sl, lr}
  1c:	f04f9313 			; <UNDEFINED> instruction: 0xf04f9313
  20:	f7ff0300 			; <UNDEFINED> instruction: 0xf7ff0300
  24:	4604fffe 			; <UNDEFINED> instruction: 0x4604fffe
  28:	46214658 			; <UNDEFINED> instruction: 0x46214658
  2c:	fffef7ff 			; <UNDEFINED> instruction: 0xfffef7ff
  30:	f7ff4620 			; <UNDEFINED> instruction: 0xf7ff4620
  34:	4607fffe 			; <UNDEFINED> instruction: 0x4607fffe
  38:	fffef7ff 			; <UNDEFINED> instruction: 0xfffef7ff
  3c:	f7ff4659 			; <UNDEFINED> instruction: 0xf7ff4659
  40:	4682fffe 			; <UNDEFINED> instruction: 0x4682fffe
  44:	fffef7ff 			; <UNDEFINED> instruction: 0xfffef7ff
  48:	46204605 	strtmi	r4, [r0], -r5, lsl #12
  4c:	fffef7ff 			; <UNDEFINED> instruction: 0xfffef7ff
  50:	fffef7ff 			; <UNDEFINED> instruction: 0xfffef7ff
  54:	4606b3ad 	strmi	fp, [r6], -sp, lsr #7
  58:	d0732800 	rsbsle	r2, r3, r0, lsl #16
  5c:	463b4651 			; <UNDEFINED> instruction: 0x463b4651
  60:	46284642 	strtmi	r4, [r8], -r2, asr #12
  64:	b000f8cd 	andlt	pc, r0, sp, asr #17
  68:	fffef7ff 			; <UNDEFINED> instruction: 0xfffef7ff
  6c:	f7ff4682 			; <UNDEFINED> instruction: 0xf7ff4682
  70:	2800fffe 	stmdacs	r0, {r1, r2, r3, r4, r5, r6, r7, r8, r9, sl, fp, ip, sp, lr, pc}
  74:	4653d158 			; <UNDEFINED> instruction: 0x4653d158
  78:	4639462a 	ldrtmi	r4, [r9], -sl, lsr #12
  7c:	f7ff4630 			; <UNDEFINED> instruction: 0xf7ff4630
  80:	4287fffe 	addmi	pc, r7, #1016	; 0x3f8
  84:	463ad142 	ldrtmi	sp, [sl], -r2, asr #2
  88:	46314640 	ldrtmi	r4, [r1], -r0, asr #12
  8c:	fffef7ff 			; <UNDEFINED> instruction: 0xfffef7ff
  90:	bb684607 	bllt	0x1a118b4
  94:	f7ff4628 			; <UNDEFINED> instruction: 0xf7ff4628
  98:	4630fffe 	shsub8mi	pc, r0, lr	; <UNPREDICTABLE>
  9c:	fffef7ff 			; <UNDEFINED> instruction: 0xfffef7ff
  a0:	f7ff4620 			; <UNDEFINED> instruction: 0xf7ff4620
  a4:	4a31fffe 	bmi	0xc800a4
  a8:	447a4b2e 	ldrbtmi	r4, [sl], #-2862	; 0xfffff4d2
  ac:	681a58d3 	ldmdavs	sl, {r0, r1, r4, r6, r7, fp, ip, lr}
  b0:	405a9b13 	subsmi	r9, sl, r3, lsl fp
  b4:	0300f04f 	movweq	pc, #79	; 0x4f	; <UNPREDICTABLE>
  b8:	4638d118 			; <UNDEFINED> instruction: 0x4638d118
  bc:	e8bdb015 	pop	{r0, r2, r4, ip, sp, pc}
  c0:	482b8ff0 	stmdami	fp!, {r4, r5, r6, r7, r8, r9, sl, fp, pc}
  c4:	4a2b241b 	bmi	0xac9138
  c8:	447a492b 	ldrbtmi	r4, [sl], #-2347	; 0xfffff6d5
  cc:	f8594b2b 			; <UNDEFINED> instruction: 0xf8594b2b
  d0:	44790000 	ldrbtmi	r0, [r9], #-0
  d4:	447b9202 	ldrbtmi	r9, [fp], #-514	; 0xfffffdfe
  d8:	447a4a29 	ldrbtmi	r4, [sl], #-2601	; 0xfffff5d7
  dc:	4100e9cd 	smlabtmi	r0, sp, r9, lr
  e0:	68002101 	stmdavs	r0, {r0, r8, sp}
  e4:	fffef7ff 			; <UNDEFINED> instruction: 0xfffef7ff
  e8:	fffef7ff 			; <UNDEFINED> instruction: 0xfffef7ff
  ec:	fffef7ff 			; <UNDEFINED> instruction: 0xfffef7ff
  f0:	2424481f 	strtcs	r4, [r4], #-2079	; 0xfffff7e1
  f4:	49244a23 	stmdbmi	r4!, {r0, r1, r5, r9, fp, lr}
  f8:	4b24447a 	blmi	0x9112e8
  fc:	0000f859 	andeq	pc, r0, r9, asr r8	; <UNPREDICTABLE>
 100:	92024479 	andls	r4, r2, #2030043136	; 0x79000000
 104:	4a22447b 	bmi	0x8912f8
 108:	e7e7447a 			; <UNDEFINED> instruction: 0xe7e7447a
 10c:	24234818 	strtcs	r4, [r3], #-2072	; 0xfffff7e8
 110:	49214a20 	stmdbmi	r1!, {r5, r9, fp, lr}
 114:	4b21447a 	blmi	0x851304
 118:	0000f859 	andeq	pc, r0, r9, asr r8	; <UNPREDICTABLE>
 11c:	92024479 	andls	r4, r2, #2030043136	; 0x79000000
 120:	4a1f447b 	bmi	0x7d1314
 124:	e7d9447a 			; <UNDEFINED> instruction: 0xe7d9447a
 128:	24214811 	strtcs	r4, [r1], #-2065	; 0xfffff7ef
 12c:	491e4a1d 	ldmdbmi	lr, {r0, r2, r3, r4, r9, fp, lr}
 130:	4b1e447a 	blmi	0x791320
 134:	0000f859 	andeq	pc, r0, r9, asr r8	; <UNPREDICTABLE>
 138:	92024479 	andls	r4, r2, #2030043136	; 0x79000000
 13c:	4a1c447b 	bmi	0x711330
 140:	e7cb447a 			; <UNDEFINED> instruction: 0xe7cb447a
 144:	241c480a 	ldrcs	r4, [ip], #-2058	; 0xfffff7f6
 148:	491b4a1a 	ldmdbmi	fp, {r1, r3, r4, r9, fp, lr}
 14c:	4b1b447a 	blmi	0x6d133c
 150:	0000f859 	andeq	pc, r0, r9, asr r8	; <UNPREDICTABLE>
 154:	92024479 	andls	r4, r2, #2030043136	; 0x79000000
 158:	4a19447b 	bmi	0x65134c
 15c:	e7bd447a 			; <UNDEFINED> instruction: 0xe7bd447a
 160:	00000158 	andeq	r0, r0, r8, asr r1
 164:	00000000 	andeq	r0, r0, r0
 168:	0000014c 	andeq	r0, r0, ip, asr #2
 16c:	000000be 	strheq	r0, [r0], -lr
 170:	00000000 	andeq	r0, r0, r0
 174:	000000a6 	andeq	r0, r0, r6, lsr #1
 178:	000000a2 	andeq	r0, r0, r2, lsr #1
 17c:	000000a2 	andeq	r0, r0, r2, lsr #1
 180:	000000a2 	andeq	r0, r0, r2, lsr #1
 184:	00000088 	andeq	r0, r0, r8, lsl #1
 188:	00000084 	andeq	r0, r0, r4, lsl #1
 18c:	00000084 	andeq	r0, r0, r4, lsl #1
 190:	00000084 	andeq	r0, r0, r4, lsl #1
 194:	0000007c 	andeq	r0, r0, ip, ror r0
 198:	00000078 	andeq	r0, r0, r8, ror r0
 19c:	00000078 	andeq	r0, r0, r8, ror r0
 1a0:	00000078 	andeq	r0, r0, r8, ror r0
 1a4:	00000070 	andeq	r0, r0, r0, ror r0
 1a8:	0000006c 	andeq	r0, r0, ip, rrx
 1ac:	0000006c 	andeq	r0, r0, ip, rrx
 1b0:	0000006c 	andeq	r0, r0, ip, rrx
 1b4:	00000064 	andeq	r0, r0, r4, rrx
 1b8:	00000060 	andeq	r0, r0, r0, rrx
 1bc:	00000060 	andeq	r0, r0, r0, rrx
 1c0:	00000060 	andeq	r0, r0, r0, rrx
