
/root/projects/compiled/non_crypto/stripped/lz4_lz4.git_fuzzer_517e2e9b_stripped.o:     file format elf32-littlearm


Disassembly of section .text:

00000000 <.text>:
       0:	7b87ed9f 	blvc	0xfe1fb684
       4:	e92d1e43 	push	{r0, r1, r6, r9, sl, fp, ip}
       8:	468b4ff0 			; <UNDEFINED> instruction: 0x468b4ff0
       c:	15b1f647 	ldrne	pc, [r1, #1607]!	; 0x647
      10:	6537f6c9 	ldrvs	pc, [r7, #-1737]!	; 0xfffff937
      14:	0b07ee20 	bleq	0x1fb89c
      18:	f64cb087 			; <UNDEFINED> instruction: 0xf64cb087
      1c:	f2c82477 			; <UNDEFINED> instruction: 0xf2c82477
      20:	461954eb 	ldrmi	r5, [r9], -fp, ror #9
      24:	0613f100 	ldreq	pc, [r3], -r0, lsl #2
      28:	7bc0eefc 	blvc	0xff03bc20
      2c:	edcd9305 	stcl	3, cr9, [sp, #20]
      30:	68137a01 	ldmdavs	r3, {r0, r9, fp, ip, sp, lr}
      34:	f303fb05 	vqrdmulh.s<illegal width 8>	d15, d3, d5
      38:	ea4f4063 	b	0x13d01cc
      3c:	601343f3 			; <UNDEFINED> instruction: 0x601343f3
      40:	3f01f801 	svccc	0x0001f801
      44:	d1f4428e 	mvnsle	r4, lr, lsl #5
      48:	14b1f647 	ldrtne	pc, [r1], #1607	; 0x647	; <UNPREDICTABLE>
      4c:	6437f6c9 	ldrtvs	pc, [r7], #-1737	; 0xfffff937	; <UNPREDICTABLE>
      50:	2e77f64c 	cdpcs	6, 7, cr15, cr7, cr12, {2}
      54:	5eebf2c8 	cdppl	2, 14, cr15, cr11, cr8, {6}
      58:	f2482114 	vand	d18, d8, d4
      5c:	f2c80381 	vsubw.s8	q8, q12, d1
      60:	93030380 	movwls	r0, #13184	; 0x3380
      64:	0389f648 	orreq	pc, r9, #72, 12	; 0x4800000
      68:	0388f6c8 	orreq	pc, r8, #200, 12	; 0xc800000
      6c:	68139304 	ldmdavs	r3, {r2, r8, r9, ip, pc}
      70:	fb049f01 	blx	0x127c7e
      74:	ea83f303 	b	0xfe0fcc88
      78:	ea4f030e 	b	0x13c0cb8
      7c:	f3c343f3 	vrsra.u64	q10, <illegal reg q9.5>, #61
      80:	fb0405ce 	blx	0x1017c2
      84:	42bdf603 	adcsmi	pc, sp, #3145728	; 0x300000
      88:	060eea86 	streq	lr, [lr], -r6, lsl #21
      8c:	43f6ea4f 	mvnsmi	lr, #323584	; 0x4f000
      90:	6681f3c6 	strvs	pc, [r1], r6, asr #7
      94:	f303fb04 	vqrdmulh.s<illegal width 8>	d15, d3, d4
      98:	030eea83 	movweq	lr, #60035	; 0xea83
      9c:	43f3ea4f 	mvnsmi	lr, #323584	; 0x4f000
      a0:	2e00d267 	cdpcs	2, 0, cr13, cr0, cr7, {3}
      a4:	809df000 	addshi	pc, sp, r0
      a8:	fba59d04 	blx	0xfe9674c2
      ac:	08ed6503 	stmiaeq	sp!, {r0, r1, r8, sl, sp, lr}^
      b0:	1505ebc5 	strne	lr, [r5, #-3013]	; 0xfffff43b
      b4:	35041b5d 	strcc	r1, [r4, #-2909]	; 0xfffff4a3
      b8:	f303fb04 	vqrdmulh.s<illegal width 8>	d15, d3, d4
      bc:	455d440d 	ldrbmi	r4, [sp, #-1037]	; 0xfffffbf3
      c0:	030eea83 	movweq	lr, #60035	; 0xea83
      c4:	465dbf28 	ldrbmi	fp, [sp], -r8, lsr #30
      c8:	43f3ea4f 	mvnsmi	lr, #323584	; 0x4f000
      cc:	f3c36013 	vmov.i32	d22, #179	; 0x000000b3
      d0:	330103ce 	movwcc	r0, #5070	; 0x13ce
      d4:	f240428b 	vhsub.s8	d20, d16, d11
      d8:	085b809b 	ldmdaeq	fp, {r0, r1, r3, r4, r7, pc}^
      dc:	d8fc428b 	ldmle	ip!, {r0, r1, r3, r7, r9, lr}^
      e0:	428d1acb 	addmi	r1, sp, #831488	; 0xcb000
      e4:	eba5d9c3 	bl	0xfe9767f8
      e8:	f1010901 			; <UNDEFINED> instruction: 0xf1010901
      ec:	f1090a01 			; <UNDEFINED> instruction: 0xf1090a01
      f0:	960236ff 			; <UNDEFINED> instruction: 0x960236ff
      f4:	1e4e4637 	mcrne	6, 2, r4, cr14, cr7, {1}
      f8:	bf284555 	svclt	0x00284555
      fc:	eba62f05 	bl	0xfe98bd18
     100:	bf8c0c03 	svclt	0x008c0c03
     104:	27002701 	strcs	r2, [r0, -r1, lsl #14]
     108:	0f02f1bc 	svceq	0x0002f1bc
     10c:	2700bf94 			; <UNDEFINED> instruction: 0x2700bf94
     110:	0701f007 	streq	pc, [r1, -r7]
     114:	d06e2f00 	rsble	r2, lr, r0, lsl #30
     118:	bf384555 	svclt	0x00384555
     11c:	0901f04f 	stmdbeq	r1, {r0, r1, r2, r3, r6, ip, sp, lr, pc}
     120:	f0291846 			; <UNDEFINED> instruction: 0xf0291846
     124:	18c70803 	stmiane	r7, {r0, r1, fp}^
     128:	f85744b0 			; <UNDEFINED> instruction: 0xf85744b0
     12c:	f846cb04 			; <UNDEFINED> instruction: 0xf846cb04
     130:	45b0cb04 	ldrmi	ip, [r0, #2820]!	; 0xb04
     134:	f029d1f9 			; <UNDEFINED> instruction: 0xf029d1f9
     138:	44310603 	ldrtmi	r0, [r1], #-1539	; 0xfffff9fd
     13c:	454e4433 	strbmi	r4, [lr, #-1075]	; 0xfffffbcd
     140:	5cc6d00d 	stclpl	0, cr13, [r6], {13}
     144:	54461c5f 	strbpl	r1, [r6], #-3167	; 0xfffff3a1
     148:	42b51c4e 	adcsmi	r1, r5, #19968	; 0x4e00
     14c:	5dc7d907 	vstrpl.16	s27, [r7, #14]	; <UNPREDICTABLE>
     150:	33023102 	movwcc	r3, #8450	; 0x2102
     154:	5587428d 	strpl	r4, [r7, #653]	; 0x28d
     158:	5cc3d901 			; <UNDEFINED> instruction: 0x5cc3d901
     15c:	99025443 	stmdbls	r2, {r0, r1, r6, sl, ip, lr}
     160:	bf384555 	svclt	0x00384555
     164:	44512100 	ldrbmi	r2, [r1], #-256	; 0xffffff00
     168:	d880458b 	stmle	r0, {r0, r1, r3, r7, r8, sl, lr}
     16c:	e8bdb007 	pop	{r0, r1, r2, ip, sp, pc}
     170:	b3668ff0 	cmnlt	r6, #240, 30	; 0x3c0
     174:	fba59d04 	blx	0xfe96758e
     178:	08ed6503 	stmiaeq	sp!, {r0, r1, r8, sl, sp, lr}^
     17c:	1505ebc5 	strne	lr, [r5, #-3013]	; 0xfffff43b
     180:	440d1b5d 	strmi	r1, [sp], #-2909	; 0xfffff4a3
     184:	455d6013 	ldrbmi	r6, [sp, #-19]	; 0xffffffed
     188:	465dbf28 	ldrbmi	fp, [sp], -r8, lsr #30
     18c:	d9eb428d 	stmible	fp!, {r0, r2, r3, r7, r9, lr}^
     190:	f303fb04 	vqrdmulh.s<illegal width 8>	d15, d3, d4
     194:	030eea83 	movweq	lr, #60035	; 0xea83
     198:	43f3ea4f 	mvnsmi	lr, #323584	; 0x4f000
     19c:	095b6013 	ldmdbeq	fp, {r0, r1, r4, sp, lr}^
     1a0:	1c4b5443 	cfstrdne	mvd5, [fp], {67}	; 0x43
     1a4:	429d4401 	addsmi	r4, sp, #16777216	; 0x1000000
     1a8:	9b05bf84 	blls	0x16ffc0
     1ac:	d90c195e 	stmdble	ip, {r1, r2, r3, r4, r6, r8, fp, ip}
     1b0:	fb046813 	blx	0x11a206
     1b4:	ea83f303 	b	0xfe0fcdc8
     1b8:	ea4f030e 	b	0x13c0df8
     1bc:	601343f3 			; <UNDEFINED> instruction: 0x601343f3
     1c0:	f801095b 			; <UNDEFINED> instruction: 0xf801095b
     1c4:	428e3f01 	addmi	r3, lr, #1, 30
     1c8:	4629d1f2 			; <UNDEFINED> instruction: 0x4629d1f2
     1cc:	9d03e7cc 	stcls	7, cr14, [r3, #-816]	; 0xfffffcd0
     1d0:	6503fba5 	strvs	pc, [r3, #-2981]	; 0xfffff45b
     1d4:	76fff44f 	ldrbtvc	pc, [pc], pc, asr #8	; <UNPREDICTABLE>
     1d8:	fb060a2d 	blx	0x182a96
     1dc:	350f3515 	strcc	r3, [pc, #-1301]	; 0xfffffccf
     1e0:	9d03e7cf 	stcls	7, cr14, [r3, #-828]	; 0xfffffcc4
     1e4:	6503fba5 	strvs	pc, [r3, #-2981]	; 0xfffff45b
     1e8:	76fff44f 	ldrbtvc	pc, [pc], pc, asr #8	; <UNPREDICTABLE>
     1ec:	fb060a2d 	blx	0x182aaa
     1f0:	35133515 	ldrcc	r3, [r3, #-1301]	; 0xfffffaeb
     1f4:	3b01e760 	blcc	0x79f7c
     1f8:	44034406 	strmi	r4, [r3], #-1030	; 0xfffffbfa
     1fc:	f8134631 			; <UNDEFINED> instruction: 0xf8134631
     200:	31027f01 	tstcc	r2, r1, lsl #30
     204:	7f01f806 	svcvc	0x0001f806
     208:	428d1a09 	addmi	r1, sp, #36864	; 0x9000
     20c:	e7a6d8f6 			; <UNDEFINED> instruction: 0xe7a6d8f6
     210:	428d1acb 	addmi	r1, sp, #831488	; 0xcb000
     214:	af67f63f 	svcge	0x0067f63f
     218:	bf00e7a6 	svclt	0x0000e7a6
     21c:	8000f3af 	andhi	pc, r0, pc, lsr #7
     220:	00000000 	andeq	r0, r0, r0
     224:	40e00000 	rscmi	r0, r0, r0
     228:	29004b16 	stmdbcs	r0, {r1, r2, r4, r8, r9, fp, lr}
     22c:	2800bf18 	stmdacs	r0, {r3, r4, r8, r9, sl, fp, ip, sp, pc}
     230:	447b4a15 	ldrbtmi	r4, [fp], #-2581	; 0xfffff5eb
     234:	589bb510 	ldmpl	fp, {r4, r8, sl, ip, sp, pc}
     238:	bf0c681c 	svclt	0x000c681c
     23c:	23002301 	movwcs	r2, #769	; 0x301
     240:	f890d017 			; <UNDEFINED> instruction: 0xf890d017
     244:	780ac000 	stmdavc	sl, {lr, pc}
     248:	bf084594 	svclt	0x00084594
     24c:	0e01f1c0 	mvfeqdm	f7, f0
     250:	f811d107 			; <UNDEFINED> instruction: 0xf811d107
     254:	eb0e2f01 	bl	0x38be60
     258:	f8100300 			; <UNDEFINED> instruction: 0xf8100300
     25c:	4594cf01 	ldrmi	ip, [r4, #3841]	; 0xf01
     260:	4a0ad0f7 	bmi	0x2b4644
     264:	21014620 	tstcs	r1, r0, lsr #12
     268:	4010e8bd 			; <UNDEFINED> instruction: 0x4010e8bd
     26c:	f7ff447a 			; <UNDEFINED> instruction: 0xf7ff447a
     270:	4807bffe 	stmdami	r7, {r1, r2, r3, r4, r5, r6, r7, r8, r9, sl, fp, ip, sp, pc}
     274:	221d4623 	andscs	r4, sp, #36700160	; 0x2300000
     278:	e8bd2101 	pop	{r0, r8, sp}
     27c:	44784010 	ldrbtmi	r4, [r8], #-16
     280:	bffef7ff 	svclt	0x00fef7ff
     284:	0000004e 	andeq	r0, r0, lr, asr #32
     288:	00000000 	andeq	r0, r0, r0
     28c:	0000001c 	andeq	r0, r0, ip, lsl r0
     290:	0000000e 	andeq	r0, r0, lr
     294:	4ff0e92d 	svcmi	0x00f0e92d
     298:	f8df461c 			; <UNDEFINED> instruction: 0xf8df461c
     29c:	ed2d3820 	stc	8, cr3, [sp, #-128]!	; 0xffffff80
     2a0:	f5ad8b0c 			; <UNDEFINED> instruction: 0xf5ad8b0c
     2a4:	b0b94d00 	adcslt	r4, r9, r0, lsl #26
     2a8:	2a10ee0a 	bcs	0x43bad8
     2ac:	2810f8df 	ldmdacs	r0, {r0, r1, r2, r3, r4, r6, r7, fp, ip, sp, lr, pc}
     2b0:	0a10ee0d 	beq	0x43baec
     2b4:	1000f44f 	andne	pc, r0, pc, asr #8
     2b8:	8b40eeb0 	blhi	0x103bd80
     2bc:	9121447a 			; <UNDEFINED> instruction: 0x9121447a
     2c0:	4100f50d 	tstmi	r0, sp, lsl #10	; <UNPREDICTABLE>
     2c4:	58d331dc 	ldmpl	r3, {r2, r3, r4, r6, r7, r8, ip, sp}^
     2c8:	600b681b 	andvs	r6, fp, fp, lsl r8
     2cc:	0300f04f 	movweq	pc, #79	; 0x4f	; <UNPREDICTABLE>
     2d0:	fffef7ff 			; <UNDEFINED> instruction: 0xfffef7ff
     2d4:	f44f900e 	vst4.8	{d25-d28}, [pc], lr
     2d8:	f7ff3000 			; <UNDEFINED> instruction: 0xf7ff3000
     2dc:	900dfffe 	strdls	pc, [sp], -lr
     2e0:	fffef7ff 			; <UNDEFINED> instruction: 0xfffef7ff
     2e4:	f44f4607 	vst1.8	{d20-d22}, [pc], r7
     2e8:	f7ff3020 			; <UNDEFINED> instruction: 0xf7ff3020
     2ec:	f04ffffe 			; <UNDEFINED> instruction: 0xf04ffffe
     2f0:	220033ff 	andcs	r3, r0, #-67108861	; 0xfc000003
     2f4:	e9cd4681 	stmib	sp, {r0, r7, r9, sl, lr}^
     2f8:	f44f3200 	vst1.8	{d19-d22}, [pc], r0
     2fc:	232231c0 			; <UNDEFINED> instruction: 0x232231c0
     300:	f44f2203 	vst1.8	{d18-d21}, [pc], r3
     304:	f7ff5080 			; <UNDEFINED> instruction: 0xf7ff5080
     308:	f8dffffe 			; <UNDEFINED> instruction: 0xf8dffffe
     30c:	f8df37b8 			; <UNDEFINED> instruction: 0xf8df37b8
     310:	447b27b8 	ldrbtmi	r2, [fp], #-1976	; 0xfffff848
     314:	447a9025 	ldrbtmi	r9, [sl], #-37	; 0xffffffdb
     318:	681b9207 	ldmdavs	fp, {r0, r1, r2, r9, ip, pc}
     31c:	dd0b2b01 	vstrle	d2, [fp, #-4]
     320:	37a8f8df 	sbfxcc	pc, pc, #17, #9
     324:	58d34601 	ldmpl	r3, {r0, r9, sl, lr}^
     328:	27a4f8df 	sbfxcs	pc, pc, #17, #5
     32c:	447a6818 	ldrbtmi	r6, [sl], #-2072	; 0xfffff7e8
     330:	2101460b 	tstcs	r1, fp, lsl #12
     334:	fffef7ff 			; <UNDEFINED> instruction: 0xfffef7ff
     338:	fffef7ff 			; <UNDEFINED> instruction: 0xfffef7ff
     33c:	fffef7ff 			; <UNDEFINED> instruction: 0xfffef7ff
     340:	0a10ee0b 	beq	0x43bb74
     344:	fffef7ff 			; <UNDEFINED> instruction: 0xfffef7ff
     348:	fffef7ff 			; <UNDEFINED> instruction: 0xfffef7ff
     34c:	0a90ee0b 	beq	0xfe43bb80
     350:	fffef7ff 			; <UNDEFINED> instruction: 0xfffef7ff
     354:	ee0a4605 	cfmadd32	mvax0, mvfx4, mvfx10, mvfx5
     358:	f7ff0a90 			; <UNDEFINED> instruction: 0xf7ff0a90
     35c:	f244fffe 	vrecps.f32	<illegal reg q15.5>, q10, q15
     360:	f2c02340 	vqdmlal.s<illegal width 8>	q9, d0, d0[0]
     364:	9023030f 	eorls	r0, r3, pc, lsl #6
     368:	f304fb03 	vqrdmulh.s<illegal width 8>	d15, d4, d3
     36c:	9b0e9324 	blls	0x3a5004
     370:	bf182f00 	svclt	0x00182f00
     374:	f0042b00 			; <UNDEFINED> instruction: 0xf0042b00
     378:	2d008125 	stfcsd	f0, [r0, #-148]	; 0xffffff6c
     37c:	f1b9bf18 			; <UNDEFINED> instruction: 0xf1b9bf18
     380:	bf0c0f00 	svclt	0x000c0f00
     384:	24002401 	strcs	r2, [r0], #-1025	; 0xfffffbff
     388:	811cf004 	tsthi	ip, r4	; <UNPREDICTABLE>
     38c:	930fab38 	movwls	sl, #64312	; 0xfb38
     390:	f244ab27 	vqdmulh.s<illegal width 8>	d26, d4, d23
     394:	46180120 	ldrmi	r0, [r8], -r0, lsr #2
     398:	3a10ee09 	bcc	0x43bbc4
     39c:	fffef7ff 			; <UNDEFINED> instruction: 0xfffef7ff
     3a0:	f0052800 			; <UNDEFINED> instruction: 0xf0052800
     3a4:	9b0f80ce 	blls	0x3e06e4
     3a8:	5a10ee1d 	bpl	0x43bc24
     3ac:	eeb0980e 	cdp	8, 11, cr9, cr0, cr14, {0}
     3b0:	461a0b48 	ldrmi	r0, [sl], -r8, asr #22
     3b4:	633df64a 	teqvs	sp, #77594624	; 0x4a00000	; <UNPREDICTABLE>
     3b8:	23b2f2cc 			; <UNDEFINED> instruction: 0x23b2f2cc
     3bc:	1100f44f 	tstne	r0, pc, asr #8	; <UNPREDICTABLE>
     3c0:	f842406b 			; <UNDEFINED> instruction: 0xf842406b
     3c4:	f7ff3d48 			; <UNDEFINED> instruction: 0xf7ff3d48
     3c8:	ee1afe1b 	mrc	14, 0, APSR_nzcv, cr10, cr11, {0}
     3cc:	ee090a10 	vmov	s18, r0
     3d0:	28002a90 	stmdacs	r0, {r4, r7, r9, fp, sp}
     3d4:	8674f002 	ldrbthi	pc, [r4], -r2	; <UNPREDICTABLE>
     3d8:	3a10ee1d 	bcc	0x43bc54
     3dc:	11b1f647 			; <UNDEFINED> instruction: 0x11b1f647
     3e0:	6137f6c9 	teqvs	r7, r9, asr #13	; <UNPREDICTABLE>
     3e4:	2277f64c 	rsbscs	pc, r7, #76, 12	; 0x4c00000
     3e8:	52ebf2c8 	rscpl	pc, fp, #200, 4	; 0x8000000c
     3ec:	f303fb01 	vqrdmulh.s<illegal width 8>	d15, d3, d1
     3f0:	42a03401 	adcmi	r3, r0, #16777216	; 0x1000000
     3f4:	0302ea83 	movweq	lr, #10883	; 0x2a83
     3f8:	43f3ea4f 	mvnsmi	lr, #323584	; 0x4f000
     3fc:	9317d1f6 	tstls	r7, #-2147483587	; 0x8000003d
     400:	931f2300 	tstls	pc, #0, 6
     404:	12b1f647 	adcsne	pc, r1, #74448896	; 0x4700000
     408:	6237f6c9 	eorsvs	pc, r7, #210763776	; 0xc900000
     40c:	e9cd9320 	stmib	sp, {r5, r8, r9, ip, pc}^
     410:	46ba331d 	ssatmi	r3, #27, sp, lsl #6
     414:	331be9cd 	tstcc	fp, #3358720	; 0x334000
     418:	3319e9cd 	tstcc	r9, #3358720	; 0x334000
     41c:	3a10ee1a 	bcc	0x43bc8c
     420:	f64c920b 			; <UNDEFINED> instruction: 0xf64c920b
     424:	f2c82277 	vrshr.s8	q9, <illegal reg q11.5>, #8
     428:	920a52eb 	andls	r5, sl, #-1342177266	; 0xb000000e
     42c:	424ff64e 	submi	pc, pc, #81788928	; 0x4e00000
     430:	62c4f6c4 	sbcvs	pc, r4, #196, 12	; 0xc400000
     434:	f24c9222 	vhsub.s8	d25, d12, d18
     438:	f6ca32d6 			; <UNDEFINED> instruction: 0xf6ca32d6
     43c:	921812b1 	andsls	r1, r8, #268435467	; 0x1000000b
     440:	42939a21 	addsmi	r9, r3, #135168	; 0x21000
     444:	8335f081 	teqhi	r5, #129	; 0x81	; <UNPREDICTABLE>
     448:	9b179d0b 	blls	0x5e787c
     44c:	fb059e0a 	blx	0x167c7e
     450:	4073f303 	rsbsmi	pc, r3, r3, lsl #6
     454:	43f3ea4f 	mvnsmi	lr, #323584	; 0x4f000
     458:	461a9317 			; <UNDEFINED> instruction: 0x461a9317
     45c:	633df64a 	teqvs	sp, #77594624	; 0x4a00000	; <UNPREDICTABLE>
     460:	23b2f2cc 			; <UNDEFINED> instruction: 0x23b2f2cc
     464:	f2484053 	vqadd.s8	q10, q4, <illegal reg q1.5>
     468:	fb050201 	blx	0x140c76
     46c:	4073f303 	rsbsmi	pc, r3, r3, lsl #6
     470:	43f3ea4f 	mvnsmi	lr, #323584	; 0x4f000
     474:	f403fb05 			; <UNDEFINED> instruction: 0xf403fb05
     478:	1203fba2 	andne	pc, r3, #165888	; 0x28800
     47c:	1a994074 	bne	0xfe650654
     480:	44f4ea4f 	ldrbtmi	lr, [r4], #2639	; 0xa4f
     484:	0251eb02 	subseq	lr, r1, #2048	; 0x800
     488:	f64f4620 			; <UNDEFINED> instruction: 0xf64f4620
     48c:	f2c071ff 	vsra.s64	<illegal reg q11.5>, <illegal reg q15.5>, #64
     490:	fb05011f 	blx	0x140916
     494:	0c12f404 	cfldrseq	mvf15, [r2], {4}
     498:	ebc24074 	bl	0xff090670
     49c:	1a9f4242 	bne	0xfe7d0dac
     4a0:	ea4f9705 	b	0x13e60bc
     4a4:	1bc944f4 	blne	0xff25187c
     4a8:	fffef7ff 			; <UNDEFINED> instruction: 0xfffef7ff
     4ac:	f3c41c4b 	vqdmulh.s<illegal width 8>	<illegal reg q8.5>, q2, d3[2]
     4b0:	220d000e 	andcs	r0, sp, #14
     4b4:	f404fb05 			; <UNDEFINED> instruction: 0xf404fb05
     4b8:	bfa84288 	svclt	0x00a84288
     4bc:	99224608 	stmdbls	r2!, {r3, r9, sl, lr}
     4c0:	90064074 	andls	r4, r6, r4, ror r0
     4c4:	44f4ea4f 	ldrbtmi	lr, [r4], #2639	; 0xa4f
     4c8:	0104fba1 	smlatbeq	r4, r1, fp, pc	; <UNPREDICTABLE>
     4cc:	fb020889 	blx	0x826fa
     4d0:	920c4211 	andls	r4, ip, #268435457	; 0x10000001
     4d4:	f0012f00 			; <UNDEFINED> instruction: 0xf0012f00
     4d8:	9a0e8561 	bls	0x3a1a64
     4dc:	441a463e 	ldrmi	r4, [sl], #-1598	; 0xfffff9c2
     4e0:	2a90ee08 	bcs	0xfe43bd08
     4e4:	46319a06 	ldrtmi	r9, [r1], -r6, lsl #20
     4e8:	0a90ee18 	beq	0xfe43bd50
     4ec:	9a0e1a9b 	bls	0x386f60
     4f0:	220018d3 	andcs	r1, r0, #13828096	; 0xd30000
     4f4:	f7ff9315 			; <UNDEFINED> instruction: 0xf7ff9315
     4f8:	f8dffffe 			; <UNDEFINED> instruction: 0xf8dffffe
     4fc:	901035d8 			; <UNDEFINED> instruction: 0x901035d8
     500:	681d447b 	ldmdavs	sp, {r0, r1, r3, r4, r5, r6, sl, lr}
     504:	fffef7ff 			; <UNDEFINED> instruction: 0xfffef7ff
     508:	f5b69b0b 			; <UNDEFINED> instruction: 0xf5b69b0b
     50c:	eba03fc0 	bl	0xfe810414
     510:	fb030005 	blx	0xc052e
     514:	9b0af404 	blls	0x2bd52c
     518:	0403ea84 	streq	lr, [r3], #-2692	; 0xfffff57c
     51c:	6354f44f 	cmpvs	r4, #1325400064	; 0x4f000000	; <UNPREDICTABLE>
     520:	0303f2c0 	movweq	pc, #12992	; 0x32c0	; <UNPREDICTABLE>
     524:	44f4ea4f 	ldrbtmi	lr, [r4], #2639	; 0xa4f
     528:	053ff004 	ldreq	pc, [pc, #-4]!	; 0x52c
     52c:	0502f1a5 	streq	pc, [r2, #-421]	; 0xfffffe5b
     530:	f585fab5 			; <UNDEFINED> instruction: 0xf585fab5
     534:	1555ea4f 	ldrbne	lr, [r5, #-2639]	; 0xfffff5b1
     538:	2500bf28 	strcs	fp, [r0, #-3880]	; 0xfffff0d8
     53c:	f3014298 	vqsub.u8	d4, d17, d8
     540:	f8df8358 			; <UNDEFINED> instruction: 0xf8df8358
     544:	447b3594 	ldrbtmi	r3, [fp], #-1428	; 0xfffffa6c
     548:	2b03681b 	blcs	0xda5bc
     54c:	8351f301 	cmphi	r1, #67108864	; 0x4000000	; <UNPREDICTABLE>
     550:	f0422d00 			; <UNDEFINED> instruction: 0xf0422d00
     554:	9b0b85ad 	blls	0x2e1c10
     558:	9905980a 	stmdbls	r5, {r1, r3, fp, ip, pc}
     55c:	fb039a0f 	blx	0xe6da2
     560:	4044f404 	submi	pc, r4, r4, lsl #8
     564:	1c48f842 	mcrrne	8, 4, pc, r8, cr2	; <UNPREDICTABLE>
     568:	2a90ee19 	bcs	0xfe43bdd4
     56c:	44f4ea4f 	ldrbtmi	lr, [r4], #2639	; 0xa4f
     570:	057ff004 	ldrbeq	pc, [pc, #-4]!	; 0x574	; <UNPREDICTABLE>
     574:	f404fb03 			; <UNDEFINED> instruction: 0xf404fb03
     578:	1501fb05 	strne	pc, [r1, #-2821]	; 0xfffff4fb
     57c:	40444651 	submi	r4, r4, r1, asr r6
     580:	0a90ee18 	beq	0xfe43bde8
     584:	ea4f11ed 	b	0x13c4d40
     588:	462b44f4 			; <UNDEFINED> instruction: 0x462b44f4
     58c:	f80ab2e7 			; <UNDEFINED> instruction: 0xf80ab2e7
     590:	f7ff7005 			; <UNDEFINED> instruction: 0xf7ff7005
     594:	4606fffe 			; <UNDEFINED> instruction: 0x4606fffe
     598:	f2c44285 	vsubl.s8	q10, d20, d5
     59c:	f81a807d 			; <UNDEFINED> instruction: 0xf81a807d
     5a0:	42bb3005 	adcsmi	r3, fp, #5
     5a4:	805ef044 	subshi	pc, lr, r4, asr #32
     5a8:	f8539b0f 			; <UNDEFINED> instruction: 0xf8539b0f
     5ac:	9b051c48 	blls	0x1476d4
     5b0:	f3044299 	vqsub.u8	d4, d20, d9
     5b4:	f8df803d 			; <UNDEFINED> instruction: 0xf8df803d
     5b8:	447b3524 	ldrbtmi	r3, [fp], #-1316	; 0xfffffadc
     5bc:	2b04681b 	blcs	0x11a630
     5c0:	8482f301 	strhi	pc, [r2], #769	; 0x301
     5c4:	f0412d00 			; <UNDEFINED> instruction: 0xf0412d00
     5c8:	f04f8498 			; <UNDEFINED> instruction: 0xf04f8498
     5cc:	f04f0b02 			; <UNDEFINED> instruction: 0xf04f0b02
     5d0:	2b030801 	blcs	0xc25dc
     5d4:	845af301 	ldrbhi	pc, [sl], #-769	; 0xfffffcff	; <UNPREDICTABLE>
     5d8:	9d0a9a0b 	vstrls	s18, [sl, #-44]	; 0xffffffd4
     5dc:	980f9905 	stmdals	pc, {r0, r2, r8, fp, ip, pc}	; <UNPREDICTABLE>
     5e0:	f304fb02 	vqrdmulh.s<illegal width 8>	d15, d4, d2
     5e4:	f840406b 			; <UNDEFINED> instruction: 0xf840406b
     5e8:	ee181c48 	cdp	12, 1, cr1, cr8, cr8, {2}
     5ec:	ea4f0a90 	b	0x13c3034
     5f0:	f00343f3 			; <UNDEFINED> instruction: 0xf00343f3
     5f4:	fb02047f 	blx	0x817fa
     5f8:	fb04f303 	blx	0x13d20e
     5fc:	406b1401 	rsbmi	r1, fp, r1, lsl #8
     600:	45f3ea4f 	ldrbmi	lr, [r3, #2639]!	; 0xa4f
     604:	951611e4 	ldrls	r1, [r6, #-484]	; 0xfffffe1c
     608:	fffef7ff 			; <UNDEFINED> instruction: 0xfffef7ff
     60c:	4605b2ef 	strmi	fp, [r5], -pc, ror #5
     610:	f0032800 			; <UNDEFINED> instruction: 0xf0032800
     614:	9b0c87f3 	blls	0x3225e8
     618:	1a90ee18 	bne	0xfe43be80
     61c:	4300e9cd 	movwmi	lr, #2509	; 0x9cd
     620:	ee194652 	mrc	6, 0, r4, cr9, cr2, {2}
     624:	f80a3a90 			; <UNDEFINED> instruction: 0xf80a3a90
     628:	f7ff7004 			; <UNDEFINED> instruction: 0xf7ff7004
     62c:	f8dffffe 			; <UNDEFINED> instruction: 0xf8dffffe
     630:	460634b0 			; <UNDEFINED> instruction: 0x460634b0
     634:	681b447b 	ldmdavs	fp, {r0, r1, r3, r4, r5, r6, sl, lr}
     638:	f3012b04 	vqrdmulh.s<illegal width 8>	d2, d1, d4
     63c:	462884b4 			; <UNDEFINED> instruction: 0x462884b4
     640:	fffef7ff 			; <UNDEFINED> instruction: 0xfffef7ff
     644:	f2c442b4 	vrshr.s64	d20, d20, #60
     648:	f81a80f7 			; <UNDEFINED> instruction: 0xf81a80f7
     64c:	42bb3004 	adcsmi	r3, fp, #4
     650:	80d8f044 	sbcshi	pc, r8, r4, asr #32
     654:	f8539b0f 			; <UNDEFINED> instruction: 0xf8539b0f
     658:	9b051c48 	blls	0x147780
     65c:	f3044299 	vqsub.u8	d4, d20, d9
     660:	2c0080b7 	stccs	0, cr8, [r0], {183}	; 0xb7
     664:	8500f041 	strhi	pc, [r0, #-65]	; 0xffffffbf
     668:	4478f8df 	ldrbtmi	pc, [r8], #-2271	; 0xfffff721	; <UNPREDICTABLE>
     66c:	6823447c 	stmdavs	r3!, {r2, r3, r4, r5, r6, sl, lr}
     670:	f3012b04 	vqrdmulh.s<illegal width 8>	d2, d1, d4
     674:	f10b84ea 			; <UNDEFINED> instruction: 0xf10b84ea
     678:	2b030401 	blcs	0xc1684
     67c:	84c7f301 	strbhi	pc, [r7], #769	; 0x301	; <UNPREDICTABLE>
     680:	ee189b0c 	vnmls.f64	d9, d8, d12
     684:	93000a90 	movwls	r0, #2704	; 0xa90
     688:	9b0d4651 	blls	0x351fd4
     68c:	f7ff9a05 			; <UNDEFINED> instruction: 0xf7ff9a05
     690:	9014fffe 			; <UNDEFINED> instruction: 0x9014fffe
     694:	f0042800 			; <UNDEFINED> instruction: 0xf0042800
     698:	f8df8081 			; <UNDEFINED> instruction: 0xf8df8081
     69c:	f10b344c 			; <UNDEFINED> instruction: 0xf10b344c
     6a0:	447b0402 	ldrbtmi	r0, [fp], #-1026	; 0xfffffbfe
     6a4:	2b03681b 	blcs	0xda718
     6a8:	8493f301 	ldrhi	pc, [r3], #769	; 0x301
     6ac:	ee189b0c 	vnmls.f64	d9, d8, d12
     6b0:	93011a90 	movwls	r1, #6800	; 0x1a90
     6b4:	0a90ee1b 	beq	0xfe43bf28
     6b8:	46529b0d 	ldrbmi	r9, [r2], -sp, lsl #22
     6bc:	9b059300 	blls	0x1652c4
     6c0:	fffef7ff 			; <UNDEFINED> instruction: 0xfffef7ff
     6c4:	f0042800 			; <UNDEFINED> instruction: 0xf0042800
     6c8:	f8df804f 			; <UNDEFINED> instruction: 0xf8df804f
     6cc:	f10b3420 			; <UNDEFINED> instruction: 0xf10b3420
     6d0:	447b0403 	ldrbtmi	r0, [fp], #-1027	; 0xfffffbfd
     6d4:	2b03681b 	blcs	0xda748
     6d8:	8557f301 	ldrbhi	pc, [r7, #-769]	; 0xfffffcff	; <UNPREDICTABLE>
     6dc:	ee189b0c 	vnmls.f64	d9, d8, d12
     6e0:	93011a90 	movwls	r1, #6800	; 0x1a90
     6e4:	0a90ee1b 	beq	0xfe43bf58
     6e8:	46529b0d 	ldrbmi	r9, [r2], -sp, lsl #22
     6ec:	9b059300 	blls	0x1652f4
     6f0:	fffef7ff 			; <UNDEFINED> instruction: 0xfffef7ff
     6f4:	f0042800 			; <UNDEFINED> instruction: 0xf0042800
     6f8:	4bfd801d 	blmi	0xfff60774
     6fc:	0604f10b 	streq	pc, [r4], -fp, lsl #2
     700:	681b447b 	ldmdavs	fp, {r0, r1, r3, r4, r5, r6, sl, lr}
     704:	f3012b03 	vqrdmulh.s<illegal width 8>	d2, d1, d3
     708:	9b0d8522 	blls	0x361b98
     70c:	1a90ee18 	bne	0xfe43bf74
     710:	ee1b9300 	cdp	3, 1, cr9, cr11, cr0, {0}
     714:	23080a10 	movwcs	r0, #35344	; 0x8a10
     718:	93014652 	movwls	r4, #5714	; 0x1652
     71c:	f7ff9b05 			; <UNDEFINED> instruction: 0xf7ff9b05
     720:	4604fffe 			; <UNDEFINED> instruction: 0x4604fffe
     724:	f0032800 			; <UNDEFINED> instruction: 0xf0032800
     728:	4bf287eb 	blmi	0xffca26dc
     72c:	0605f10b 	streq	pc, [r5], -fp, lsl #2
     730:	681b447b 	ldmdavs	fp, {r0, r1, r3, r4, r5, r6, sl, lr}
     734:	f3012b03 	vqrdmulh.s<illegal width 8>	d2, d1, d3
     738:	23088546 	movwcs	r8, #34118	; 0x8546
     73c:	1a90ee18 	bne	0xfe43bfa4
     740:	ee1b9301 	cdp	3, 1, cr9, cr11, cr1, {0}
     744:	1e630a10 			; <UNDEFINED> instruction: 0x1e630a10
     748:	93004652 	movwls	r4, #1618	; 0x652
     74c:	f7ff9b05 			; <UNDEFINED> instruction: 0xf7ff9b05
     750:	2800fffe 	stmdacs	r0, {r1, r2, r3, r4, r5, r6, r7, r8, r9, sl, fp, ip, sp, lr, pc}
     754:	87baf043 	ldrhi	pc, [sl, r3, asr #32]!
     758:	f10b4be7 			; <UNDEFINED> instruction: 0xf10b4be7
     75c:	447b0806 	ldrbtmi	r0, [fp], #-2054	; 0xfffff7fa
     760:	2b03681b 	blcs	0xda7d4
     764:	84d5f301 	ldrbhi	pc, [r5], #769	; 0x301	; <UNPREDICTABLE>
     768:	2c029b0f 			; <UNDEFINED> instruction: 0x2c029b0f
     76c:	46259a05 	strtmi	r9, [r5], -r5, lsl #20
     770:	2502bfb8 	strcs	fp, [r2, #-4024]	; 0xfffff048
     774:	1a90ee18 	bne	0xfe43bfdc
     778:	2c48f843 	mcrrcs	8, 4, pc, r8, cr3	; <UNPREDICTABLE>
     77c:	23083d01 	movwcs	r3, #36097	; 0x8d01
     780:	0a10ee1b 	beq	0x43bff4
     784:	46529301 	ldrbmi	r9, [r2], -r1, lsl #6
     788:	3a90ee19 	bcc	0xfe43bff4
     78c:	f7ff9500 			; <UNDEFINED> instruction: 0xf7ff9500
     790:	2800fffe 	stmdacs	r0, {r1, r2, r3, r4, r5, r6, r7, r8, r9, sl, fp, ip, sp, lr, pc}
     794:	81d6f004 	bicshi	pc, r6, r4
     798:	dd0642ac 	sfmle	f4, 4, [r6, #-688]	; 0xfffffd50
     79c:	9a059b0f 	bls	0x1673e0
     7a0:	3c48f853 	mcrrcc	8, 5, pc, r8, cr3	; <UNPREDICTABLE>
     7a4:	f2844293 	vrshr.s64	d4, d3, #60
     7a8:	4bd481b3 	blmi	0xff520e7c
     7ac:	0407f10b 	streq	pc, [r7], #-267	; 0xfffffef5
     7b0:	681b447b 	ldmdavs	fp, {r0, r1, r3, r4, r5, r6, sl, lr}
     7b4:	f3012b03 	vqrdmulh.s<illegal width 8>	d2, d1, d3
     7b8:	9b0d8542 	blls	0x361cc8
     7bc:	1a90ee18 	bne	0xfe43c024
     7c0:	ee1b9300 	cdp	3, 1, cr9, cr11, cr0, {0}
     7c4:	23080a10 	movwcs	r0, #35344	; 0x8a10
     7c8:	93014652 	movwls	r4, #5714	; 0x1652
     7cc:	f7ff9b05 			; <UNDEFINED> instruction: 0xf7ff9b05
     7d0:	2800fffe 	stmdacs	r0, {r1, r2, r3, r4, r5, r6, r7, r8, r9, sl, fp, ip, sp, lr, pc}
     7d4:	8182f004 	orrhi	pc, r2, r4
     7d8:	f10b4bc9 			; <UNDEFINED> instruction: 0xf10b4bc9
     7dc:	447b0408 	ldrbtmi	r0, [fp], #-1032	; 0xfffffbf8
     7e0:	2b03681b 	blcs	0xda854
     7e4:	850df301 	strhi	pc, [sp, #-769]	; 0xfffffcff
     7e8:	ee189b0d 	vnmls.f64	d9, d8, d13
     7ec:	9a050a90 	bls	0x143234
     7f0:	f7ff4651 			; <UNDEFINED> instruction: 0xf7ff4651
     7f4:	1e03fffe 	mcrne	15, 0, pc, cr3, cr14, {7}	; <UNPREDICTABLE>
     7f8:	f3449312 	vcge.u8	d25, d4, d2
     7fc:	f7ff8155 			; <UNDEFINED> instruction: 0xf7ff8155
     800:	4680fffe 			; <UNDEFINED> instruction: 0x4680fffe
     804:	f0042800 			; <UNDEFINED> instruction: 0xf0042800
     808:	9b0d8142 	blls	0x360d18
     80c:	42939a12 	addsmi	r9, r3, #73728	; 0x12000
     810:	8130f2c4 	teqhi	r0, r4, asr #5	; <UNPREDICTABLE>
     814:	f10b4651 			; <UNDEFINED> instruction: 0xf10b4651
     818:	f7ff0409 			; <UNDEFINED> instruction: 0xf7ff0409
     81c:	4bb9fffe 	blmi	0xfee8081c
     820:	681b447b 	ldmdavs	fp, {r0, r1, r3, r4, r5, r6, sl, lr}
     824:	f3012b03 	vqrdmulh.s<illegal width 8>	d2, d1, d3
     828:	9a058528 	bls	0x161cd0
     82c:	46404649 	strbmi	r4, [r0], -r9, asr #12
     830:	fffef7ff 			; <UNDEFINED> instruction: 0xfffef7ff
     834:	93111e03 	tstls	r1, #3, 28	; 0x30
     838:	8102f2c4 	smlabthi	r2, r4, r2, pc	; <UNPREDICTABLE>
     83c:	9b12461a 	blls	0x4920ac
     840:	f0444293 			; <UNDEFINED> instruction: 0xf0444293
     844:	990580e3 	stmdbls	r5, {r0, r1, r5, r6, r7, pc}
     848:	46482200 	strbmi	r2, [r8], -r0, lsl #4
     84c:	fffef7ff 			; <UNDEFINED> instruction: 0xfffef7ff
     850:	42839b10 	addmi	r9, r3, #16, 22	; 0x4000
     854:	80c0f044 	sbchi	pc, r0, r4, asr #32
     858:	9a054bab 	bls	0x15370c
     85c:	681b447b 	ldmdavs	fp, {r0, r1, r3, r4, r5, r6, sl, lr}
     860:	f10bb1b2 			; <UNDEFINED> instruction: 0xf10bb1b2
     864:	2b03040a 	blcs	0xc1894
     868:	81adf302 			; <UNDEFINED> instruction: 0x81adf302
     86c:	46499b05 	strbmi	r9, [r9], -r5, lsl #22
     870:	1e5d4640 	cdpne	6, 5, cr4, cr13, cr0, {2}
     874:	462a2300 	strtmi	r2, [sl], -r0, lsl #6
     878:	3005f809 	andcc	pc, r5, r9, lsl #16
     87c:	fffef7ff 			; <UNDEFINED> instruction: 0xfffef7ff
     880:	f2842800 	vmlal.s8	q1, d4, d0
     884:	f819808f 			; <UNDEFINED> instruction: 0xf819808f
     888:	2b003005 	blcs	0xc8a4
     88c:	8070f044 	rsbshi	pc, r0, r4, asr #32
     890:	1c664b9e 			; <UNDEFINED> instruction: 0x1c664b9e
     894:	681b447b 	ldmdavs	fp, {r0, r1, r3, r4, r5, r6, sl, lr}
     898:	f3012b03 	vqrdmulh.s<illegal width 8>	d2, d1, d3
     89c:	9b05850c 	blls	0x161cd4
     8a0:	46404649 	strbmi	r4, [r0], -r9, asr #12
     8a4:	0b01f103 	bleq	0x7ccb8
     8a8:	f7ff465a 			; <UNDEFINED> instruction: 0xf7ff465a
     8ac:	2800fffe 	stmdacs	r0, {r1, r2, r3, r4, r5, r6, r7, r8, r9, sl, fp, ip, sp, lr, pc}
     8b0:	8044f284 	subhi	pc, r4, r4, lsl #5
     8b4:	1ca54b96 	vstmiane	r5!, {d4-d14}
     8b8:	681b447b 	ldmdavs	fp, {r0, r1, r3, r4, r5, r6, sl, lr}
     8bc:	f3012b03 	vqrdmulh.s<illegal width 8>	d2, d1, d3
     8c0:	9e058515 	mcrls	5, 0, r8, cr5, cr5, {0}
     8c4:	9a112700 	bls	0x44a4cc
     8c8:	46334649 	ldrtmi	r4, [r3], -r9, asr #12
     8cc:	f8094640 			; <UNDEFINED> instruction: 0xf8094640
     8d0:	f7ff7006 			; <UNDEFINED> instruction: 0xf7ff7006
     8d4:	eb09fffe 	bl	0x2808d4
     8d8:	1e070306 	cdpne	3, 0, cr0, cr7, cr6, {0}
     8dc:	f2c49308 	vsubw.s8	<illegal reg q12.5>, q2, d8
     8e0:	9b058013 	blls	0x160934
     8e4:	f04342bb 			; <UNDEFINED> instruction: 0xf04342bb
     8e8:	9b0887f5 	blls	0x2228c4
     8ec:	2a00781a 	bcs	0x1e95c
     8f0:	87d6f043 	ldrbhi	pc, [r6, r3, asr #32]	; <UNPREDICTABLE>
     8f4:	46489905 	strbmi	r9, [r8], -r5, lsl #18
     8f8:	fffef7ff 			; <UNDEFINED> instruction: 0xfffef7ff
     8fc:	42839b10 	addmi	r9, r3, #16, 22	; 0x4000
     900:	87b4f043 	ldrhi	pc, [r4, r3, asr #32]!
     904:	1ce24b83 	fstmiaxne	r2!, {d20-d84}	;@ Deprecated
     908:	447b9213 	ldrbtmi	r9, [fp], #-531	; 0xfffffded
     90c:	2b03681b 	blcs	0xda980
     910:	8507f301 	strhi	pc, [r7, #-769]	; 0xfffffcff
     914:	465b9d08 	ldrbmi	r9, [fp], -r8, lsl #26
     918:	46499a11 			; <UNDEFINED> instruction: 0x46499a11
     91c:	26004640 	strcs	r4, [r0], -r0, asr #12
     920:	f7ff802e 			; <UNDEFINED> instruction: 0xf7ff802e
     924:	2800fffe 	stmdacs	r0, {r1, r2, r3, r4, r5, r6, r7, r8, r9, sl, fp, ip, sp, lr, pc}
     928:	80c4f2c3 	sbchi	pc, r4, r3, asr #5
     92c:	f0434287 			; <UNDEFINED> instruction: 0xf0434287
     930:	f81980a7 			; <UNDEFINED> instruction: 0xf81980a7
     934:	2a00200b 	bcs	0x8968
     938:	8088f043 	addhi	pc, r8, r3, asr #32
     93c:	46489905 	strbmi	r9, [r8], -r5, lsl #18
     940:	fffef7ff 			; <UNDEFINED> instruction: 0xfffef7ff
     944:	42839b10 	addmi	r9, r3, #16, 22	; 0x4000
     948:	8066f043 	rsbhi	pc, r6, r3, asr #32
     94c:	1d264b72 	vstmdbne	r6!, {d4-<overflow reg d60>}
     950:	681b447b 	ldmdavs	fp, {r0, r1, r3, r4, r5, r6, sl, lr}
     954:	2f009309 	svccs	0x00009309
     958:	8181f001 	orrhi	pc, r1, r1
     95c:	f3022b03 	vqrdmulh.s<illegal width 8>	d2, d2, d3
     960:	9b05811a 	blls	0x160dd0
     964:	0c00f04f 	stceq	0, cr15, [r0], {79}	; 0x4f
     968:	46499a11 			; <UNDEFINED> instruction: 0x46499a11
     96c:	46401e5d 			; <UNDEFINED> instruction: 0x46401e5d
     970:	f8091e7b 			; <UNDEFINED> instruction: 0xf8091e7b
     974:	f7ffc005 			; <UNDEFINED> instruction: 0xf7ffc005
     978:	2800fffe 	stmdacs	r0, {r1, r2, r3, r4, r5, r6, r7, r8, r9, sl, fp, ip, sp, lr, pc}
     97c:	85f6f282 	ldrbhi	pc, [r6, #642]!	; 0x282	; <UNPREDICTABLE>
     980:	3005f819 	andcc	pc, r5, r9, lsl r8	; <UNPREDICTABLE>
     984:	f0422b00 			; <UNDEFINED> instruction: 0xf0422b00
     988:	4b6485d7 	blmi	0x19220ec
     98c:	447b3405 	ldrbtmi	r3, [fp], #-1029	; 0xfffffbfb
     990:	2b03681b 	blcs	0xdaa04
     994:	82b0f302 	adcshi	pc, r0, #134217728	; 0x8000000
     998:	f3412f0a 	vpmax.f32	d18, d1, d10
     99c:	9b05817e 	blls	0x160f9c
     9a0:	0c00f04f 	stceq	0, cr15, [r0], {79}	; 0x4f
     9a4:	46499a11 			; <UNDEFINED> instruction: 0x46499a11
     9a8:	050af1a3 	streq	pc, [sl, #-419]	; 0xfffffe5d
     9ac:	f1a74640 			; <UNDEFINED> instruction: 0xf1a74640
     9b0:	f809030a 			; <UNDEFINED> instruction: 0xf809030a
     9b4:	f7ffc005 			; <UNDEFINED> instruction: 0xf7ffc005
     9b8:	2800fffe 	stmdacs	r0, {r1, r2, r3, r4, r5, r6, r7, r8, r9, sl, fp, ip, sp, lr, pc}
     9bc:	8641f282 	strbhi	pc, [r1], -r2, lsl #5	; <UNPREDICTABLE>
     9c0:	3005f819 	andcc	pc, r5, r9, lsl r8	; <UNPREDICTABLE>
     9c4:	f0422b00 			; <UNDEFINED> instruction: 0xf0422b00
     9c8:	4b558622 	blmi	0x1562258
     9cc:	447b9613 	ldrbtmi	r9, [fp], #-1555	; 0xfffff9ed
     9d0:	9309681b 	movwls	r6, #38939	; 0x981b
     9d4:	26009b12 			; <UNDEFINED> instruction: 0x26009b12
     9d8:	085b3601 	ldmdaeq	fp, {r0, r9, sl, ip, sp}^
     9dc:	9b0bd1fc 	blls	0x2f51d4
     9e0:	98164631 	ldmdals	r6, {r0, r4, r5, r9, sl, lr}
     9e4:	fb039a0a 	blx	0xe7216
     9e8:	4050f000 	subsmi	pc, r0, r0
     9ec:	40f0ea4f 	rscsmi	lr, r0, pc, asr #20
     9f0:	f400fb03 			; <UNDEFINED> instruction: 0xf400fb03
     9f4:	f7ff4054 			; <UNDEFINED> instruction: 0xf7ff4054
     9f8:	2001fffe 	strdcs	pc, [r1], -lr
     9fc:	44f4ea4f 	ldrbtmi	lr, [r4], #2639	; 0xa4f
     a00:	f501fa00 			; <UNDEFINED> instruction: 0xf501fa00
     a04:	3d019912 	vstrcc.16	s18, [r1, #-36]	; 0xffffffdc	; <UNPREDICTABLE>
     a08:	42a94025 	adcmi	r4, r9, #37	; 0x25
     a0c:	8091f240 	addshi	pc, r1, r0, asr #4
     a10:	aa10ee08 	bge	0x43c238
     a14:	7a90ee0c 	bvc	0xfe43c24c
     a18:	463746c2 	ldrtmi	r4, [r7], -r2, asr #13
     a1c:	8b0ae9dd 	blhi	0x2bb198
     a20:	ee0c460e 	cfmadd32	mvax0, mvfx4, mvfx12, mvfx14
     a24:	e0359a10 	eors	r9, r5, r0, lsl sl
     a28:	39012301 	stmdbcc	r1, {r0, r8, r9, sp}
     a2c:	f101fa03 			; <UNDEFINED> instruction: 0xf101fa03
     a30:	40213901 	eormi	r3, r1, r1, lsl #18
     a34:	fb0b4419 	blx	0x2d1aa2
     a38:	1b72f404 	blne	0x1cbda50
     a3c:	ea84428a 	b	0xfe11146c
     a40:	bf280408 	svclt	0x00280408
     a44:	f5c2460a 			; <UNDEFINED> instruction: 0xf5c2460a
     a48:	46911100 	ldrmi	r1, [r1], r0, lsl #2
     a4c:	44f4ea4f 	ldrbtmi	lr, [r4], #2639	; 0xa4f
     a50:	f7ff4620 			; <UNDEFINED> instruction: 0xf7ff4620
     a54:	9b0efffe 	blls	0x3c0a54
     a58:	eb0a464a 	bl	0x292388
     a5c:	44190005 	ldrmi	r0, [r9], #-5
     a60:	fffef7ff 			; <UNDEFINED> instruction: 0xfffef7ff
     a64:	f004fb0b 			; <UNDEFINED> instruction: 0xf004fb0b
     a68:	ea804639 	b	0xfe012354
     a6c:	ea4f0008 	b	0x13c0a94
     a70:	fb0b40f0 	blx	0x2d0e3a
     a74:	f7fff400 			; <UNDEFINED> instruction: 0xf7fff400
     a78:	2301fffe 	movwcs	pc, #8190	; 0x1ffe	; <UNPREDICTABLE>
     a7c:	0408ea84 	streq	lr, [r8], #-2692	; 0xfffff57c
     a80:	f101fa03 			; <UNDEFINED> instruction: 0xf101fa03
     a84:	44f4ea4f 	ldrbtmi	lr, [r4], #2639	; 0xa4f
     a88:	40213901 	eormi	r3, r1, r1, lsl #18
     a8c:	440d4449 	strmi	r4, [sp], #-1097	; 0xfffffbb7
     a90:	d94742ae 	stmdble	r7, {r1, r2, r3, r5, r7, r9, lr}^
     a94:	f404fb0b 			; <UNDEFINED> instruction: 0xf404fb0b
     a98:	ea844639 	b	0xfe112384
     a9c:	ea4f0408 	b	0x13c1ac4
     aa0:	462044f4 			; <UNDEFINED> instruction: 0x462044f4
     aa4:	fffef7ff 			; <UNDEFINED> instruction: 0xfffef7ff
     aa8:	f404fb0b 			; <UNDEFINED> instruction: 0xf404fb0b
     aac:	0408ea84 	streq	lr, [r8], #-2692	; 0xfffff57c
     ab0:	44f4ea4f 	ldrbtmi	lr, [r4], #2639	; 0xa4f
     ab4:	d1b72900 			; <UNDEFINED> instruction: 0xd1b72900
     ab8:	e7bc2101 	ldr	r2, [ip, r1, lsl #2]!
     abc:	00000000 	andeq	r0, r0, r0
     ac0:	00000800 	andeq	r0, r0, r0, lsl #16
     ac4:	000007ae 	andeq	r0, r0, lr, lsr #15
     ac8:	000007ae 	andeq	r0, r0, lr, lsr #15
     acc:	00000000 	andeq	r0, r0, r0
     ad0:	0000079e 	muleq	r0, lr, r7
     ad4:	000005d0 	ldrdeq	r0, [r0], -r0	; <UNPREDICTABLE>
     ad8:	0000058e 	andeq	r0, r0, lr, lsl #11
     adc:	0000051e 	andeq	r0, r0, lr, lsl r5
     ae0:	000004a8 	andeq	r0, r0, r8, lsr #9
     ae4:	00000474 	andeq	r0, r0, r4, ror r4
     ae8:	00000442 	andeq	r0, r0, r2, asr #8
     aec:	00000416 	andeq	r0, r0, r6, lsl r4
     af0:	000003ec 	andeq	r0, r0, ip, ror #7
     af4:	000003c0 	andeq	r0, r0, r0, asr #7
     af8:	00000396 	muleq	r0, r6, r3
     afc:	00000348 	andeq	r0, r0, r8, asr #6
     b00:	0000031e 	andeq	r0, r0, lr, lsl r3
     b04:	000002e0 	andeq	r0, r0, r0, ror #5
     b08:	000002a8 	andeq	r0, r0, r8, lsr #5
     b0c:	00000274 	andeq	r0, r0, r4, ror r2
     b10:	00000254 	andeq	r0, r0, r4, asr r2
     b14:	00000206 	andeq	r0, r0, r6, lsl #4
     b18:	000001c4 	andeq	r0, r0, r4, asr #3
     b1c:	0000018a 	andeq	r0, r0, sl, lsl #3
     b20:	0000014e 	andeq	r0, r0, lr, asr #2
     b24:	ee1c46d0 	mrc	6, 0, r4, cr12, cr0, {6}
     b28:	ee189a10 	vmov	r9, s16
     b2c:	ee1caa10 	vmov	sl, s24
     b30:	9b137a90 	blls	0x4df578
     b34:	9b091c9e 	blls	0x247db4
     b38:	f3012b03 	vqrdmulh.s<illegal width 8>	d2, d1, d3
     b3c:	9b088443 	blls	0x221c50
     b40:	9a184649 	bls	0x61246c
     b44:	601a4640 	andsvs	r4, sl, r0, asr #12
     b48:	9a11463b 	bls	0x45243c
     b4c:	fffef7ff 			; <UNDEFINED> instruction: 0xfffef7ff
     b50:	f2c24287 	vsubl.s8	q10, d18, d7
     b54:	9b08853f 	blls	0x222058
     b58:	681b9a18 	ldmdavs	fp, {r3, r4, r9, fp, ip, pc}
     b5c:	f0424293 			; <UNDEFINED> instruction: 0xf0424293
     b60:	4640851f 			; <UNDEFINED> instruction: 0x4640851f
     b64:	fffef7ff 			; <UNDEFINED> instruction: 0xfffef7ff
     b68:	3cd8f8df 	ldclcc	8, cr15, [r8], {223}	; 0xdf
     b6c:	447b9a13 	ldrbtmi	r9, [fp], #-2579	; 0xfffff5ed
     b70:	681b1cd6 	ldmdavs	fp, {r1, r2, r4, r6, r7, sl, fp, ip}
     b74:	f3012b03 	vqrdmulh.s<illegal width 8>	d2, d1, d3
     b78:	9b11840a 	blls	0x461ba8
     b7c:	46504649 	ldrbmi	r4, [r0], -r9, asr #12
     b80:	38fff103 	ldmcc	pc!, {r0, r1, r8, ip, sp, lr, pc}^	; <UNPREDICTABLE>
     b84:	4642463b 			; <UNDEFINED> instruction: 0x4642463b
     b88:	fffef7ff 			; <UNDEFINED> instruction: 0xfffef7ff
     b8c:	f2822800 	vmlal.s8	q1, d2, d0
     b90:	f8df8633 			; <UNDEFINED> instruction: 0xf8df8633
     b94:	9a133cb4 	bls	0x4cfe6c
     b98:	3204447b 	andcc	r4, r4, #2063597568	; 0x7b000000
     b9c:	681b9209 	ldmdavs	fp, {r0, r3, r9, ip, pc}
     ba0:	f3012b03 	vqrdmulh.s<illegal width 8>	d2, d1, d3
     ba4:	9e0883d9 	mcrls	3, 0, r8, cr8, cr9, {6}
     ba8:	9a112500 	bls	0x449fb0
     bac:	4649463b 			; <UNDEFINED> instruction: 0x4649463b
     bb0:	32014650 	andcc	r4, r1, #80, 12	; 0x5000000
     bb4:	f7ff7035 			; <UNDEFINED> instruction: 0xf7ff7035
     bb8:	42a8fffe 	adcmi	pc, r8, #1016	; 0x3f8
     bbc:	8602f282 	strhi	pc, [r2], -r2, lsl #5
     bc0:	781b9b08 	ldmdavc	fp, {r3, r8, r9, fp, ip, pc}
     bc4:	f0422b00 			; <UNDEFINED> instruction: 0xf0422b00
     bc8:	f8df85e3 			; <UNDEFINED> instruction: 0xf8df85e3
     bcc:	447b3c80 	ldrbtmi	r3, [fp], #-3200	; 0xfffff380
     bd0:	2f00681b 	svccs	0x0000681b
     bd4:	8117f000 	tsthi	r7, r0	; <UNPREDICTABLE>
     bd8:	2b039a13 	blcs	0xe742c
     bdc:	0605f102 	streq	pc, [r5], -r2, lsl #2
     be0:	816cf302 	msrhi	SPSR_mon, r2
     be4:	9b0a9d0b 	blls	0x2a8018
     be8:	b014f8dd 			; <UNDEFINED> instruction: 0xb014f8dd
     bec:	f404fb05 			; <UNDEFINED> instruction: 0xf404fb05
     bf0:	405c4659 	subsmi	r4, ip, r9, asr r6
     bf4:	44f4ea4f 	ldrbtmi	lr, [r4], #2639	; 0xa4f
     bf8:	f7ff4620 			; <UNDEFINED> instruction: 0xf7ff4620
     bfc:	9b0afffe 	blls	0x2c0bfc
     c00:	f404fb05 			; <UNDEFINED> instruction: 0xf404fb05
     c04:	0b01ebab 	bleq	0x7bab8
     c08:	46494650 			; <UNDEFINED> instruction: 0x46494650
     c0c:	ee18405c 	mrc	0, 0, r4, cr8, cr12, {2}
     c10:	ea4f3a90 	b	0x13cf658
     c14:	f00444f4 			; <UNDEFINED> instruction: 0xf00444f4
     c18:	f8130201 			; <UNDEFINED> instruction: 0xf8130201
     c1c:	9b12500b 	blls	0x494c50
     c20:	f0859700 			; <UNDEFINED> instruction: 0xf0859700
     c24:	441a055a 	ldrmi	r0, [sl], #-1370	; 0xfffffaa6
     c28:	500bf809 	andpl	pc, fp, r9, lsl #16
     c2c:	f7ff465b 			; <UNDEFINED> instruction: 0xf7ff465b
     c30:	2800fffe 	stmdacs	r0, {r1, r2, r3, r4, r5, r6, r7, r8, r9, sl, fp, ip, sp, lr, pc}
     c34:	8590f2c2 	ldrhi	pc, [r0, #706]	; 0x2c2
     c38:	f0424583 			; <UNDEFINED> instruction: 0xf0424583
     c3c:	f819856f 			; <UNDEFINED> instruction: 0xf819856f
     c40:	42ab300b 	adcmi	r3, fp, #11
     c44:	854df042 	strbhi	pc, [sp, #-66]	; 0xffffffbe	; <UNPREDICTABLE>
     c48:	0a90ee18 	beq	0xfe43c4b0
     c4c:	4649465a 			; <UNDEFINED> instruction: 0x4649465a
     c50:	fffef7ff 			; <UNDEFINED> instruction: 0xfffef7ff
     c54:	f0422800 			; <UNDEFINED> instruction: 0xf0422800
     c58:	f8df852a 			; <UNDEFINED> instruction: 0xf8df852a
     c5c:	9a133bf4 	bls	0x4cfc34
     c60:	1d96447b 	cfldrsne	mvf4, [r6, #492]	; 0x1ec
     c64:	2b03681b 	blcs	0xdacd8
     c68:	87e1f301 	strbhi	pc, [r1, r1, lsl #6]!	; <UNPREDICTABLE>
     c6c:	9b0a9d0b 	blls	0x2a80a0
     c70:	b014f8dd 			; <UNDEFINED> instruction: 0xb014f8dd
     c74:	f404fb05 			; <UNDEFINED> instruction: 0xf404fb05
     c78:	405c4659 	subsmi	r4, ip, r9, asr r6
     c7c:	44f4ea4f 	ldrbtmi	lr, [r4], #2639	; 0xa4f
     c80:	f7ff4620 			; <UNDEFINED> instruction: 0xf7ff4620
     c84:	9b0afffe 	blls	0x2c0c84
     c88:	f404fb05 			; <UNDEFINED> instruction: 0xf404fb05
     c8c:	0b01ebab 	bleq	0x7bb40
     c90:	46494650 			; <UNDEFINED> instruction: 0x46494650
     c94:	ee18405c 	mrc	0, 0, r4, cr8, cr12, {2}
     c98:	ea4f3a90 	b	0x13cf6e0
     c9c:	f00444f4 			; <UNDEFINED> instruction: 0xf00444f4
     ca0:	f8130201 			; <UNDEFINED> instruction: 0xf8130201
     ca4:	9b12500b 	blls	0x494cd8
     ca8:	f0859700 			; <UNDEFINED> instruction: 0xf0859700
     cac:	441a055a 	ldrmi	r0, [sl], #-1370	; 0xfffffaa6
     cb0:	500bf809 	andpl	pc, fp, r9, lsl #16
     cb4:	e9cd2300 	stmib	sp, {r8, r9, sp}^
     cb8:	465b3301 	ldrbmi	r3, [fp], -r1, lsl #6
     cbc:	fffef7ff 			; <UNDEFINED> instruction: 0xfffef7ff
     cc0:	f2c22800 	vmlal.s8	q9, d2, d0
     cc4:	458384d8 	strmi	r8, [r3, #1240]	; 0x4d8
     cc8:	872bf042 	strhi	pc, [fp, -r2, asr #32]!
     ccc:	300bf819 	andcc	pc, fp, r9, lsl r8	; <UNPREDICTABLE>
     cd0:	f04242ab 			; <UNDEFINED> instruction: 0xf04242ab
     cd4:	ee188709 	cdp	7, 1, cr8, cr8, cr9, {0}
     cd8:	465a0a90 			; <UNDEFINED> instruction: 0x465a0a90
     cdc:	f7ff4649 			; <UNDEFINED> instruction: 0xf7ff4649
     ce0:	2800fffe 	stmdacs	r0, {r1, r2, r3, r4, r5, r6, r7, r8, r9, sl, fp, ip, sp, lr, pc}
     ce4:	8078f044 	rsbshi	pc, r8, r4, asr #32
     ce8:	3b68f8df 	blcc	0x1a3f06c
     cec:	447b9a13 	ldrbtmi	r9, [fp], #-2579	; 0xfffff5ed
     cf0:	681b1dd6 	ldmdavs	fp, {r1, r2, r4, r6, r7, r8, sl, fp, ip}
     cf4:	f3012b03 	vqrdmulh.s<illegal width 8>	d2, d1, d3
     cf8:	9d0b8780 	stcls	7, cr8, [fp, #-512]	; 0xfffffe00
     cfc:	f8dd9b0a 			; <UNDEFINED> instruction: 0xf8dd9b0a
     d00:	fb05b014 	blx	0x16cd5a
     d04:	4659f404 	ldrbmi	pc, [r9], -r4, lsl #8	; <UNPREDICTABLE>
     d08:	ea4f405c 	b	0x13d0e80
     d0c:	462044f4 			; <UNDEFINED> instruction: 0x462044f4
     d10:	fffef7ff 			; <UNDEFINED> instruction: 0xfffef7ff
     d14:	fb059b0a 	blx	0x167946
     d18:	ebabf404 	bl	0xfeafdd30
     d1c:	46500b01 	ldrbmi	r0, [r0], -r1, lsl #22
     d20:	405c4649 	subsmi	r4, ip, r9, asr #12
     d24:	3a90ee18 	bcc	0xfe43c58c
     d28:	44f4ea4f 	ldrbtmi	lr, [r4], #2639	; 0xa4f
     d2c:	0201f004 	andeq	pc, r1, #4
     d30:	500bf813 	andpl	pc, fp, r3, lsl r8	; <UNPREDICTABLE>
     d34:	e9cd9b06 	stmib	sp, {r1, r2, r8, r9, fp, ip, pc}^
     d38:	f0859301 			; <UNDEFINED> instruction: 0xf0859301
     d3c:	9b12055a 	blls	0x4822ac
     d40:	441a9700 	ldrmi	r9, [sl], #-1792	; 0xfffff900
     d44:	500bf809 	andpl	pc, fp, r9, lsl #16
     d48:	f7ff465b 			; <UNDEFINED> instruction: 0xf7ff465b
     d4c:	2800fffe 	stmdacs	r0, {r1, r2, r3, r4, r5, r6, r7, r8, r9, sl, fp, ip, sp, lr, pc}
     d50:	8026f2c4 	eorhi	pc, r6, r4, asr #5
     d54:	f0444583 			; <UNDEFINED> instruction: 0xf0444583
     d58:	f8198005 			; <UNDEFINED> instruction: 0xf8198005
     d5c:	42ab300b 	adcmi	r3, fp, #11
     d60:	87e3f043 	strbhi	pc, [r3, r3, asr #32]!	; <UNPREDICTABLE>
     d64:	0a90ee18 	beq	0xfe43c5cc
     d68:	4649465a 			; <UNDEFINED> instruction: 0x4649465a
     d6c:	fffef7ff 			; <UNDEFINED> instruction: 0xfffef7ff
     d70:	f0432800 			; <UNDEFINED> instruction: 0xf0432800
     d74:	9b1387c0 	blls	0x4e2c7c
     d78:	93093308 	movwls	r3, #37640	; 0x9308
     d7c:	3ad8f8df 	bcc	0xff63f100
     d80:	681b447b 	ldmdavs	fp, {r0, r1, r3, r4, r5, r6, sl, lr}
     d84:	f3022b03 	vqrdmulh.s<illegal width 8>	d2, d2, d3
     d88:	9d0b80bb 	stcls	0, cr8, [fp, #-748]	; 0xfffffd14
     d8c:	f8dd9e0a 			; <UNDEFINED> instruction: 0xf8dd9e0a
     d90:	fb05b014 	blx	0x16cdea
     d94:	4659f404 	ldrbmi	pc, [r9], -r4, lsl #8	; <UNPREDICTABLE>
     d98:	ea4f4074 	b	0x13d0f70
     d9c:	462044f4 			; <UNDEFINED> instruction: 0x462044f4
     da0:	fffef7ff 			; <UNDEFINED> instruction: 0xfffef7ff
     da4:	3a90ee18 	bcc	0xfe43c60c
     da8:	0b01ebab 	bleq	0x7bc5c
     dac:	f404fb05 			; <UNDEFINED> instruction: 0xf404fb05
     db0:	46504649 	ldrbmi	r4, [r0], -r9, asr #12
     db4:	f8134074 			; <UNDEFINED> instruction: 0xf8134074
     db8:	9b06500b 	blls	0x194dec
     dbc:	44f4ea4f 	ldrbtmi	lr, [r4], #2639	; 0xa4f
     dc0:	f0049302 			; <UNDEFINED> instruction: 0xf0049302
     dc4:	9b150201 	blls	0x5415d0
     dc8:	055af085 	ldrbeq	pc, [sl, #-133]	; 0xffffff7b	; <UNPREDICTABLE>
     dcc:	7300e9cd 	movwvc	lr, #2509	; 0x9cd
     dd0:	f8099b12 			; <UNDEFINED> instruction: 0xf8099b12
     dd4:	441a500b 	ldrmi	r5, [sl], #-11
     dd8:	f7ff465b 			; <UNDEFINED> instruction: 0xf7ff465b
     ddc:	2800fffe 	stmdacs	r0, {r1, r2, r3, r4, r5, r6, r7, r8, r9, sl, fp, ip, sp, lr, pc}
     de0:	876df2c3 	strbhi	pc, [sp, -r3, asr #5]!	; <UNPREDICTABLE>
     de4:	f0434583 			; <UNDEFINED> instruction: 0xf0434583
     de8:	f819874c 			; <UNDEFINED> instruction: 0xf819874c
     dec:	42ab300b 	adcmi	r3, fp, #11
     df0:	872af043 	strhi	pc, [sl, -r3, asr #32]!
     df4:	0a90ee18 	beq	0xfe43c65c
     df8:	4649465a 			; <UNDEFINED> instruction: 0x4649465a
     dfc:	fffef7ff 			; <UNDEFINED> instruction: 0xfffef7ff
     e00:	f0432800 			; <UNDEFINED> instruction: 0xf0432800
     e04:	f8df8707 			; <UNDEFINED> instruction: 0xf8df8707
     e08:	9a093a54 	bls	0x24f760
     e0c:	1c56447b 	cfldrdne	mvd4, [r6], {123}	; 0x7b
     e10:	2b03681b 	blcs	0xdae84
     e14:	82f4f301 	rscshi	pc, r4, #67108864	; 0x4000000
     e18:	ee189b11 	vmov.32	r9, d8[0]
     e1c:	463a0a90 			; <UNDEFINED> instruction: 0x463a0a90
     e20:	f7ff4651 			; <UNDEFINED> instruction: 0xf7ff4651
     e24:	2800fffe 	stmdacs	r0, {r1, r2, r3, r4, r5, r6, r7, r8, r9, sl, fp, ip, sp, lr, pc}
     e28:	86daf003 	ldrbhi	pc, [sl], r3	; <UNPREDICTABLE>
     e2c:	3a30f8df 	bcc	0xc3f1b0
     e30:	447b9a09 	ldrbtmi	r9, [fp], #-2569	; 0xfffff5f7
     e34:	681b1c95 	ldmdavs	fp, {r0, r2, r4, r7, sl, fp, ip}
     e38:	f3012b03 	vqrdmulh.s<illegal width 8>	d2, d1, d3
     e3c:	9b118359 	blls	0x461ba8
     e40:	93002601 	movwls	r2, #1537	; 0x601
     e44:	1a90ee18 	bne	0xfe43c6ac
     e48:	0a10ee1b 	beq	0x43c6bc
     e4c:	4652463b 			; <UNDEFINED> instruction: 0x4652463b
     e50:	f7ff9601 			; <UNDEFINED> instruction: 0xf7ff9601
     e54:	2800fffe 	stmdacs	r0, {r1, r2, r3, r4, r5, r6, r7, r8, r9, sl, fp, ip, sp, lr, pc}
     e58:	86a8f003 	strthi	pc, [r8], r3
     e5c:	3a04f8df 	bcc	0x13f1e0
     e60:	447b9a09 	ldrbtmi	r9, [fp], #-2569	; 0xfffff5f7
     e64:	681b1cd5 	ldmdavs	fp, {r0, r2, r4, r6, r7, sl, fp, ip}
     e68:	f3012b03 	vqrdmulh.s<illegal width 8>	d2, d1, d3
     e6c:	9b0c8323 	blls	0x321b00
     e70:	0a90ee18 	beq	0xfe43c6d8
     e74:	463a9300 	ldrtmi	r9, [sl], -r0, lsl #6
     e78:	46519b14 			; <UNDEFINED> instruction: 0x46519b14
     e7c:	fffef7ff 			; <UNDEFINED> instruction: 0xfffef7ff
     e80:	f0032800 			; <UNDEFINED> instruction: 0xf0032800
     e84:	f8df8679 			; <UNDEFINED> instruction: 0xf8df8679
     e88:	9a0939e0 	bls	0x24f610
     e8c:	1d16447b 	cfldrsne	mvf4, [r6, #-492]	; 0xfffffe14
     e90:	2b03681b 	blcs	0xdaf04
     e94:	82f0f301 	rscshi	pc, r0, #67108864	; 0x4000000
     e98:	ee189b0c 	vnmls.f64	d9, d8, d12
     e9c:	93011a90 	movwls	r1, #6800	; 0x1a90
     ea0:	0a90ee1b 	beq	0xfe43c714
     ea4:	46529b14 			; <UNDEFINED> instruction: 0x46529b14
     ea8:	463b9300 	ldrtmi	r9, [fp], -r0, lsl #6
     eac:	fffef7ff 			; <UNDEFINED> instruction: 0xfffef7ff
     eb0:	f0022800 			; <UNDEFINED> instruction: 0xf0022800
     eb4:	f8df868a 			; <UNDEFINED> instruction: 0xf8df868a
     eb8:	9a0939b4 	bls	0x24f590
     ebc:	1d56447b 	cfldrdne	mvd4, [r6, #-492]	; 0xfffffe14
     ec0:	2b03681b 	blcs	0xdaf34
     ec4:	82baf301 	adcshi	pc, sl, #67108864	; 0x4000000
     ec8:	f2449b0b 	vqdmulh.s<illegal width 8>	d25, d4, d11
     ecc:	f2c01505 	vabal.s8	<illegal reg q8.5>, d0, d5
     ed0:	ee184510 	cfmvr64l	r4, mvdx8
     ed4:	463a0a90 			; <UNDEFINED> instruction: 0x463a0a90
     ed8:	fb034651 	blx	0xd2826
     edc:	9b0af404 	blls	0x2bdef4
     ee0:	ea4f405c 	b	0x13d1058
     ee4:	fba544f4 	blx	0xfe9522be
     ee8:	1b633504 	blne	0x18ce300
     eec:	0553eb05 	ldrbeq	lr, [r3, #-2821]	; 0xfffff4fb
     ef0:	096d9b11 	stmdbeq	sp!, {r0, r4, r8, r9, fp, ip, pc}^
     ef4:	1585ebc5 	strne	lr, [r5, #3013]	; 0xbc5
     ef8:	35011b65 	strcc	r1, [r1, #-2917]	; 0xfffff49b
     efc:	bfd842ab 	svclt	0x00d842ab
     f00:	2d004645 	stccs	6, cr4, [r0, #-276]	; 0xfffffeec
     f04:	3501bf08 	strcc	fp, [r1, #-3848]	; 0xfffff0f8
     f08:	0805eba3 	stmdaeq	r5, {r0, r1, r5, r7, r8, r9, fp, sp, lr, pc}
     f0c:	f80a2300 			; <UNDEFINED> instruction: 0xf80a2300
     f10:	46433008 	strbmi	r3, [r3], -r8
     f14:	fffef7ff 			; <UNDEFINED> instruction: 0xfffef7ff
     f18:	f0422800 			; <UNDEFINED> instruction: 0xf0422800
     f1c:	f81a863b 			; <UNDEFINED> instruction: 0xf81a863b
     f20:	2b003008 	blcs	0xcf48
     f24:	861bf042 	ldrhi	pc, [fp], -r2, asr #32
     f28:	3944f8df 	stmdbcc	r4, {r0, r1, r2, r3, r4, r6, r7, fp, ip, sp, lr, pc}^
     f2c:	447b9a09 	ldrbtmi	r9, [fp], #-2569	; 0xfffff5f7
     f30:	681b1d96 	ldmdavs	fp, {r1, r2, r4, r7, r8, sl, fp, ip}
     f34:	f3012b03 	vqrdmulh.s<illegal width 8>	d2, d1, d3
     f38:	9b0b835d 	blls	0x2e1cb4
     f3c:	1505f244 	strne	pc, [r5, #-580]	; 0xfffffdbc
     f40:	4510f2c0 	ldrmi	pc, [r0, #-704]	; 0xfffffd40
     f44:	0c00f04f 	stceq	0, cr15, [r0], {79}	; 0x4f
     f48:	0a90ee18 	beq	0xfe43c7b0
     f4c:	4651463a 			; <UNDEFINED> instruction: 0x4651463a
     f50:	f804fb03 			; <UNDEFINED> instruction: 0xf804fb03
     f54:	ea889b0a 	b	0xfe227b84
     f58:	ea4f0803 	b	0x13c2f6c
     f5c:	fba548f8 	blx	0xfe953346
     f60:	eba83508 	bl	0xfea0e388
     f64:	eb050305 	bl	0x141b80
     f68:	9b140553 	blls	0x5024bc
     f6c:	ebc5096d 	bl	0xff143528
     f70:	eba81585 	bl	0xfea0658c
     f74:	35010505 	strcc	r0, [r1, #-1285]	; 0xfffffafb
     f78:	bfd842ab 	svclt	0x00d842ab
     f7c:	35fff103 	ldrbcc	pc, [pc, #259]!	; 0x1087	; <UNPREDICTABLE>
     f80:	93009b0c 	movwls	r9, #2828	; 0xb0c
     f84:	bf082d00 	svclt	0x00082d00
     f88:	9b143501 	blls	0x50e394
     f8c:	46231b5c 			; <UNDEFINED> instruction: 0x46231b5c
     f90:	c004f80a 	andgt	pc, r4, sl, lsl #16
     f94:	fffef7ff 			; <UNDEFINED> instruction: 0xfffef7ff
     f98:	f0442800 			; <UNDEFINED> instruction: 0xf0442800
     f9c:	f81a82ba 			; <UNDEFINED> instruction: 0xf81a82ba
     fa0:	2b003004 	blcs	0xcfb8
     fa4:	829df044 	addshi	pc, sp, #68	; 0x44
     fa8:	38c8f8df 	stmiacc	r8, {r0, r1, r2, r3, r4, r6, r7, fp, ip, sp, lr, pc}^
     fac:	447b9a09 	ldrbtmi	r9, [fp], #-2569	; 0xfffff5f7
     fb0:	0b07f102 	bleq	0x1fd3c0
     fb4:	2b03681b 	blcs	0xdb028
     fb8:	82fdf301 	rscshi	pc, sp, #67108864	; 0x4000000
     fbc:	4481f50d 	strmi	pc, [r1], #1293	; 0x50d
     fc0:	0120f244 	msreq	R8_usr, r4
     fc4:	2601343c 			; <UNDEFINED> instruction: 0x2601343c
     fc8:	f7ff4620 			; <UNDEFINED> instruction: 0xf7ff4620
     fcc:	9d0dfffe 	stcls	15, cr15, [sp, #-1016]	; 0xfffffc08
     fd0:	46529b06 	ldrbmi	r9, [r2], -r6, lsl #22
     fd4:	46209915 			; <UNDEFINED> instruction: 0x46209915
     fd8:	96019500 	strls	r9, [r1], -r0, lsl #10
     fdc:	fffef7ff 			; <UNDEFINED> instruction: 0xfffef7ff
     fe0:	5600e9cd 	strpl	lr, [r0], -sp, asr #19
     fe4:	1a90ee18 	bne	0xfe43c84c
     fe8:	4652463b 			; <UNDEFINED> instruction: 0x4652463b
     fec:	f7ff4620 			; <UNDEFINED> instruction: 0xf7ff4620
     ff0:	4605fffe 			; <UNDEFINED> instruction: 0x4605fffe
     ff4:	f0042800 			; <UNDEFINED> instruction: 0xf0042800
     ff8:	f8df825d 			; <UNDEFINED> instruction: 0xf8df825d
     ffc:	9a09387c 	bls	0x24f1f4
    1000:	f102447b 			; <UNDEFINED> instruction: 0xf102447b
    1004:	681b0b08 	ldmdavs	fp, {r3, r8, r9, fp}
    1008:	f3012b03 	vqrdmulh.s<illegal width 8>	d2, d1, d3
    100c:	9b0682b6 	blls	0x1a1aec
    1010:	f0412b00 			; <UNDEFINED> instruction: 0xf0412b00
    1014:	9b0682a9 	blls	0x1a1ac0
    1018:	9300463a 	movwls	r4, #1594	; 0x63a
    101c:	eb094650 	bl	0x252964
    1020:	464b0603 	strbmi	r0, [fp], -r3, lsl #12
    1024:	f7ff4631 			; <UNDEFINED> instruction: 0xf7ff4631
    1028:	4285fffe 	addmi	pc, r5, #1016	; 0x3f8
    102c:	805ff044 	subshi	pc, pc, r4, asr #32
    1030:	22009905 	andcs	r9, r0, #81920	; 0x14000
    1034:	f7ff4630 			; <UNDEFINED> instruction: 0xf7ff4630
    1038:	9b10fffe 	blls	0x441038
    103c:	f0444283 			; <UNDEFINED> instruction: 0xf0444283
    1040:	f8df8039 			; <UNDEFINED> instruction: 0xf8df8039
    1044:	9a093838 	bls	0x24f12c
    1048:	f102447b 			; <UNDEFINED> instruction: 0xf102447b
    104c:	681b0b09 	ldmdavs	fp, {r0, r3, r8, r9, fp}
    1050:	f3012b03 	vqrdmulh.s<illegal width 8>	d2, d1, d3
    1054:	9b06826b 	blls	0x1a1a08
    1058:	e9cd462a 	stmib	sp, {r1, r3, r5, r9, sl, lr}^
    105c:	46319300 	ldrtmi	r9, [r1], -r0, lsl #6
    1060:	4650463b 			; <UNDEFINED> instruction: 0x4650463b
    1064:	fffef7ff 			; <UNDEFINED> instruction: 0xfffef7ff
    1068:	f0444287 			; <UNDEFINED> instruction: 0xf0444287
    106c:	9905800a 	stmdbls	r5, {r1, r3, pc}
    1070:	22004630 	andcs	r4, r0, #48, 12	; 0x3000000
    1074:	fffef7ff 			; <UNDEFINED> instruction: 0xfffef7ff
    1078:	42839b10 	addmi	r9, r3, #16, 22	; 0x4000
    107c:	87e7f043 	strbhi	pc, [r7, r3, asr #32]!	; <UNPREDICTABLE>
    1080:	37fcf8df 	ubfxcc	pc, pc, #17, #29
    1084:	447b9a09 	ldrbtmi	r9, [fp], #-2569	; 0xfffff5f7
    1088:	0b0af102 	bleq	0x2bd498
    108c:	2b03681b 	blcs	0xdb100
    1090:	82cef301 	sbchi	pc, lr, #67108864	; 0x4000000
    1094:	ee199b0b 	vnmls.f64	d9, d9, d11
    1098:	99150a10 	ldmdbls	r5, {r4, r9, fp}
    109c:	9a062601 	bls	0x18a8a8
    10a0:	f808fb03 			; <UNDEFINED> instruction: 0xf808fb03
    10a4:	ea889b0a 	b	0xfe227cd4
    10a8:	ea4f0803 	b	0x13c30bc
    10ac:	931643f8 	tstls	r6, #248, 6	; 0xe0000003
    10b0:	030ff003 	movweq	pc, #61443	; 0xf003	; <UNPREDICTABLE>
    10b4:	441943db 	ldrmi	r4, [r9], #-987	; 0xfffffc25
    10b8:	990e460b 	stmdbls	lr, {r0, r1, r3, r9, sl, lr}
    10bc:	bf38428b 	svclt	0x0038428b
    10c0:	ee08460b 	cfmadd32	mvax0, mvfx4, mvfx8, mvfx11
    10c4:	46193a10 			; <UNDEFINED> instruction: 0x46193a10
    10c8:	fffef7ff 			; <UNDEFINED> instruction: 0xfffef7ff
    10cc:	93009b0d 	movwls	r9, #2829	; 0xb0d
    10d0:	1a90ee18 	bne	0xfe43c938
    10d4:	0a10ee19 	beq	0x43c940
    10d8:	4652463b 			; <UNDEFINED> instruction: 0x4652463b
    10dc:	f7ff9601 			; <UNDEFINED> instruction: 0xf7ff9601
    10e0:	9013fffe 			; <UNDEFINED> instruction: 0x9013fffe
    10e4:	f0032800 			; <UNDEFINED> instruction: 0xf0032800
    10e8:	f8df8798 			; <UNDEFINED> instruction: 0xf8df8798
    10ec:	9a093798 	bls	0x24ef54
    10f0:	f102447b 			; <UNDEFINED> instruction: 0xf102447b
    10f4:	681b080b 	ldmdavs	fp, {r0, r1, r3, fp}
    10f8:	f3012b03 	vqrdmulh.s<illegal width 8>	d2, d1, d3
    10fc:	9a0682e9 	bls	0x1a1ca8
    1100:	1a10ee18 	bne	0x43c968
    1104:	0a10ee19 	beq	0x43c970
    1108:	fffef7ff 			; <UNDEFINED> instruction: 0xfffef7ff
    110c:	2b009b13 	blcs	0x27d60
    1110:	8776f343 	ldrbhi	pc, [r6, -r3, asr #6]!	; <UNPREDICTABLE>
    1114:	ee183b01 	vnmls.f64	d3, d8, d1
    1118:	93001a90 	movwls	r1, #2704	; 0xa90
    111c:	0a10ee19 	beq	0x43c988
    1120:	0b01f04f 	bleq	0x7d264
    1124:	4652463b 			; <UNDEFINED> instruction: 0x4652463b
    1128:	b004f8cd 	andlt	pc, r4, sp, asr #17
    112c:	fffef7ff 			; <UNDEFINED> instruction: 0xfffef7ff
    1130:	f3032800 	vsub.i8	d2, d3, d0
    1134:	f8df8746 			; <UNDEFINED> instruction: 0xf8df8746
    1138:	9b096750 	blls	0x25ae80
    113c:	f103447e 			; <UNDEFINED> instruction: 0xf103447e
    1140:	6833080c 	ldmdavs	r3!, {r2, r3, fp}
    1144:	f3012b03 	vqrdmulh.s<illegal width 8>	d2, d1, d3
    1148:	9a068291 	bls	0x1a1b94
    114c:	1a10ee18 	bne	0x43c9b4
    1150:	0a10ee19 	beq	0x43c9bc
    1154:	0b01f04f 	bleq	0x7d298
    1158:	fffef7ff 			; <UNDEFINED> instruction: 0xfffef7ff
    115c:	ee189e13 	mrc	14, 0, r9, cr8, cr3, {0}
    1160:	ee191a90 	vmov	r1, s19
    1164:	463b0a10 			; <UNDEFINED> instruction: 0x463b0a10
    1168:	96004652 			; <UNDEFINED> instruction: 0x96004652
    116c:	b004f8cd 	andlt	pc, r4, sp, asr #17
    1170:	fffef7ff 			; <UNDEFINED> instruction: 0xfffef7ff
    1174:	f0434286 			; <UNDEFINED> instruction: 0xf0434286
    1178:	f8df8705 			; <UNDEFINED> instruction: 0xf8df8705
    117c:	9b096710 	blls	0x25adc4
    1180:	f103447e 			; <UNDEFINED> instruction: 0xf103447e
    1184:	6833080d 	ldmdavs	r3!, {r0, r2, r3, fp}
    1188:	f3012b03 	vqrdmulh.s<illegal width 8>	d2, d1, d3
    118c:	9d0882bf 	sfmls	f0, 1, [r8, #-764]	; 0xfffffd04
    1190:	9b06463a 	blls	0x192a80
    1194:	93004649 	movwls	r4, #1609	; 0x649
    1198:	ee184650 	mrc	6, 0, r4, cr8, cr0, {2}
    119c:	26003a10 			; <UNDEFINED> instruction: 0x26003a10
    11a0:	f7ff702e 			; <UNDEFINED> instruction: 0xf7ff702e
    11a4:	9b13fffe 	blls	0x5011a4
    11a8:	f0434283 			; <UNDEFINED> instruction: 0xf0434283
    11ac:	9b0886d1 	blls	0x222cf8
    11b0:	2a00781a 	bcs	0x1f220
    11b4:	86b2f043 	ldrthi	pc, [r2], r3, asr #32	; <UNPREDICTABLE>
    11b8:	46489905 	strbmi	r9, [r8], -r5, lsl #18
    11bc:	fffef7ff 			; <UNDEFINED> instruction: 0xfffef7ff
    11c0:	42839b10 	addmi	r9, r3, #16, 22	; 0x4000
    11c4:	868af043 	strhi	pc, [sl], r3, asr #32
    11c8:	36c4f8df 			; <UNDEFINED> instruction: 0x36c4f8df
    11cc:	447b9a09 	ldrbtmi	r9, [fp], #-2569	; 0xfffff5f7
    11d0:	9211320e 	andsls	r3, r1, #-536870912	; 0xe0000000
    11d4:	2b03681b 	blcs	0xdb248
    11d8:	82e6f301 	rschi	pc, r6, #67108864	; 0x4000000
    11dc:	46499d08 	strbmi	r9, [r9], -r8, lsl #26
    11e0:	46509b06 	ldrbmi	r9, [r0], -r6, lsl #22
    11e4:	26009301 	strcs	r9, [r0], -r1, lsl #6
    11e8:	8a00ed8d 	bhi	0x3c824
    11ec:	9a13463b 	bls	0x4d2ae0
    11f0:	f7ff702e 			; <UNDEFINED> instruction: 0xf7ff702e
    11f4:	4287fffe 	addmi	pc, r7, #1016	; 0x3f8
    11f8:	8656f043 	ldrbhi	pc, [r6], -r3, asr #32	; <UNPREDICTABLE>
    11fc:	781a9b08 	ldmdavc	sl, {r3, r8, r9, fp, ip, pc}
    1200:	f0432a00 			; <UNDEFINED> instruction: 0xf0432a00
    1204:	99058637 	stmdbls	r5, {r0, r1, r2, r4, r5, r9, sl, pc}
    1208:	f7ff4648 			; <UNDEFINED> instruction: 0xf7ff4648
    120c:	9b10fffe 	blls	0x44120c
    1210:	f0434283 			; <UNDEFINED> instruction: 0xf0434283
    1214:	f8df8615 			; <UNDEFINED> instruction: 0xf8df8615
    1218:	447b367c 	ldrbtmi	r3, [fp], #-1660	; 0xfffff984
    121c:	2f00681a 	svccs	0x0000681a
    1220:	8542f000 	strbhi	pc, [r2, #-0]	; <UNPREDICTABLE>
    1224:	2a039b09 	bcs	0xe7e50
    1228:	0b0ff103 	bleq	0x3fd63c
    122c:	86a1f301 	strthi	pc, [r1], r1, lsl #6
    1230:	f1079b06 			; <UNDEFINED> instruction: 0xf1079b06
    1234:	930038ff 	movwls	r3, #2303	; 0x8ff
    1238:	0c00f04f 	stceq	0, cr15, [r0], {79}	; 0x4f
    123c:	46429b05 	strbmi	r9, [r2], -r5, lsl #22
    1240:	46504649 	ldrbmi	r4, [r0], -r9, asr #12
    1244:	ee181e5e 	mrc	14, 0, r1, cr8, cr14, {2}
    1248:	f8093a10 			; <UNDEFINED> instruction: 0xf8093a10
    124c:	f7ffc006 			; <UNDEFINED> instruction: 0xf7ffc006
    1250:	2800fffe 	stmdacs	r0, {r1, r2, r3, r4, r5, r6, r7, r8, r9, sl, fp, ip, sp, lr, pc}
    1254:	85daf283 	ldrbhi	pc, [sl, #643]	; 0x283	; <UNPREDICTABLE>
    1258:	3006f819 	andcc	pc, r6, r9, lsl r8	; <UNPREDICTABLE>
    125c:	f0432b00 			; <UNDEFINED> instruction: 0xf0432b00
    1260:	f8df810e 			; <UNDEFINED> instruction: 0xf8df810e
    1264:	9a093634 	bls	0x24eb3c
    1268:	3210447b 	andscc	r4, r0, #2063597568	; 0x7b000000
    126c:	681b9211 	ldmdavs	fp, {r0, r4, r9, ip, pc}
    1270:	f3012b03 	vqrdmulh.s<illegal width 8>	d2, d1, d3
    1274:	9a068663 	bls	0x1a2c08
    1278:	0c00f04f 	stceq	0, cr15, [r0], {79}	; 0x4f
    127c:	46439201 	strbmi	r9, [r3], -r1, lsl #4
    1280:	8a00ed8d 	bhi	0x3c8bc
    1284:	9a134649 	bls	0x4d2bb0
    1288:	f8094650 			; <UNDEFINED> instruction: 0xf8094650
    128c:	f7ffc006 			; <UNDEFINED> instruction: 0xf7ffc006
    1290:	2800fffe 	stmdacs	r0, {r1, r2, r3, r4, r5, r6, r7, r8, r9, sl, fp, ip, sp, lr, pc}
    1294:	80d9f283 	sbcshi	pc, r9, r3, lsl #5
    1298:	3006f819 	andcc	pc, r6, r9, lsl r8	; <UNPREDICTABLE>
    129c:	f0432b00 			; <UNDEFINED> instruction: 0xf0432b00
    12a0:	9a0b80ba 	bls	0x2e1590
    12a4:	fb029b16 	blx	0xa7f06
    12a8:	9a09f303 	bls	0x27debc
    12ac:	0b11f102 	bleq	0x47d6bc
    12b0:	40539a0a 	subsmi	r9, r3, sl, lsl #20
    12b4:	42f3ea4f 	rscsmi	lr, r3, #323584	; 0x4f000
    12b8:	35e0f8df 	strbcc	pc, [r0, #2271]!	; 0x8df	; <UNPREDICTABLE>
    12bc:	060ff002 	streq	pc, [pc], -r2
    12c0:	447b9215 	ldrbtmi	r9, [fp], #-533	; 0xfffffdeb
    12c4:	681b3602 	ldmdavs	fp, {r1, r9, sl, ip, sp}
    12c8:	f3012b03 	vqrdmulh.s<illegal width 8>	d2, d1, d3
    12cc:	42b7824f 	adcsmi	r8, r7, #-268435452	; 0xf0000004
    12d0:	84fef340 	ldrbthi	pc, [lr], #832	; 0x340	; <UNPREDICTABLE>
    12d4:	9b061bbd 	blls	0x1881d0
    12d8:	f04f9301 			; <UNDEFINED> instruction: 0xf04f9301
    12dc:	ed8d0c00 	stc	12, cr0, [sp]
    12e0:	462b8a00 	strtmi	r8, [fp], -r0, lsl #20
    12e4:	46499a13 			; <UNDEFINED> instruction: 0x46499a13
    12e8:	f8094650 			; <UNDEFINED> instruction: 0xf8094650
    12ec:	f7ffc005 			; <UNDEFINED> instruction: 0xf7ffc005
    12f0:	2800fffe 	stmdacs	r0, {r1, r2, r3, r4, r5, r6, r7, r8, r9, sl, fp, ip, sp, lr, pc}
    12f4:	8074f283 	rsbshi	pc, r4, r3, lsl #5
    12f8:	3005f819 	andcc	pc, r5, r9, lsl r8	; <UNPREDICTABLE>
    12fc:	f0432b00 			; <UNDEFINED> instruction: 0xf0432b00
    1300:	f8df8053 			; <UNDEFINED> instruction: 0xf8df8053
    1304:	9a11359c 	bls	0x44e97c
    1308:	1c96447b 	cfldrsne	mvf4, [r6], {123}	; 0x7b
    130c:	2b03681b 	blcs	0xdb380
    1310:	f8dfdd1b 			; <UNDEFINED> instruction: 0xf8dfdd1b
    1314:	ee1a1590 	cfcmp32	r1, mvfx10, mvfx0
    1318:	46332a10 			; <UNDEFINED> instruction: 0x46332a10
    131c:	44792001 	ldrbtmi	r2, [r9], #-1
    1320:	fffef7ff 			; <UNDEFINED> instruction: 0xfffef7ff
    1324:	1580f8df 	strne	pc, [r0, #2271]	; 0x8df
    1328:	44792001 	ldrbtmi	r2, [r9], #-1
    132c:	fffef7ff 			; <UNDEFINED> instruction: 0xfffef7ff
    1330:	1578f8df 	ldrbne	pc, [r8, #-2271]!	; 0xfffff721	; <UNPREDICTABLE>
    1334:	44792001 	ldrbtmi	r2, [r9], #-1
    1338:	fffef7ff 			; <UNDEFINED> instruction: 0xfffef7ff
    133c:	3570f8df 	ldrbcc	pc, [r0, #-2271]!	; 0xfffff721	; <UNPREDICTABLE>
    1340:	58d39a07 	ldmpl	r3, {r0, r1, r2, r9, fp, ip, pc}^
    1344:	f7ff6818 			; <UNDEFINED> instruction: 0xf7ff6818
    1348:	9a06fffe 	bls	0x1c1348
    134c:	1a10ee18 	bne	0x43cbb4
    1350:	0a10ee19 	beq	0x43cbbc
    1354:	0801f04f 	stmdaeq	r1, {r0, r1, r2, r3, r6, ip, sp, lr, pc}
    1358:	fffef7ff 			; <UNDEFINED> instruction: 0xfffef7ff
    135c:	93009b0d 	movwls	r9, #2829	; 0xb0d
    1360:	1a90ee18 	bne	0xfe43cbc8
    1364:	0a10ee19 	beq	0x43cbd0
    1368:	4652463b 			; <UNDEFINED> instruction: 0x4652463b
    136c:	8004f8cd 	andhi	pc, r4, sp, asr #17
    1370:	fffef7ff 			; <UNDEFINED> instruction: 0xfffef7ff
    1374:	0b00f1b0 	bleq	0x3da3c
    1378:	87fcf342 	ldrbhi	pc, [ip, r2, asr #6]!	; <UNPREDICTABLE>
    137c:	46592200 	ldrbmi	r2, [r9], -r0, lsl #4
    1380:	f7ff4650 			; <UNDEFINED> instruction: 0xf7ff4650
    1384:	f8dffffe 			; <UNDEFINED> instruction: 0xf8dffffe
    1388:	9a11352c 	bls	0x44e840
    138c:	9009447b 	andls	r4, r9, fp, ror r4
    1390:	681b1cd5 	ldmdavs	fp, {r0, r2, r4, r6, r7, sl, fp, ip}
    1394:	f3012b03 	vqrdmulh.s<illegal width 8>	d2, d1, d3
    1398:	9a068222 	bls	0x1a1c28
    139c:	1a10ee18 	bne	0x43cc04
    13a0:	0a10ee19 	beq	0x43cc0c
    13a4:	fffef7ff 			; <UNDEFINED> instruction: 0xfffef7ff
    13a8:	0120f244 	msreq	R8_usr, r4
    13ac:	f7ff4620 			; <UNDEFINED> instruction: 0xf7ff4620
    13b0:	ee19fffe 	mrc	15, 0, APSR_nzcv, cr9, cr14, {7}
    13b4:	46201a10 			; <UNDEFINED> instruction: 0x46201a10
    13b8:	fffef7ff 			; <UNDEFINED> instruction: 0xfffef7ff
    13bc:	93009b0d 	movwls	r9, #2829	; 0xb0d
    13c0:	1a90ee18 	bne	0xfe43cc28
    13c4:	46522301 	ldrbmi	r2, [r2], -r1, lsl #6
    13c8:	46209301 	strtmi	r9, [r0], -r1, lsl #6
    13cc:	f7ff463b 			; <UNDEFINED> instruction: 0xf7ff463b
    13d0:	4606fffe 			; <UNDEFINED> instruction: 0x4606fffe
    13d4:	f0022800 			; <UNDEFINED> instruction: 0xf0022800
    13d8:	458387b3 	strmi	r8, [r3, #1971]	; 0x7b3
    13dc:	8794f042 	ldrhi	pc, [r4, r2, asr #32]
    13e0:	22004659 	andcs	r4, r0, #93323264	; 0x5900000
    13e4:	f7ff4650 			; <UNDEFINED> instruction: 0xf7ff4650
    13e8:	9b09fffe 	blls	0x2813e8
    13ec:	f0424298 			; <UNDEFINED> instruction: 0xf0424298
    13f0:	f8df8771 			; <UNDEFINED> instruction: 0xf8df8771
    13f4:	9a1134c4 	bls	0x44e70c
    13f8:	1d15447b 	cfldrsne	mvf4, [r5, #-492]	; 0xfffffe14
    13fc:	2b03681b 	blcs	0xdb470
    1400:	8226f301 	eorhi	pc, r6, #67108864	; 0x4000000
    1404:	f04f4620 			; <UNDEFINED> instruction: 0xf04f4620
    1408:	f7ff0b01 			; <UNDEFINED> instruction: 0xf7ff0b01
    140c:	ee19fffe 	mrc	15, 0, APSR_nzcv, cr9, cr14, {7}
    1410:	46201a10 			; <UNDEFINED> instruction: 0x46201a10
    1414:	fffef7ff 			; <UNDEFINED> instruction: 0xfffef7ff
    1418:	ee181e73 	mrc	14, 0, r1, cr8, cr3, {3}
    141c:	93001a90 	movwls	r1, #2704	; 0xa90
    1420:	463b4652 			; <UNDEFINED> instruction: 0x463b4652
    1424:	f8cd4620 			; <UNDEFINED> instruction: 0xf8cd4620
    1428:	f7ffb004 			; <UNDEFINED> instruction: 0xf7ffb004
    142c:	2800fffe 	stmdacs	r0, {r1, r2, r3, r4, r5, r6, r7, r8, r9, sl, fp, ip, sp, lr, pc}
    1430:	8733f302 	ldrhi	pc, [r3, -r2, lsl #6]!
    1434:	3484f8df 	strcc	pc, [r4], #2271	; 0x8df
    1438:	447b9a11 	ldrbtmi	r9, [fp], #-2577	; 0xfffff5ef
    143c:	681b1d55 	ldmdavs	fp, {r0, r2, r4, r6, r8, sl, fp, ip}
    1440:	f3012b03 	vqrdmulh.s<illegal width 8>	d2, d1, d3
    1444:	462081ea 	strtmi	r8, [r0], -sl, ror #3
    1448:	0b01f04f 	bleq	0x7d58c
    144c:	fffef7ff 			; <UNDEFINED> instruction: 0xfffef7ff
    1450:	1a10ee19 	bne	0x43ccbc
    1454:	f7ff4620 			; <UNDEFINED> instruction: 0xf7ff4620
    1458:	ee18fffe 	mrc	15, 0, APSR_nzcv, cr8, cr14, {7}
    145c:	463b1a90 			; <UNDEFINED> instruction: 0x463b1a90
    1460:	46204652 			; <UNDEFINED> instruction: 0x46204652
    1464:	f8cd9600 			; <UNDEFINED> instruction: 0xf8cd9600
    1468:	f7ffb004 			; <UNDEFINED> instruction: 0xf7ffb004
    146c:	4286fffe 	addmi	pc, r6, #1016	; 0x3f8
    1470:	8647f041 	strbhi	pc, [r7], -r1, asr #32	; <UNPREDICTABLE>
    1474:	46312200 	ldrtmi	r2, [r1], -r0, lsl #4
    1478:	f7ff4650 			; <UNDEFINED> instruction: 0xf7ff4650
    147c:	9b09fffe 	blls	0x28147c
    1480:	f0424298 			; <UNDEFINED> instruction: 0xf0424298
    1484:	f8df86f0 			; <UNDEFINED> instruction: 0xf8df86f0
    1488:	9a113438 	bls	0x44e570
    148c:	f102447b 			; <UNDEFINED> instruction: 0xf102447b
    1490:	681b0806 	ldmdavs	fp, {r1, r2, fp}
    1494:	f3012b03 	vqrdmulh.s<illegal width 8>	d2, d1, d3
    1498:	46208212 			; <UNDEFINED> instruction: 0x46208212
    149c:	0b01f04f 	bleq	0x7d5e0
    14a0:	fffef7ff 			; <UNDEFINED> instruction: 0xfffef7ff
    14a4:	1a10ee19 	bne	0x43cd10
    14a8:	f7ff4620 			; <UNDEFINED> instruction: 0xf7ff4620
    14ac:	ee18fffe 	mrc	15, 0, APSR_nzcv, cr8, cr14, {7}
    14b0:	46201a90 			; <UNDEFINED> instruction: 0x46201a90
    14b4:	4652463b 			; <UNDEFINED> instruction: 0x4652463b
    14b8:	f8cd9600 			; <UNDEFINED> instruction: 0xf8cd9600
    14bc:	f7ffb004 			; <UNDEFINED> instruction: 0xf7ffb004
    14c0:	4286fffe 	addmi	pc, r6, #1016	; 0x3f8
    14c4:	8600f041 	strhi	pc, [r0], -r1, asr #32
    14c8:	46312200 	ldrtmi	r2, [r1], -r0, lsl #4
    14cc:	f7ff4650 			; <UNDEFINED> instruction: 0xf7ff4650
    14d0:	9b09fffe 	blls	0x2814d0
    14d4:	f0424298 			; <UNDEFINED> instruction: 0xf0424298
    14d8:	4bfa8235 	blmi	0xffea1db4
    14dc:	447b9a11 	ldrbtmi	r9, [fp], #-2577	; 0xfffff5ef
    14e0:	0807f102 	stmdaeq	r7, {r1, r8, ip, sp, lr, pc}
    14e4:	2b03681b 	blcs	0xdb558
    14e8:	81cff301 	bichi	pc, pc, r1, lsl #6
    14ec:	463a9d08 	ldrtmi	r9, [sl], -r8, lsl #26
    14f0:	46499b06 	strbmi	r9, [r9], -r6, lsl #22
    14f4:	46509300 	ldrbmi	r9, [r0], -r0, lsl #6
    14f8:	3a10ee18 	bcc	0x43cd60
    14fc:	702c2400 	eorvc	r2, ip, r0, lsl #8
    1500:	fffef7ff 			; <UNDEFINED> instruction: 0xfffef7ff
    1504:	f0414286 			; <UNDEFINED> instruction: 0xf0414286
    1508:	9b0887fd 	blls	0x223504
    150c:	2a00781a 	bcs	0x1f57c
    1510:	841df042 	ldrhi	pc, [sp], #-66	; 0xffffffbe
    1514:	46489905 	strbmi	r9, [r8], -r5, lsl #18
    1518:	fffef7ff 			; <UNDEFINED> instruction: 0xfffef7ff
    151c:	42839b10 	addmi	r9, r3, #16, 22	; 0x4000
    1520:	83f5f042 	mvnshi	pc, #66	; 0x42
    1524:	9a114be8 	bls	0x4544cc
    1528:	f102447b 			; <UNDEFINED> instruction: 0xf102447b
    152c:	681b0b08 	ldmdavs	fp, {r3, r8, r9, fp}
    1530:	f3012b03 	vqrdmulh.s<illegal width 8>	d2, d1, d3
    1534:	9d0881de 	stflsd	f0, [r8, #-888]	; 0xfffffc88
    1538:	9b064632 	blls	0x192e08
    153c:	93014649 	movwls	r4, #5705	; 0x1649
    1540:	ed8d4650 	stc	6, cr4, [sp, #320]	; 0x140
    1544:	463b8a00 	ldrtmi	r8, [fp], -r0, lsl #20
    1548:	702c2400 	eorvc	r2, ip, r0, lsl #8
    154c:	fffef7ff 			; <UNDEFINED> instruction: 0xfffef7ff
    1550:	f0424287 			; <UNDEFINED> instruction: 0xf0424287
    1554:	9b0883c2 	blls	0x222464
    1558:	2a00781a 	bcs	0x1f5c8
    155c:	83a3f042 			; <UNDEFINED> instruction: 0x83a3f042
    1560:	46489905 	strbmi	r9, [r8], -r5, lsl #18
    1564:	fffef7ff 			; <UNDEFINED> instruction: 0xfffef7ff
    1568:	42839b10 	addmi	r9, r3, #16, 22	; 0x4000
    156c:	8655f041 	ldrbhi	pc, [r5], -r1, asr #32	; <UNPREDICTABLE>
    1570:	447b4bd6 	ldrbtmi	r4, [fp], #-3030	; 0xfffff42a
    1574:	2f00681b 	svccs	0x0000681b
    1578:	83aef000 			; <UNDEFINED> instruction: 0x83aef000
    157c:	2b039a11 	blcs	0xe7dc8
    1580:	0b09f102 	bleq	0x27d990
    1584:	8510f301 	ldrhi	pc, [r0, #-769]	; 0xfffffcff
    1588:	1e7d9b06 	vaddne.f64	d25, d13, d6
    158c:	f04f9300 			; <UNDEFINED> instruction: 0xf04f9300
    1590:	9b050c00 	blls	0x144598
    1594:	4649462a 	strbmi	r4, [r9], -sl, lsr #12
    1598:	1e5c4650 	mrcne	6, 2, r4, cr12, cr0, {2}
    159c:	3a10ee18 	bcc	0x43ce04
    15a0:	c004f809 	andgt	pc, r4, r9, lsl #16
    15a4:	fffef7ff 			; <UNDEFINED> instruction: 0xfffef7ff
    15a8:	f2812800 	vmlal.s8	q1, d1, d0
    15ac:	f819861c 			; <UNDEFINED> instruction: 0xf819861c
    15b0:	2b003004 	blcs	0xd5c8
    15b4:	85fdf041 	ldrbhi	pc, [sp, #65]!	; 0x41	; <UNPREDICTABLE>
    15b8:	9a114bc5 	bls	0x4544d4
    15bc:	f102447b 			; <UNDEFINED> instruction: 0xf102447b
    15c0:	681b0b0a 	ldmdavs	fp, {r1, r3, r8, r9, fp}
    15c4:	f3012b03 	vqrdmulh.s<illegal width 8>	d2, d1, d3
    15c8:	9a06850a 	bls	0x1a29f8
    15cc:	9201462b 	andls	r4, r1, #45088768	; 0x2b00000
    15d0:	ed8d2500 	cfstr32	mvfx2, [sp]
    15d4:	46328a00 	ldrtmi	r8, [r2], -r0, lsl #20
    15d8:	46504649 	ldrbmi	r4, [r0], -r9, asr #12
    15dc:	5004f809 	andpl	pc, r4, r9, lsl #16
    15e0:	fffef7ff 			; <UNDEFINED> instruction: 0xfffef7ff
    15e4:	f28142a8 	vsubl.s8	q2, d17, d24
    15e8:	f81985ca 			; <UNDEFINED> instruction: 0xf81985ca
    15ec:	2b003004 	blcs	0xd604
    15f0:	85abf041 	strhi	pc, [fp, #65]!	; 0x41
    15f4:	9c159b0b 			; <UNDEFINED> instruction: 0x9c159b0b
    15f8:	f404fb03 			; <UNDEFINED> instruction: 0xf404fb03
    15fc:	f1039b11 			; <UNDEFINED> instruction: 0xf1039b11
    1600:	9b0a080b 	blls	0x283634
    1604:	4bb3405c 	blmi	0xfecd177c
    1608:	ea4f447b 	b	0x13d27fc
    160c:	f00444f4 			; <UNDEFINED> instruction: 0xf00444f4
    1610:	3502050f 	strcc	r0, [r2, #-1295]	; 0xfffffaf1
    1614:	2b03681b 	blcs	0xdb688
    1618:	8185f301 	orrhi	pc, r5, r1, lsl #6
    161c:	bfa842bd 	svclt	0x00a842bd
    1620:	0602f10b 	streq	pc, [r2], -fp, lsl #2
    1624:	819df2c1 	orrshi	pc, sp, r1, asr #5
    1628:	ee189b0b 	vnmls.f64	d9, d8, d11
    162c:	990c2a10 	stmdbls	ip, {r4, r9, fp, sp}
    1630:	0a90ee1a 	beq	0xfe43cea0
    1634:	f404fb03 			; <UNDEFINED> instruction: 0xf404fb03
    1638:	405c9b0a 	subsmi	r9, ip, sl, lsl #22
    163c:	43f4ea4f 	mvnsmi	lr, #323584	; 0x4f000
    1640:	f0039309 			; <UNDEFINED> instruction: 0xf0039309
    1644:	ee1a0307 	cdp	3, 1, cr0, cr10, cr7, {0}
    1648:	1ad34a90 	bne	0xff4d4090
    164c:	429a9a0e 	addsmi	r9, sl, #57344	; 0xe000
    1650:	461abf38 	sasxmi	fp, sl, r8
    1654:	f7ff4690 			; <UNDEFINED> instruction: 0xf7ff4690
    1658:	9a06fffe 	bls	0x1c1658
    165c:	ee1a4641 	cfmsub32	mvax2, mvfx4, mvfx10, mvfx1
    1660:	f7ff0a90 			; <UNDEFINED> instruction: 0xf7ff0a90
    1664:	9b0dfffe 	blls	0x381664
    1668:	ee189300 	cdp	3, 1, cr9, cr8, cr0, {0}
    166c:	ee1a1a90 	vmov	r1, s21
    1670:	463b0a90 			; <UNDEFINED> instruction: 0x463b0a90
    1674:	f7ff4652 			; <UNDEFINED> instruction: 0xf7ff4652
    1678:	4605fffe 			; <UNDEFINED> instruction: 0x4605fffe
    167c:	f0022800 			; <UNDEFINED> instruction: 0xf0022800
    1680:	f504839e 			; <UNDEFINED> instruction: 0xf504839e
    1684:	f9942480 			; <UNDEFINED> instruction: 0xf9942480
    1688:	2b00301b 	blcs	0xd6fc
    168c:	8380f042 	orrhi	pc, r0, #66	; 0x42
    1690:	f10b4b91 			; <UNDEFINED> instruction: 0xf10b4b91
    1694:	447b0603 	ldrbtmi	r0, [fp], #-1539	; 0xfffff9fd
    1698:	2b03681b 	blcs	0xdb70c
    169c:	81b1f301 			; <UNDEFINED> instruction: 0x81b1f301
    16a0:	ee1a9a06 	vnmls.f32	s18, s20, s12
    16a4:	46410a90 			; <UNDEFINED> instruction: 0x46410a90
    16a8:	fffef7ff 			; <UNDEFINED> instruction: 0xfffef7ff
    16ac:	f3422d00 	vpadd.f32	d18, d2, d0
    16b0:	1e6b8365 	cdpne	3, 6, cr8, cr11, cr5, {3}
    16b4:	1a90ee18 	bne	0xfe43cf1c
    16b8:	ee1a9300 	cdp	3, 1, cr9, cr10, cr0, {0}
    16bc:	463b0a90 			; <UNDEFINED> instruction: 0x463b0a90
    16c0:	f7ff4652 			; <UNDEFINED> instruction: 0xf7ff4652
    16c4:	2800fffe 	stmdacs	r0, {r1, r2, r3, r4, r5, r6, r7, r8, r9, sl, fp, ip, sp, lr, pc}
    16c8:	875ff302 	ldrbhi	pc, [pc, -r2, lsl #6]	; <UNPREDICTABLE>
    16cc:	f10b4b83 			; <UNDEFINED> instruction: 0xf10b4b83
    16d0:	447b0604 	ldrbtmi	r0, [fp], #-1540	; 0xfffff9fc
    16d4:	2b03681b 	blcs	0xdb748
    16d8:	8176f301 	cmnhi	r6, r1, lsl #6	; <UNPREDICTABLE>
    16dc:	46419a06 	strbmi	r9, [r1], -r6, lsl #20
    16e0:	0a90ee1a 	beq	0xfe43cf50
    16e4:	fffef7ff 			; <UNDEFINED> instruction: 0xfffef7ff
    16e8:	1a90ee18 	bne	0xfe43cf50
    16ec:	0a90ee1a 	beq	0xfe43cf5c
    16f0:	4652463b 			; <UNDEFINED> instruction: 0x4652463b
    16f4:	f7ff9500 			; <UNDEFINED> instruction: 0xf7ff9500
    16f8:	4285fffe 	addmi	pc, r5, #1016	; 0x3f8
    16fc:	8727f042 	strhi	pc, [r7, -r2, asr #32]!
    1700:	301bf994 	mulscc	fp, r4, r9
    1704:	f0422b00 			; <UNDEFINED> instruction: 0xf0422b00
    1708:	4b758708 	blmi	0x1d63330
    170c:	0405f10b 	streq	pc, [r5], #-267	; 0xfffffef5
    1710:	681b447b 	ldmdavs	fp, {r0, r1, r3, r4, r5, r6, sl, lr}
    1714:	f3012b03 	vqrdmulh.s<illegal width 8>	d2, d1, d3
    1718:	9e088191 	mcrls	1, 0, r8, cr8, cr1, {4}
    171c:	9b06462a 	blls	0x192fcc
    1720:	e9cd4649 	stmib	sp, {r0, r3, r6, r9, sl, lr}^
    1724:	46508300 	ldrbmi	r8, [r0], -r0, lsl #6
    1728:	2500463b 	strcs	r4, [r0, #-1595]	; 0xfffff9c5
    172c:	f7ff7035 			; <UNDEFINED> instruction: 0xf7ff7035
    1730:	4287fffe 	addmi	pc, r7, #1016	; 0x3f8
    1734:	86caf041 	strbhi	pc, [sl], r1, asr #32	; <UNPREDICTABLE>
    1738:	781a9b08 	ldmdavc	sl, {r3, r8, r9, fp, ip, pc}
    173c:	f0412a00 			; <UNDEFINED> instruction: 0xf0412a00
    1740:	990586ab 	stmdbls	r5, {r0, r1, r3, r5, r7, r9, sl, pc}
    1744:	f7ff4648 			; <UNDEFINED> instruction: 0xf7ff4648
    1748:	9b10fffe 	blls	0x441748
    174c:	f0414283 			; <UNDEFINED> instruction: 0xf0414283
    1750:	4b648684 	blmi	0x1923168
    1754:	0206f10b 	andeq	pc, r6, #-1073741822	; 0xc0000002
    1758:	447b9211 	ldrbtmi	r9, [fp], #-529	; 0xfffffdef
    175c:	2b03681b 	blcs	0xdb7d0
    1760:	8186f301 	orrhi	pc, r6, r1, lsl #6
    1764:	fffef7ff 			; <UNDEFINED> instruction: 0xfffef7ff
    1768:	46049a06 	strmi	r9, [r4], -r6, lsl #20
    176c:	ee1a4641 	cfmsub32	mvax2, mvfx4, mvfx10, mvfx1
    1770:	f7ff0a90 			; <UNDEFINED> instruction: 0xf7ff0a90
    1774:	ee1afffe 	mrc	15, 0, APSR_nzcv, cr10, cr14, {7}
    1778:	46201a90 			; <UNDEFINED> instruction: 0x46201a90
    177c:	fffef7ff 			; <UNDEFINED> instruction: 0xfffef7ff
    1780:	4620990c 	strtmi	r9, [r0], -ip, lsl #18
    1784:	fffef7ff 			; <UNDEFINED> instruction: 0xfffef7ff
    1788:	93009b0d 	movwls	r9, #2829	; 0xb0d
    178c:	1a90ee18 	bne	0xfe43cff4
    1790:	4652463b 			; <UNDEFINED> instruction: 0x4652463b
    1794:	f7ff4620 			; <UNDEFINED> instruction: 0xf7ff4620
    1798:	4605fffe 			; <UNDEFINED> instruction: 0x4605fffe
    179c:	f0012800 			; <UNDEFINED> instruction: 0xf0012800
    17a0:	f5048640 			; <UNDEFINED> instruction: 0xf5048640
    17a4:	f9962680 			; <UNDEFINED> instruction: 0xf9962680
    17a8:	2b00301b 	blcs	0xd81c
    17ac:	861df041 	ldrhi	pc, [sp], -r1, asr #32
    17b0:	f10b4b4d 			; <UNDEFINED> instruction: 0xf10b4b4d
    17b4:	92110207 	andsls	r0, r1, #1879048192	; 0x70000000
    17b8:	681b447b 	ldmdavs	fp, {r0, r1, r3, r4, r5, r6, sl, lr}
    17bc:	f3012b03 	vqrdmulh.s<illegal width 8>	d2, d1, d3
    17c0:	990c8187 	stmdbls	ip, {r0, r1, r2, r7, r8, pc}
    17c4:	f7ff4620 			; <UNDEFINED> instruction: 0xf7ff4620
    17c8:	ee1afffe 	mrc	15, 0, APSR_nzcv, cr10, cr14, {7}
    17cc:	46201a90 			; <UNDEFINED> instruction: 0x46201a90
    17d0:	fffef7ff 			; <UNDEFINED> instruction: 0xfffef7ff
    17d4:	f3412d00 	vpadd.f32	d18, d1, d0
    17d8:	1e6b85fb 	mcrne	5, 3, r8, cr11, cr11, {7}
    17dc:	1a90ee18 	bne	0xfe43d044
    17e0:	46529300 	ldrbmi	r9, [r2], -r0, lsl #6
    17e4:	4620463b 			; <UNDEFINED> instruction: 0x4620463b
    17e8:	fffef7ff 			; <UNDEFINED> instruction: 0xfffef7ff
    17ec:	f3012800 	vsub.i8	d2, d1, d0
    17f0:	4b3e85d0 	blmi	0xfa2f38
    17f4:	0208f10b 	andeq	pc, r8, #-1073741822	; 0xc0000002
    17f8:	447b9211 	ldrbtmi	r9, [fp], #-529	; 0xfffffdef
    17fc:	2b03681b 	blcs	0xdb870
    1800:	814ef301 	cmphi	lr, r1, lsl #6	; <UNPREDICTABLE>
    1804:	4620990c 	strtmi	r9, [r0], -ip, lsl #18
    1808:	fffef7ff 			; <UNDEFINED> instruction: 0xfffef7ff
    180c:	1a90ee1a 	bne	0xfe43d07c
    1810:	f7ff4620 			; <UNDEFINED> instruction: 0xf7ff4620
    1814:	ee18fffe 	mrc	15, 0, APSR_nzcv, cr8, cr14, {7}
    1818:	463b1a90 			; <UNDEFINED> instruction: 0x463b1a90
    181c:	46204652 			; <UNDEFINED> instruction: 0x46204652
    1820:	f7ff9500 			; <UNDEFINED> instruction: 0xf7ff9500
    1824:	4285fffe 	addmi	pc, r5, #1016	; 0x3f8
    1828:	8596f041 	ldrhi	pc, [r6, #65]	; 0x41
    182c:	301bf996 	mulscc	fp, r6, r9
    1830:	f0412b00 			; <UNDEFINED> instruction: 0xf0412b00
    1834:	4b2e8577 	blmi	0xba2e18
    1838:	0209f10b 	andeq	pc, r9, #-1073741822	; 0xc0000002
    183c:	447b9211 	ldrbtmi	r9, [fp], #-529	; 0xfffffdef
    1840:	bf00e058 	svclt	0x0000e058
    1844:	00000cd2 	ldrdeq	r0, [r0], -r2
    1848:	00000cac 	andeq	r0, r0, ip, lsr #25
    184c:	00000c7a 	andeq	r0, r0, sl, ror ip
    1850:	00000bec 	andeq	r0, r0, ip, ror #23
    1854:	00000b62 	andeq	r0, r0, r2, ror #22
    1858:	00000ad4 	ldrdeq	r0, [r0], -r4
    185c:	00000a4c 	andeq	r0, r0, ip, asr #20
    1860:	00000a2a 	andeq	r0, r0, sl, lsr #20
    1864:	000009fe 	strdeq	r0, [r0], -lr
    1868:	000009d8 	ldrdeq	r0, [r0], -r8
    186c:	000009ac 	andeq	r0, r0, ip, lsr #19
    1870:	0000093e 	andeq	r0, r0, lr, lsr r9
    1874:	000008c2 	andeq	r0, r0, r2, asr #17
    1878:	00000874 	andeq	r0, r0, r4, ror r8
    187c:	00000830 	andeq	r0, r0, r0, lsr r8
    1880:	000007f6 	strdeq	r0, [r0], -r6
    1884:	00000790 	muleq	r0, r0, r7
    1888:	00000748 	andeq	r0, r0, r8, asr #14
    188c:	00000708 	andeq	r0, r0, r8, lsl #14
    1890:	000006be 			; <UNDEFINED> instruction: 0x000006be
    1894:	00000676 	andeq	r0, r0, r6, ror r6
    1898:	0000062c 	andeq	r0, r0, ip, lsr #12
    189c:	000005d6 	ldrdeq	r0, [r0], -r6
    18a0:	00000594 	muleq	r0, r4, r5
    18a4:	00000582 	andeq	r0, r0, r2, lsl #11
    18a8:	0000057a 	andeq	r0, r0, sl, ror r5
    18ac:	00000572 	andeq	r0, r0, r2, ror r5
    18b0:	00000000 	andeq	r0, r0, r0
    18b4:	00000524 	andeq	r0, r0, r4, lsr #10
    18b8:	000004bc 			; <UNDEFINED> instruction: 0x000004bc
    18bc:	0000047e 	andeq	r0, r0, lr, ror r4
    18c0:	00000430 	andeq	r0, r0, r0, lsr r4
    18c4:	000003e2 	andeq	r0, r0, r2, ror #7
    18c8:	0000039c 	muleq	r0, ip, r3
    18cc:	00000356 	andeq	r0, r0, r6, asr r3
    18d0:	00000310 	andeq	r0, r0, r0, lsl r3
    18d4:	000002c8 	andeq	r0, r0, r8, asr #5
    18d8:	0000023e 	andeq	r0, r0, lr, lsr r2
    18dc:	00000206 	andeq	r0, r0, r6, lsl #4
    18e0:	000001cc 	andeq	r0, r0, ip, asr #3
    18e4:	00000186 	andeq	r0, r0, r6, lsl #3
    18e8:	0000012c 	andeq	r0, r0, ip, lsr #2
    18ec:	000000ee 	andeq	r0, r0, lr, ror #1
    18f0:	000000ae 	andeq	r0, r0, lr, lsr #1
    18f4:	2b03681b 	blcs	0xdb968
    18f8:	8102f301 	tsthi	r2, r1, lsl #6	; <UNPREDICTABLE>
    18fc:	4620990c 	strtmi	r9, [r0], -ip, lsl #18
    1900:	fffef7ff 			; <UNDEFINED> instruction: 0xfffef7ff
    1904:	1a90ee1a 	bne	0xfe43d174
    1908:	f7ff4620 			; <UNDEFINED> instruction: 0xf7ff4620
    190c:	ee18fffe 	mrc	15, 0, APSR_nzcv, cr8, cr14, {7}
    1910:	463b1a90 			; <UNDEFINED> instruction: 0x463b1a90
    1914:	46204652 			; <UNDEFINED> instruction: 0x46204652
    1918:	f7ff9500 			; <UNDEFINED> instruction: 0xf7ff9500
    191c:	4285fffe 	addmi	pc, r5, #1016	; 0x3f8
    1920:	84e3f041 	strbthi	pc, [r3], #65	; 0x41	; <UNPREDICTABLE>
    1924:	301bf996 	mulscc	fp, r6, r9
    1928:	f0412b00 			; <UNDEFINED> instruction: 0xf0412b00
    192c:	462084c4 	strtmi	r8, [r0], -r4, asr #9
    1930:	040af10b 	streq	pc, [sl], #-267	; 0xfffffef5
    1934:	fffef7ff 			; <UNDEFINED> instruction: 0xfffef7ff
    1938:	34ccf8df 	strbcc	pc, [ip], #2271	; 0x8df	; <UNPREDICTABLE>
    193c:	681b447b 	ldmdavs	fp, {r0, r1, r3, r4, r5, r6, sl, lr}
    1940:	f3012b03 	vqrdmulh.s<illegal width 8>	d2, d1, d3
    1944:	9e0880f5 	mcrls	0, 0, r8, cr8, cr5, {7}
    1948:	9b06462a 	blls	0x1931f8
    194c:	e9cd4649 	stmib	sp, {r0, r3, r6, r9, sl, lr}^
    1950:	46508300 	ldrbmi	r8, [r0], -r0, lsl #6
    1954:	2500463b 	strcs	r4, [r0, #-1595]	; 0xfffff9c5
    1958:	f7ff7035 			; <UNDEFINED> instruction: 0xf7ff7035
    195c:	4287fffe 	addmi	pc, r7, #1016	; 0x3f8
    1960:	848ff041 	strhi	pc, [pc], #65	; 0x1968
    1964:	781a9b08 	ldmdavc	sl, {r3, r8, r9, fp, ip, pc}
    1968:	f0412a00 			; <UNDEFINED> instruction: 0xf0412a00
    196c:	99058470 	stmdbls	r5, {r4, r5, r6, sl, pc}
    1970:	f7ff4648 			; <UNDEFINED> instruction: 0xf7ff4648
    1974:	9b10fffe 	blls	0x441974
    1978:	f0424283 			; <UNDEFINED> instruction: 0xf0424283
    197c:	f8df8455 			; <UNDEFINED> instruction: 0xf8df8455
    1980:	447c448c 	ldrbtmi	r4, [ip], #-1164	; 0xfffffb74
    1984:	2e036826 	cdpcs	8, 0, cr6, cr3, cr6, {1}
    1988:	81f2f300 	mvnshi	pc, r0, lsl #6
    198c:	f0402f00 			; <UNDEFINED> instruction: 0xf0402f00
    1990:	9b0f8209 	blls	0x3e21bc
    1994:	f8432505 			; <UNDEFINED> instruction: 0xf8432505
    1998:	f10b7c48 			; <UNDEFINED> instruction: 0xf10b7c48
    199c:	9308030c 	movwls	r0, #33548	; 0x830c
    19a0:	46419a06 	strbmi	r9, [r1], -r6, lsl #20
    19a4:	0a90ee1a 	beq	0xfe43d214
    19a8:	fffef7ff 			; <UNDEFINED> instruction: 0xfffef7ff
    19ac:	ee1a990c 	vnmls.f16	s18, s20, s24
    19b0:	f7ff0a90 			; <UNDEFINED> instruction: 0xf7ff0a90
    19b4:	ee19fffe 	mrc	15, 0, APSR_nzcv, cr9, cr14, {7}
    19b8:	ee183a90 	vmov	r3, s17
    19bc:	ee1a1a90 	vmov	r1, s21
    19c0:	46520a90 			; <UNDEFINED> instruction: 0x46520a90
    19c4:	f7ff9500 			; <UNDEFINED> instruction: 0xf7ff9500
    19c8:	f8dffffe 			; <UNDEFINED> instruction: 0xf8dffffe
    19cc:	46043444 	strmi	r3, [r4], -r4, asr #8
    19d0:	681b447b 	ldmdavs	fp, {r0, r1, r3, r4, r5, r6, sl, lr}
    19d4:	f3002b04 	vqrdmulh.s<illegal width 8>	d2, d0, d4
    19d8:	2c0080fa 	stccs	0, cr8, [r0], {250}	; 0xfa
    19dc:	8408f002 	strhi	pc, [r8], #-2
    19e0:	f2c242a5 	vsubl.s8	q10, d18, d21
    19e4:	9b0f83e9 	blls	0x3e2990
    19e8:	3c48f853 	mcrrcc	8, 5, pc, r8, cr3	; <UNPREDICTABLE>
    19ec:	f30242bb 	vqsub.u8	d4, d18, d27
    19f0:	f8df83c7 			; <UNDEFINED> instruction: 0xf8df83c7
    19f4:	f10b2420 			; <UNDEFINED> instruction: 0xf10b2420
    19f8:	447a060d 	ldrbtmi	r0, [sl], #-1549	; 0xfffff9f3
    19fc:	2a036812 	bcs	0xdba4c
    1a00:	80aef301 	adchi	pc, lr, r1, lsl #6
    1a04:	46499a06 	strbmi	r9, [r9], -r6, lsl #20
    1a08:	8200e9cd 	andhi	lr, r0, #3358720	; 0x334000
    1a0c:	46224650 			; <UNDEFINED> instruction: 0x46224650
    1a10:	f8092500 			; <UNDEFINED> instruction: 0xf8092500
    1a14:	f7ff5003 			; <UNDEFINED> instruction: 0xf7ff5003
    1a18:	9b0ffffe 	blls	0x401a18
    1a1c:	1c48f853 	mcrrne	8, 5, pc, r8, cr3	; <UNPREDICTABLE>
    1a20:	f0424281 			; <UNDEFINED> instruction: 0xf0424281
    1a24:	f81981e3 			; <UNDEFINED> instruction: 0xf81981e3
    1a28:	2a002001 	bcs	0x9a34
    1a2c:	8770f041 	ldrbhi	pc, [r0, -r1, asr #32]!	; <UNPREDICTABLE>
    1a30:	0a90ee18 	beq	0xfe43d298
    1a34:	f7ff9206 			; <UNDEFINED> instruction: 0xf7ff9206
    1a38:	9b0ffffe 	blls	0x401a38
    1a3c:	9a064605 	bls	0x193258
    1a40:	f8534648 			; <UNDEFINED> instruction: 0xf8534648
    1a44:	f7ff1c48 			; <UNDEFINED> instruction: 0xf7ff1c48
    1a48:	4285fffe 	addmi	pc, r5, #1016	; 0x3f8
    1a4c:	8741f041 	strbhi	pc, [r1, -r1, asr #32]	; <UNPREDICTABLE>
    1a50:	9a199b05 	bls	0x66866c
    1a54:	189a9912 	ldmne	sl, {r1, r4, r8, fp, ip, pc}
    1a58:	981c9b1a 	ldmdals	ip, {r1, r3, r4, r8, r9, fp, ip, pc}
    1a5c:	0300f143 	movweq	pc, #323	; 0x143	; <UNPREDICTABLE>
    1a60:	9b1b931a 	blls	0x6e66d0
    1a64:	18cb9219 	stmiane	fp, {r0, r3, r4, r9, ip, pc}^
    1a68:	9b14931b 	blls	0x5266dc
    1a6c:	71e1eb40 	mvnvc	lr, r0, asr #22
    1a70:	2b00911c 	blcs	0x25ee8
    1a74:	8720f2c1 	strhi	pc, [r0, -r1, asr #5]!
    1a78:	991e461a 	ldmdbls	lr, {r1, r3, r4, r9, sl, lr}
    1a7c:	18d39b1d 	ldmne	r3, {r0, r2, r3, r4, r8, r9, fp, ip, pc}^
    1a80:	72e2eb41 	rscvc	lr, r2, #66560	; 0x10400
    1a84:	e9cd2c00 	stmib	sp, {sl, fp, sp}^
    1a88:	f2c1321d 	vmov.i32	d19, #7424	; 0x00001d00
    1a8c:	9b1f8708 	blls	0x7e36b4
    1a90:	18e39a20 	stmiane	r3!, {r5, r9, fp, ip, pc}^
    1a94:	72e4eb42 	rscvc	lr, r4, #67584	; 0x10800
    1a98:	321fe9cd 	andscc	lr, pc, #3358720	; 0x334000
    1a9c:	3a10ee1a 	bcc	0x43d30c
    1aa0:	33019a21 	movwcc	r9, #6689	; 0x1a21
    1aa4:	3a10ee0a 	bcc	0x43d2d4
    1aa8:	3a10ee1a 	bcc	0x43d318
    1aac:	f4fe4293 			; <UNDEFINED> instruction: 0xf4fe4293
    1ab0:	f7ffaccb 			; <UNDEFINED> instruction: 0xf7ffaccb
    1ab4:	9b23fffe 	blls	0x901ab4
    1ab8:	9b241ac0 	blls	0x9085c0
    1abc:	f73e4283 			; <UNDEFINED> instruction: 0xf73e4283
    1ac0:	e9ddacc3 	ldmib	sp, {r0, r1, r6, r7, sl, fp, sp, pc}^
    1ac4:	ee1a5619 	mrc	6, 0, r5, cr10, cr9, {0}
    1ac8:	49d32a10 	ldmibmi	r3, {r4, r9, fp, sp}^
    1acc:	ea552001 	b	0x1549ad8
    1ad0:	9b210306 	blls	0x8426f0
    1ad4:	2401bf0c 	strcs	fp, [r1], #-3852	; 0xfffff0f4
    1ad8:	44792400 	ldrbtmi	r2, [r9], #-1024	; 0xfffffc00
    1adc:	bf982b01 	svclt	0x00982b01
    1ae0:	f7ff4613 			; <UNDEFINED> instruction: 0xf7ff4613
    1ae4:	48cdfffe 	stmiami	sp, {r1, r2, r3, r4, r5, r6, r7, r8, r9, sl, fp, ip, sp, lr, pc}^
    1ae8:	9bc5ed9f 	blls	0xff17d16c
    1aec:	f7ff4478 			; <UNDEFINED> instruction: 0xf7ff4478
    1af0:	1960fffe 	stmdbne	r0!, {r1, r2, r3, r4, r5, r6, r7, r8, r9, sl, fp, ip, sp, lr, pc}^
    1af4:	0100f146 	tsteq	r0, r6, asr #2	; <UNPREDICTABLE>
    1af8:	fffef7ff 			; <UNDEFINED> instruction: 0xfffef7ff
    1afc:	0b18ec41 	bleq	0x63cc08
    1b00:	011be9dd 			; <UNDEFINED> instruction: 0x011be9dd
    1b04:	fffef7ff 			; <UNDEFINED> instruction: 0xfffef7ff
    1b08:	0b17ec41 	bleq	0x5fcc14
    1b0c:	200149c4 	andcs	r4, r1, r4, asr #19
    1b10:	7b08ee87 	blvc	0x23d534
    1b14:	ee274479 	mcr	4, 1, r4, cr7, cr9, {3}
    1b18:	ec537b09 	mrrc	11, 0, r7, r3, cr9
    1b1c:	f7ff2b17 			; <UNDEFINED> instruction: 0xf7ff2b17
    1b20:	e9ddfffe 	ldmib	sp, {r1, r2, r3, r4, r5, r6, r7, r8, r9, sl, fp, ip, sp, lr, pc}^
    1b24:	f7ff011d 			; <UNDEFINED> instruction: 0xf7ff011d
    1b28:	ec41fffe 	mcrr	15, 15, pc, r1, cr14	; <UNPREDICTABLE>
    1b2c:	49bd0b17 	ldmibmi	sp!, {r0, r1, r2, r4, r8, r9, fp}
    1b30:	ee872001 	cdp	0, 8, cr2, cr7, cr1, {0}
    1b34:	44797b08 	ldrbtmi	r7, [r9], #-2824	; 0xfffff4f8
    1b38:	7b09ee27 	blvc	0x27d3dc
    1b3c:	2b17ec53 	blcs	0x5fcc90
    1b40:	fffef7ff 			; <UNDEFINED> instruction: 0xfffef7ff
    1b44:	011fe9dd 			; <UNDEFINED> instruction: 0x011fe9dd
    1b48:	fffef7ff 			; <UNDEFINED> instruction: 0xfffef7ff
    1b4c:	0b17ec41 	bleq	0x5fcc58
    1b50:	200149b5 			; <UNDEFINED> instruction: 0x200149b5
    1b54:	7b08ee87 	blvc	0x23d578
    1b58:	ee274479 	mcr	4, 1, r4, cr7, cr9, {3}
    1b5c:	ec537b09 	mrrc	11, 0, r7, r3, cr9
    1b60:	f7ff2b17 			; <UNDEFINED> instruction: 0xf7ff2b17
    1b64:	980efffe 	stmdals	lr, {r1, r2, r3, r4, r5, r6, r7, r8, r9, sl, fp, ip, sp, lr, pc}
    1b68:	fffef7ff 			; <UNDEFINED> instruction: 0xfffef7ff
    1b6c:	f7ff4650 			; <UNDEFINED> instruction: 0xf7ff4650
    1b70:	4648fffe 			; <UNDEFINED> instruction: 0x4648fffe
    1b74:	fffef7ff 			; <UNDEFINED> instruction: 0xfffef7ff
    1b78:	f44f9825 	vst2.8	{d25-d26}, [pc :128], r5
    1b7c:	f7ff31c0 			; <UNDEFINED> instruction: 0xf7ff31c0
    1b80:	4604fffe 			; <UNDEFINED> instruction: 0x4604fffe
    1b84:	f0412800 			; <UNDEFINED> instruction: 0xf0412800
    1b88:	ee1a82d9 	mrc	2, 0, r8, cr10, cr9, {6}
    1b8c:	f7ff0a90 			; <UNDEFINED> instruction: 0xf7ff0a90
    1b90:	ee1bfffe 	mrc	15, 0, APSR_nzcv, cr11, cr14, {7}
    1b94:	f7ff0a10 			; <UNDEFINED> instruction: 0xf7ff0a10
    1b98:	ee1bfffe 	mrc	15, 0, APSR_nzcv, cr11, cr14, {7}
    1b9c:	f7ff0a90 			; <UNDEFINED> instruction: 0xf7ff0a90
    1ba0:	4aa2fffe 	bmi	0xfe8c1ba0
    1ba4:	f50d4ba2 			; <UNDEFINED> instruction: 0xf50d4ba2
    1ba8:	447a4100 	ldrbtmi	r4, [sl], #-256	; 0xffffff00
    1bac:	58d331dc 	ldmpl	r3, {r2, r3, r4, r6, r7, r8, ip, sp}^
    1bb0:	680b681a 	stmdavs	fp, {r1, r3, r4, fp, sp, lr}
    1bb4:	f04f405a 			; <UNDEFINED> instruction: 0xf04f405a
    1bb8:	f0410300 			; <UNDEFINED> instruction: 0xf0410300
    1bbc:	462084a1 	strtmi	r8, [r0], -r1, lsr #9
    1bc0:	4d00f50d 	cfstr32mi	mvfx15, [r0, #-52]	; 0xffffffcc
    1bc4:	ecbdb039 	ldc	0, cr11, [sp], #228	; 0xe4
    1bc8:	e8bd8b0c 	pop	{r2, r3, r8, r9, fp, pc}
    1bcc:	4b998ff0 	blmi	0xfe665b94
    1bd0:	9a072101 	bls	0x1c9fdc
    1bd4:	9a0c58d3 	bls	0x317f28
    1bd8:	5202e9cd 	andpl	lr, r2, #3358720	; 0x334000
    1bdc:	7000e9cd 	andvc	lr, r0, sp, asr #19
    1be0:	68184a95 	ldmdavs	r8, {r0, r2, r4, r7, r9, fp, lr}
    1be4:	447a9b0f 	ldrbtmi	r9, [sl], #-2831	; 0xfffff4f1
    1be8:	3c48f853 	mcrrcc	8, 5, pc, r8, cr3	; <UNPREDICTABLE>
    1bec:	fffef7ff 			; <UNDEFINED> instruction: 0xfffef7ff
    1bf0:	f7ffe6f3 			; <UNDEFINED> instruction: 0xf7ffe6f3
    1bf4:	4b91fffe 	blmi	0xfe481bf4
    1bf8:	21019a07 	tstcs	r1, r7, lsl #20
    1bfc:	6018447b 	andsvs	r4, r8, fp, ror r4
    1c00:	58d64b8c 	ldmpl	r6, {r2, r3, r7, r8, r9, fp, lr}^
    1c04:	3a10ee1a 	bcc	0x43d474
    1c08:	68304a8d 	ldmdavs	r0!, {r0, r2, r3, r7, r9, fp, lr}
    1c0c:	f7ff447a 			; <UNDEFINED> instruction: 0xf7ff447a
    1c10:	6830fffe 	ldmdavs	r0!, {r1, r2, r3, r4, r5, r6, r7, r8, r9, sl, fp, ip, sp, lr, pc}
    1c14:	fffef7ff 			; <UNDEFINED> instruction: 0xfffef7ff
    1c18:	f0412d00 			; <UNDEFINED> instruction: 0xf0412d00
    1c1c:	4b8981fb 	blmi	0xfe262410
    1c20:	681b447b 	ldmdavs	fp, {r0, r1, r3, r4, r5, r6, sl, lr}
    1c24:	f77e2b03 			; <UNDEFINED> instruction: 0xf77e2b03
    1c28:	4987ac96 	stmibmi	r7, {r1, r2, r4, r7, sl, fp, sp, pc}
    1c2c:	ee1a2301 	cdp	3, 1, cr2, cr10, cr1, {0}
    1c30:	46182a10 			; <UNDEFINED> instruction: 0x46182a10
    1c34:	f7ff4479 			; <UNDEFINED> instruction: 0xf7ff4479
    1c38:	4984fffe 	stmibmi	r4, {r1, r2, r3, r4, r5, r6, r7, r8, r9, sl, fp, ip, sp, lr, pc}
    1c3c:	44792001 	ldrbtmi	r2, [r9], #-1
    1c40:	fffef7ff 			; <UNDEFINED> instruction: 0xfffef7ff
    1c44:	20014982 	andcs	r4, r1, r2, lsl #19
    1c48:	f7ff4479 			; <UNDEFINED> instruction: 0xf7ff4479
    1c4c:	4b79fffe 	blmi	0x1e81c4c
    1c50:	58d39a07 	ldmpl	r3, {r0, r1, r2, r9, fp, ip, pc}^
    1c54:	f7ff6818 			; <UNDEFINED> instruction: 0xf7ff6818
    1c58:	f7fefffe 			; <UNDEFINED> instruction: 0xf7fefffe
    1c5c:	2b03bc7c 	blcs	0xf0e54
    1c60:	aeb8f77e 	mrcge	7, 5, APSR_nzcv, cr8, cr14, {3}
    1c64:	4633497b 			; <UNDEFINED> instruction: 0x4633497b
    1c68:	2a10ee1a 	bcs	0x43d4d8
    1c6c:	44792001 	ldrbtmi	r2, [r9], #-1
    1c70:	9e134634 	mrcls	6, 0, r4, cr3, cr4, {1}
    1c74:	fffef7ff 			; <UNDEFINED> instruction: 0xfffef7ff
    1c78:	f7ff2020 			; <UNDEFINED> instruction: 0xf7ff2020
    1c7c:	4976fffe 	ldmdbmi	r6!, {r1, r2, r3, r4, r5, r6, r7, r8, r9, sl, fp, ip, sp, lr, pc}^
    1c80:	44792001 	ldrbtmi	r2, [r9], #-1
    1c84:	fffef7ff 			; <UNDEFINED> instruction: 0xfffef7ff
    1c88:	9a074b6a 	bls	0x1d4a38
    1c8c:	681858d3 	ldmdavs	r8, {r0, r1, r4, r6, r7, fp, ip, lr}
    1c90:	fffef7ff 			; <UNDEFINED> instruction: 0xfffef7ff
    1c94:	f73e2f0a 			; <UNDEFINED> instruction: 0xf73e2f0a
    1c98:	4b70ae82 	blmi	0x1c2d6a8
    1c9c:	447b9613 	ldrbtmi	r9, [fp], #-1555	; 0xfffff9ed
    1ca0:	9309681b 	movwls	r6, #38939	; 0x981b
    1ca4:	be96f7fe 	mrclt	7, 4, APSR_nzcv, cr6, cr14, {7}
    1ca8:	2a03990b 	bcs	0xe80dc
    1cac:	fb019b16 	blx	0x6890e
    1cb0:	9909f303 	stmdbls	r9, {r0, r1, r8, r9, ip, sp, lr, pc}
    1cb4:	0b0ff101 	bleq	0x3fe0c0
    1cb8:	ea83990a 	b	0xfe0e80e8
    1cbc:	ea4f0301 	b	0x13c28c8
    1cc0:	931543f3 	tstls	r5, #-872415229	; 0xcc000003
    1cc4:	060ff003 	streq	pc, [pc], -r3
    1cc8:	0602f106 	streq	pc, [r2], -r6, lsl #2
    1ccc:	854ef300 	strbhi	pc, [lr, #-768]	; 0xfffffd00	; <UNPREDICTABLE>
    1cd0:	1c9e9b11 	fldmiaxne	lr, {d9-d16}	;@ Deprecated
    1cd4:	bb39f7ff 	bllt	0xe7fcd8
    1cd8:	2b039a0b 	blcs	0xe850c
    1cdc:	fb029c15 	blx	0xa8d3a
    1ce0:	9a11f404 	bls	0x47ecf8
    1ce4:	0809f102 	stmdaeq	r9, {r1, r8, ip, sp, lr, pc}
    1ce8:	ea849a0a 	b	0xfe128518
    1cec:	ea4f0402 	b	0x13c2cfc
    1cf0:	f00444f4 			; <UNDEFINED> instruction: 0xf00444f4
    1cf4:	f105050f 			; <UNDEFINED> instruction: 0xf105050f
    1cf8:	f77f0502 			; <UNDEFINED> instruction: 0xf77f0502
    1cfc:	4958ac8f 	ldmdbmi	r8, {r0, r1, r2, r3, r7, sl, fp, sp, pc}^
    1d00:	2a10ee1a 	bcs	0x43d570
    1d04:	20014643 	andcs	r4, r1, r3, asr #12
    1d08:	f7ff4479 			; <UNDEFINED> instruction: 0xf7ff4479
    1d0c:	4955fffe 	ldmdbmi	r5, {r1, r2, r3, r4, r5, r6, r7, r8, r9, sl, fp, ip, sp, lr, pc}^
    1d10:	44792001 	ldrbtmi	r2, [r9], #-1
    1d14:	fffef7ff 			; <UNDEFINED> instruction: 0xfffef7ff
    1d18:	20014953 	andcs	r4, r1, r3, asr r9
    1d1c:	f7ff4479 			; <UNDEFINED> instruction: 0xf7ff4479
    1d20:	4b44fffe 	blmi	0x1141d20
    1d24:	58d39a07 	ldmpl	r3, {r0, r1, r2, r9, fp, ip, pc}^
    1d28:	f7ff6818 			; <UNDEFINED> instruction: 0xf7ff6818
    1d2c:	4b4ffffe 	blmi	0x1401d2c
    1d30:	0602f10b 	streq	pc, [r2], -fp, lsl #2
    1d34:	681b447b 	ldmdavs	fp, {r0, r1, r3, r4, r5, r6, sl, lr}
    1d38:	f77f2b03 			; <UNDEFINED> instruction: 0xf77f2b03
    1d3c:	494cac75 	stmdbmi	ip, {r0, r2, r4, r5, r6, sl, fp, sp, pc}^
    1d40:	2a10ee1a 	bcs	0x43d5b0
    1d44:	20014633 	andcs	r4, r1, r3, lsr r6
    1d48:	f7ff4479 			; <UNDEFINED> instruction: 0xf7ff4479
    1d4c:	4949fffe 	stmdbmi	r9, {r1, r2, r3, r4, r5, r6, r7, r8, r9, sl, fp, ip, sp, lr, pc}^
    1d50:	44792001 	ldrbtmi	r2, [r9], #-1
    1d54:	fffef7ff 			; <UNDEFINED> instruction: 0xfffef7ff
    1d58:	20014947 	andcs	r4, r1, r7, asr #18
    1d5c:	f7ff4479 			; <UNDEFINED> instruction: 0xf7ff4479
    1d60:	4b34fffe 	blmi	0xd41d60
    1d64:	58d39a07 	ldmpl	r3, {r0, r1, r2, r9, fp, ip, pc}^
    1d68:	f7ff6818 			; <UNDEFINED> instruction: 0xf7ff6818
    1d6c:	e45bfffe 	ldrb	pc, [fp], #-4094	; 0xfffff002	; <UNPREDICTABLE>
    1d70:	ee1a4942 	vnmla.f16	s8, s20, s4
    1d74:	f10b2a10 			; <UNDEFINED> instruction: 0xf10b2a10
    1d78:	2001030b 	andcs	r0, r1, fp, lsl #6
    1d7c:	25054479 	strcs	r4, [r5, #-1145]	; 0xfffffb87
    1d80:	fffef7ff 			; <UNDEFINED> instruction: 0xfffef7ff
    1d84:	f7ff2020 			; <UNDEFINED> instruction: 0xf7ff2020
    1d88:	493dfffe 	ldmdbmi	sp!, {r1, r2, r3, r4, r5, r6, r7, r8, r9, sl, fp, ip, sp, lr, pc}
    1d8c:	44792001 	ldrbtmi	r2, [r9], #-1
    1d90:	fffef7ff 			; <UNDEFINED> instruction: 0xfffef7ff
    1d94:	9a074b27 	bls	0x1d4a38
    1d98:	681858d3 	ldmdavs	r8, {r0, r1, r4, r6, r7, fp, ip, lr}
    1d9c:	fffef7ff 			; <UNDEFINED> instruction: 0xfffef7ff
    1da0:	b15f6826 	cmplt	pc, r6, lsr #16
    1da4:	98099b0b 	stmdals	r9, {r0, r1, r3, r8, r9, fp, ip, pc}
    1da8:	fb039905 	blx	0xe81c6
    1dac:	9b0af000 	blls	0x2bddb4
    1db0:	ea4f4058 	b	0x13d1f18
    1db4:	f7ff40f0 			; <UNDEFINED> instruction: 0xf7ff40f0
    1db8:	1d4dfffe 	stclne	15, cr15, [sp, #-1016]	; 0xfffffc08
    1dbc:	2e039b0f 	vmlacs.f64	d9, d3, d15
    1dc0:	7c48f843 	mcrrvc	8, 4, pc, r8, cr3	; <UNPREDICTABLE>
    1dc4:	030cf10b 	movweq	pc, #49419	; 0xc10b	; <UNPREDICTABLE>
    1dc8:	f77f9308 			; <UNDEFINED> instruction: 0xf77f9308
    1dcc:	492dade9 	pushmi	{r0, r3, r5, r6, r7, r8, sl, fp, sp, pc}
    1dd0:	2a10ee1a 	bcs	0x43d640
    1dd4:	44792001 	ldrbtmi	r2, [r9], #-1
    1dd8:	fffef7ff 			; <UNDEFINED> instruction: 0xfffef7ff
    1ddc:	f7ff2020 			; <UNDEFINED> instruction: 0xf7ff2020
    1de0:	4929fffe 	stmdbmi	r9!, {r1, r2, r3, r4, r5, r6, r7, r8, r9, sl, fp, ip, sp, lr, pc}
    1de4:	44792001 	ldrbtmi	r2, [r9], #-1
    1de8:	fffef7ff 			; <UNDEFINED> instruction: 0xfffef7ff
    1dec:	9a074b11 	bls	0x1d4a38
    1df0:	681858d3 	ldmdavs	r8, {r0, r1, r4, r6, r7, fp, ip, lr}
    1df4:	fffef7ff 			; <UNDEFINED> instruction: 0xfffef7ff
    1df8:	bf00e5d2 	svclt	0x0000e5d2
    1dfc:	8000f3af 	andhi	pc, r0, pc, lsr #7
    1e00:	00000000 	andeq	r0, r0, r0
    1e04:	40590000 	subsmi	r0, r9, r0
    1e08:	000004c8 	andeq	r0, r0, r8, asr #9
    1e0c:	00000486 	andeq	r0, r0, r6, lsl #9
    1e10:	0000043c 	andeq	r0, r0, ip, lsr r4
    1e14:	00000416 	andeq	r0, r0, r6, lsl r4
    1e18:	0000033a 	andeq	r0, r0, sl, lsr r3
    1e1c:	0000032c 	andeq	r0, r0, ip, lsr #6
    1e20:	00000308 	andeq	r0, r0, r8, lsl #6
    1e24:	000002ea 	andeq	r0, r0, sl, ror #5
    1e28:	000002cc 	andeq	r0, r0, ip, asr #5
    1e2c:	0000027e 	andeq	r0, r0, lr, ror r2
	...
    1e38:	0000024e 	andeq	r0, r0, lr, asr #4
    1e3c:	0000023c 	andeq	r0, r0, ip, lsr r2
    1e40:	00000230 	andeq	r0, r0, r0, lsr r2
    1e44:	00000220 	andeq	r0, r0, r0, lsr #4
    1e48:	00000210 	andeq	r0, r0, r0, lsl r2
    1e4c:	0000020a 	andeq	r0, r0, sl, lsl #4
    1e50:	00000204 	andeq	r0, r0, r4, lsl #4
    1e54:	000001e2 	andeq	r0, r0, r2, ror #3
    1e58:	000001d2 	ldrdeq	r0, [r0], -r2
    1e5c:	000001ba 			; <UNDEFINED> instruction: 0x000001ba
    1e60:	00000154 	andeq	r0, r0, r4, asr r1
    1e64:	0000014e 	andeq	r0, r0, lr, asr #2
    1e68:	00000148 	andeq	r0, r0, r8, asr #2
    1e6c:	00000134 	andeq	r0, r0, r4, lsr r1
    1e70:	00000124 	andeq	r0, r0, r4, lsr #2
    1e74:	0000011e 	andeq	r0, r0, lr, lsl r1
    1e78:	00000118 	andeq	r0, r0, r8, lsl r1
    1e7c:	000000fc 	strdeq	r0, [r0], -ip
    1e80:	000000ee 	andeq	r0, r0, lr, ror #1
    1e84:	000000aa 	andeq	r0, r0, sl, lsr #1
    1e88:	0000009e 	muleq	r0, lr, r0
    1e8c:	1dd4f8df 	ldclne	8, cr15, [r4, #892]	; 0x37c
    1e90:	2a10ee1a 	bcs	0x43d700
    1e94:	2001465b 	andcs	r4, r1, fp, asr r6
    1e98:	f7ff4479 			; <UNDEFINED> instruction: 0xf7ff4479
    1e9c:	f8dffffe 			; <UNDEFINED> instruction: 0xf8dffffe
    1ea0:	20011dc8 	andcs	r1, r1, r8, asr #27
    1ea4:	f7ff4479 			; <UNDEFINED> instruction: 0xf7ff4479
    1ea8:	f8dffffe 			; <UNDEFINED> instruction: 0xf8dffffe
    1eac:	20011dc0 	andcs	r1, r1, r0, asr #27
    1eb0:	f7ff4479 			; <UNDEFINED> instruction: 0xf7ff4479
    1eb4:	f8dffffe 			; <UNDEFINED> instruction: 0xf8dffffe
    1eb8:	9a073db8 	bls	0x1d15a0
    1ebc:	681858d3 	ldmdavs	r8, {r0, r1, r4, r6, r7, fp, ip, lr}
    1ec0:	fffef7ff 			; <UNDEFINED> instruction: 0xfffef7ff
    1ec4:	bb88f7fe 	bllt	0xfe23fec4
    1ec8:	3da4f8df 	stccc	8, cr15, [r4, #892]!	; 0x37c
    1ecc:	0b02f04f 	bleq	0xbe010
    1ed0:	f04f9a07 			; <UNDEFINED> instruction: 0xf04f9a07
    1ed4:	58d30801 	ldmpl	r3, {r0, fp}^
    1ed8:	91019a05 	tstls	r1, r5, lsl #20
    1edc:	92022101 	andls	r2, r2, #1073741824	; 0x40000000
    1ee0:	f8df9500 			; <UNDEFINED> instruction: 0xf8df9500
    1ee4:	68182d90 	ldmdavs	r8, {r4, r7, r8, sl, fp, sp}
    1ee8:	447a4633 	ldrbtmi	r4, [sl], #-1587	; 0xfffff9cd
    1eec:	fffef7ff 			; <UNDEFINED> instruction: 0xfffef7ff
    1ef0:	d03d2d00 	eorsle	r2, sp, r0, lsl #26
    1ef4:	f8539b0f 			; <UNDEFINED> instruction: 0xf8539b0f
    1ef8:	ee181c48 	cdp	12, 1, cr1, cr8, cr8, {2}
    1efc:	22000a90 	andcs	r0, r0, #144, 20	; 0x90000
    1f00:	fffef7ff 			; <UNDEFINED> instruction: 0xfffef7ff
    1f04:	46079b0b 	strmi	r9, [r7], -fp, lsl #22
    1f08:	f404fb03 			; <UNDEFINED> instruction: 0xf404fb03
    1f0c:	405c9b0a 	subsmi	r9, ip, sl, lsl #22
    1f10:	44f4ea4f 	ldrbtmi	lr, [r4], #2639	; 0xa4f
    1f14:	2e00b2e5 	cdpcs	2, 0, cr11, cr0, cr5, {7}
    1f18:	84a7f001 	strthi	pc, [r7], #1
    1f1c:	3d58f8df 	ldclcc	8, cr15, [r8, #-892]	; 0xfffffc84
    1f20:	681b447b 	ldmdavs	fp, {r0, r1, r3, r4, r5, r6, sl, lr}
    1f24:	f3012b03 	vqrdmulh.s<illegal width 8>	d2, d1, d3
    1f28:	9b0f8098 	blls	0x3e2190
    1f2c:	46494632 			; <UNDEFINED> instruction: 0x46494632
    1f30:	f8534650 			; <UNDEFINED> instruction: 0xf8534650
    1f34:	f8093c48 			; <UNDEFINED> instruction: 0xf8093c48
    1f38:	f7ff5003 			; <UNDEFINED> instruction: 0xf7ff5003
    1f3c:	2800fffe 	stmdacs	r0, {r1, r2, r3, r4, r5, r6, r7, r8, r9, sl, fp, ip, sp, lr, pc}
    1f40:	8479f2c1 	ldrbthi	pc, [r9], #-705	; 0xfffffd3f	; <UNPREDICTABLE>
    1f44:	f8539b0f 			; <UNDEFINED> instruction: 0xf8539b0f
    1f48:	42811c48 	addmi	r1, r1, #72, 24	; 0x4800
    1f4c:	82cbf042 	sbchi	pc, fp, #66	; 0x42
    1f50:	3001f819 	andcc	pc, r1, r9, lsl r8	; <UNPREDICTABLE>
    1f54:	f04242ab 			; <UNDEFINED> instruction: 0xf04242ab
    1f58:	220082ac 	andcs	r8, r0, #172, 4	; 0xc000000a
    1f5c:	f7ff4648 			; <UNDEFINED> instruction: 0xf7ff4648
    1f60:	4287fffe 	addmi	pc, r7, #1016	; 0x3f8
    1f64:	853ef041 	ldrhi	pc, [lr, #-65]!	; 0xffffffbf
    1f68:	0b03f04f 	bleq	0xfe0ac
    1f6c:	0802f04f 	stmdaeq	r2, {r0, r1, r2, r3, r6, ip, sp, lr, pc}
    1f70:	5d08f8df 	stcpl	8, cr15, [r8, #-892]	; 0xfffffc84
    1f74:	682b447d 	stmdavs	fp!, {r0, r2, r3, r4, r5, r6, sl, lr}
    1f78:	f77e2b04 			; <UNDEFINED> instruction: 0xf77e2b04
    1f7c:	f8dfab2a 			; <UNDEFINED> instruction: 0xf8dfab2a
    1f80:	21013cf0 	strdcs	r3, [r1, -r0]
    1f84:	f8df9a07 			; <UNDEFINED> instruction: 0xf8df9a07
    1f88:	58d30cf8 	ldmpl	r3, {r3, r4, r5, r6, r7, sl, fp}^
    1f8c:	22054478 	andcs	r4, r5, #120, 8	; 0x78000000
    1f90:	f7ff681b 			; <UNDEFINED> instruction: 0xf7ff681b
    1f94:	682bfffe 	stmdavs	fp!, {r1, r2, r3, r4, r5, r6, r7, r8, r9, sl, fp, ip, sp, lr, pc}
    1f98:	bb1bf7fe 	bllt	0x6fff98
    1f9c:	ee08463e 	mcr	6, 0, r4, cr8, cr14, {1}
    1fa0:	f7fe7a90 			; <UNDEFINED> instruction: 0xf7fe7a90
    1fa4:	f8dfba9f 			; <UNDEFINED> instruction: 0xf8dfba9f
    1fa8:	21013cc8 	smlabtcs	r1, r8, ip, r3
    1fac:	58d39a07 	ldmpl	r3, {r0, r1, r2, r9, fp, ip, pc}^
    1fb0:	92039a05 	andls	r9, r3, #20480	; 0x5000
    1fb4:	0400e9cd 	streq	lr, [r0], #-2509	; 0xfffff633
    1fb8:	2cc8f8df 	stclcs	8, cr15, [r8], {223}	; 0xdf
    1fbc:	9b0f6818 	blls	0x3dc024
    1fc0:	f853447a 			; <UNDEFINED> instruction: 0xf853447a
    1fc4:	93023c48 	movwls	r3, #11336	; 0x2c48
    1fc8:	f7ff9b0c 			; <UNDEFINED> instruction: 0xf7ff9b0c
    1fcc:	f7fefffe 			; <UNDEFINED> instruction: 0xf7fefffe
    1fd0:	f8dfbb36 			; <UNDEFINED> instruction: 0xf8dfbb36
    1fd4:	ee1a1cb4 	mrc	12, 0, r1, cr10, cr4, {5}
    1fd8:	46232a10 			; <UNDEFINED> instruction: 0x46232a10
    1fdc:	44792001 	ldrbtmi	r2, [r9], #-1
    1fe0:	fffef7ff 			; <UNDEFINED> instruction: 0xfffef7ff
    1fe4:	1ca4f8df 	stcne	8, cr15, [r4], #892	; 0x37c
    1fe8:	44792001 	ldrbtmi	r2, [r9], #-1
    1fec:	fffef7ff 			; <UNDEFINED> instruction: 0xfffef7ff
    1ff0:	1c9cf8df 	ldcne	8, cr15, [ip], {223}	; 0xdf
    1ff4:	44792001 	ldrbtmi	r2, [r9], #-1
    1ff8:	fffef7ff 			; <UNDEFINED> instruction: 0xfffef7ff
    1ffc:	3c70f8df 	ldclcc	8, cr15, [r0], #-892	; 0xfffffc84
    2000:	58d39a07 	ldmpl	r3, {r0, r1, r2, r9, fp, ip, pc}^
    2004:	f7ff6818 			; <UNDEFINED> instruction: 0xf7ff6818
    2008:	f7fefffe 			; <UNDEFINED> instruction: 0xf7fefffe
    200c:	f8dfbb4f 			; <UNDEFINED> instruction: 0xf8dfbb4f
    2010:	ee1a1c84 	cdp	12, 1, cr1, cr10, cr4, {4}
    2014:	46232a10 			; <UNDEFINED> instruction: 0x46232a10
    2018:	44792001 	ldrbtmi	r2, [r9], #-1
    201c:	fffef7ff 			; <UNDEFINED> instruction: 0xfffef7ff
    2020:	1c74f8df 	ldclne	8, cr15, [r4], #-892	; 0xfffffc84
    2024:	44792001 	ldrbtmi	r2, [r9], #-1
    2028:	fffef7ff 			; <UNDEFINED> instruction: 0xfffef7ff
    202c:	1c6cf8df 	stclne	8, cr15, [ip], #-892	; 0xfffffc84
    2030:	44792001 	ldrbtmi	r2, [r9], #-1
    2034:	fffef7ff 			; <UNDEFINED> instruction: 0xfffef7ff
    2038:	3c34f8df 	ldccc	8, cr15, [r4], #-892	; 0xfffffc84
    203c:	58d39a07 	ldmpl	r3, {r0, r1, r2, r9, fp, ip, pc}^
    2040:	f7ff6818 			; <UNDEFINED> instruction: 0xf7ff6818
    2044:	f7fefffe 			; <UNDEFINED> instruction: 0xf7fefffe
    2048:	f8dfbb1b 			; <UNDEFINED> instruction: 0xf8dfbb1b
    204c:	21013c24 	tstcs	r1, r4, lsr #24
    2050:	f8df9a07 			; <UNDEFINED> instruction: 0xf8df9a07
    2054:	58d30c4c 	ldmpl	r3, {r2, r3, r6, sl, fp}^
    2058:	22054478 	andcs	r4, r5, #120, 8	; 0x78000000
    205c:	f7ff681b 			; <UNDEFINED> instruction: 0xf7ff681b
    2060:	6823fffe 	stmdavs	r3!, {r1, r2, r3, r4, r5, r6, r7, r8, r9, sl, fp, ip, sp, lr, pc}
    2064:	bb07f7fe 	bllt	0x200064
    2068:	ee182200 	cdp	2, 1, cr2, cr8, cr0, {0}
    206c:	f7ff0a90 			; <UNDEFINED> instruction: 0xf7ff0a90
    2070:	9b16fffe 	blls	0x5c2070
    2074:	46059a0b 	strmi	r9, [r5], -fp, lsl #20
    2078:	f303fb02 	vqrdmulh.s<illegal width 8>	d15, d3, d2
    207c:	40539a0a 	subsmi	r9, r3, sl, lsl #20
    2080:	43f3ea4f 	mvnsmi	lr, #323584	; 0x4f000
    2084:	b2dc9316 	sbcslt	r9, ip, #1476395008	; 0x58000000
    2088:	f0012e00 			; <UNDEFINED> instruction: 0xf0012e00
    208c:	f8df8491 			; <UNDEFINED> instruction: 0xf8df8491
    2090:	f1083c14 			; <UNDEFINED> instruction: 0xf1083c14
    2094:	447b0b02 	ldrbtmi	r0, [fp], #-2818	; 0xfffff4fe
    2098:	2b03681b 	blcs	0xdc10c
    209c:	87c2f300 	strbhi	pc, [r2, r0, lsl #6]	; <UNPREDICTABLE>
    20a0:	46329b0f 	ldrtmi	r9, [r2], -pc, lsl #22
    20a4:	46504649 	ldrbmi	r4, [r0], -r9, asr #12
    20a8:	3c48f853 	mcrrcc	8, 5, pc, r8, cr3	; <UNPREDICTABLE>
    20ac:	4003f809 	andmi	pc, r3, r9, lsl #16
    20b0:	fffef7ff 			; <UNDEFINED> instruction: 0xfffef7ff
    20b4:	f2c12800 	vmlal.s8	q9, d1, d0
    20b8:	9b0f845f 	blls	0x3e323c
    20bc:	1c48f853 	mcrrne	8, 5, pc, r8, cr3	; <UNPREDICTABLE>
    20c0:	f0414281 			; <UNDEFINED> instruction: 0xf0414281
    20c4:	f81985d1 			; <UNDEFINED> instruction: 0xf81985d1
    20c8:	42a33001 	adcmi	r3, r3, #1
    20cc:	85b2f041 	ldrhi	pc, [r2, #65]!	; 0x41
    20d0:	46482200 	strbmi	r2, [r8], -r0, lsl #4
    20d4:	fffef7ff 			; <UNDEFINED> instruction: 0xfffef7ff
    20d8:	f43e4285 			; <UNDEFINED> instruction: 0xf43e4285
    20dc:	f8dfaac5 			; <UNDEFINED> instruction: 0xf8dfaac5
    20e0:	465a1bc8 	ldrbmi	r1, [sl], -r8, asr #23
    20e4:	44792001 	ldrbtmi	r2, [r9], #-1
    20e8:	fffef7ff 			; <UNDEFINED> instruction: 0xfffef7ff
    20ec:	1bbcf8df 	blne	0xfef40470
    20f0:	44792001 	ldrbtmi	r2, [r9], #-1
    20f4:	fffef7ff 			; <UNDEFINED> instruction: 0xfffef7ff
    20f8:	1bb4f8df 	blne	0xfed4047c
    20fc:	3a10ee1a 	bcc	0x43d96c
    2100:	2a10ee1d 	bcs	0x43d97c
    2104:	20014479 	andcs	r4, r1, r9, ror r4
    2108:	fffef7ff 			; <UNDEFINED> instruction: 0xfffef7ff
    210c:	f7ff2001 			; <UNDEFINED> instruction: 0xf7ff2001
    2110:	f8dffffe 			; <UNDEFINED> instruction: 0xf8dffffe
    2114:	ee1a1ba0 	vnmls.f64	d1, d26, d16
    2118:	46432a10 			; <UNDEFINED> instruction: 0x46432a10
    211c:	44792001 	ldrbtmi	r2, [r9], #-1
    2120:	fffef7ff 			; <UNDEFINED> instruction: 0xfffef7ff
    2124:	1b90f8df 	blne	0xfe4404a8
    2128:	44792001 	ldrbtmi	r2, [r9], #-1
    212c:	fffef7ff 			; <UNDEFINED> instruction: 0xfffef7ff
    2130:	1b88f8df 	blne	0xfe2404b4
    2134:	44792001 	ldrbtmi	r2, [r9], #-1
    2138:	fffef7ff 			; <UNDEFINED> instruction: 0xfffef7ff
    213c:	3b30f8df 	blcc	0xc404c0
    2140:	58d39a07 	ldmpl	r3, {r0, r1, r2, r9, fp, ip, pc}^
    2144:	f7ff6818 			; <UNDEFINED> instruction: 0xf7ff6818
    2148:	f7fefffe 			; <UNDEFINED> instruction: 0xf7fefffe
    214c:	f8dfbb0d 			; <UNDEFINED> instruction: 0xf8dfbb0d
    2150:	ee1a1b70 	vmov.s16	r1, d10[1]
    2154:	46332a10 			; <UNDEFINED> instruction: 0x46332a10
    2158:	44792001 	ldrbtmi	r2, [r9], #-1
    215c:	fffef7ff 			; <UNDEFINED> instruction: 0xfffef7ff
    2160:	1b60f8df 	blne	0x18404e4
    2164:	44792001 	ldrbtmi	r2, [r9], #-1
    2168:	fffef7ff 			; <UNDEFINED> instruction: 0xfffef7ff
    216c:	1b58f8df 	blne	0x16404f0
    2170:	44792001 	ldrbtmi	r2, [r9], #-1
    2174:	fffef7ff 			; <UNDEFINED> instruction: 0xfffef7ff
    2178:	3af4f8df 	bcc	0xffd404fc
    217c:	58d39a07 	ldmpl	r3, {r0, r1, r2, r9, fp, ip, pc}^
    2180:	f7ff6818 			; <UNDEFINED> instruction: 0xf7ff6818
    2184:	f7fefffe 			; <UNDEFINED> instruction: 0xf7fefffe
    2188:	f8dfbac0 			; <UNDEFINED> instruction: 0xf8dfbac0
    218c:	ee1a1b40 	vnmla.f64	d1, d10, d0
    2190:	46232a10 			; <UNDEFINED> instruction: 0x46232a10
    2194:	44792001 	ldrbtmi	r2, [r9], #-1
    2198:	fffef7ff 			; <UNDEFINED> instruction: 0xfffef7ff
    219c:	1b30f8df 	blne	0xc40520
    21a0:	44792001 	ldrbtmi	r2, [r9], #-1
    21a4:	fffef7ff 			; <UNDEFINED> instruction: 0xfffef7ff
    21a8:	1b28f8df 	blne	0xa4052c
    21ac:	44792001 	ldrbtmi	r2, [r9], #-1
    21b0:	fffef7ff 			; <UNDEFINED> instruction: 0xfffef7ff
    21b4:	3ab8f8df 	bcc	0xfee40538
    21b8:	58d39a07 	ldmpl	r3, {r0, r1, r2, r9, fp, ip, pc}^
    21bc:	f7ff6818 			; <UNDEFINED> instruction: 0xf7ff6818
    21c0:	f7fefffe 			; <UNDEFINED> instruction: 0xf7fefffe
    21c4:	f8dfba8b 			; <UNDEFINED> instruction: 0xf8dfba8b
    21c8:	ee1a1b10 	vmov.32	r1, d10[0]
    21cc:	46332a10 			; <UNDEFINED> instruction: 0x46332a10
    21d0:	44792001 	ldrbtmi	r2, [r9], #-1
    21d4:	fffef7ff 			; <UNDEFINED> instruction: 0xfffef7ff
    21d8:	1b00f8df 	blne	0x4055c
    21dc:	44792001 	ldrbtmi	r2, [r9], #-1
    21e0:	fffef7ff 			; <UNDEFINED> instruction: 0xfffef7ff
    21e4:	1af8f8df 	bne	0xffe40568
    21e8:	44792001 	ldrbtmi	r2, [r9], #-1
    21ec:	fffef7ff 			; <UNDEFINED> instruction: 0xfffef7ff
    21f0:	3a7cf8df 	bcc	0x1f40574
    21f4:	58d39a07 	ldmpl	r3, {r0, r1, r2, r9, fp, ip, pc}^
    21f8:	f7ff6818 			; <UNDEFINED> instruction: 0xf7ff6818
    21fc:	f7fefffe 			; <UNDEFINED> instruction: 0xf7fefffe
    2200:	f8dfba9c 			; <UNDEFINED> instruction: 0xf8dfba9c
    2204:	ee1a1ae0 	vnmla.f32	s2, s21, s1
    2208:	46232a10 			; <UNDEFINED> instruction: 0x46232a10
    220c:	44792001 	ldrbtmi	r2, [r9], #-1
    2210:	fffef7ff 			; <UNDEFINED> instruction: 0xfffef7ff
    2214:	1ad0f8df 	bne	0xff440598
    2218:	44792001 	ldrbtmi	r2, [r9], #-1
    221c:	fffef7ff 			; <UNDEFINED> instruction: 0xfffef7ff
    2220:	1ac8f8df 	bne	0xff2405a4
    2224:	44792001 	ldrbtmi	r2, [r9], #-1
    2228:	fffef7ff 			; <UNDEFINED> instruction: 0xfffef7ff
    222c:	3a40f8df 	bcc	0x10405b0
    2230:	58d39a07 	ldmpl	r3, {r0, r1, r2, r9, fp, ip, pc}^
    2234:	f7ff6818 			; <UNDEFINED> instruction: 0xf7ff6818
    2238:	f7fefffe 			; <UNDEFINED> instruction: 0xf7fefffe
    223c:	f8dfbad5 			; <UNDEFINED> instruction: 0xf8dfbad5
    2240:	ee1a1ab0 			; <UNDEFINED> instruction: 0xee1a1ab0
    2244:	46232a10 			; <UNDEFINED> instruction: 0x46232a10
    2248:	44792001 	ldrbtmi	r2, [r9], #-1
    224c:	fffef7ff 			; <UNDEFINED> instruction: 0xfffef7ff
    2250:	1aa0f8df 	bne	0xfe8405d4
    2254:	44792001 	ldrbtmi	r2, [r9], #-1
    2258:	fffef7ff 			; <UNDEFINED> instruction: 0xfffef7ff
    225c:	1a98f8df 	bne	0xfe6405e0
    2260:	44792001 	ldrbtmi	r2, [r9], #-1
    2264:	fffef7ff 			; <UNDEFINED> instruction: 0xfffef7ff
    2268:	3a04f8df 	bcc	0x1405ec
    226c:	58d39a07 	ldmpl	r3, {r0, r1, r2, r9, fp, ip, pc}^
    2270:	f7ff6818 			; <UNDEFINED> instruction: 0xf7ff6818
    2274:	f7fefffe 			; <UNDEFINED> instruction: 0xf7fefffe
    2278:	f8dfbaa0 			; <UNDEFINED> instruction: 0xf8dfbaa0
    227c:	ee1a1a80 	vnmls.f32	s2, s21, s0
    2280:	46232a10 			; <UNDEFINED> instruction: 0x46232a10
    2284:	44792001 	ldrbtmi	r2, [r9], #-1
    2288:	fffef7ff 			; <UNDEFINED> instruction: 0xfffef7ff
    228c:	1a70f8df 	bne	0x1c40610
    2290:	44792001 	ldrbtmi	r2, [r9], #-1
    2294:	fffef7ff 			; <UNDEFINED> instruction: 0xfffef7ff
    2298:	1a68f8df 	bne	0x1a4061c
    229c:	44792001 	ldrbtmi	r2, [r9], #-1
    22a0:	fffef7ff 			; <UNDEFINED> instruction: 0xfffef7ff
    22a4:	39c8f8df 	stmibcc	r8, {r0, r1, r2, r3, r4, r6, r7, fp, ip, sp, lr, pc}^
    22a8:	58d39a07 	ldmpl	r3, {r0, r1, r2, r9, fp, ip, pc}^
    22ac:	f7ff6818 			; <UNDEFINED> instruction: 0xf7ff6818
    22b0:	f7fefffe 			; <UNDEFINED> instruction: 0xf7fefffe
    22b4:	f8dfbaba 			; <UNDEFINED> instruction: 0xf8dfbaba
    22b8:	ee1a1a50 			; <UNDEFINED> instruction: 0xee1a1a50
    22bc:	46332a10 			; <UNDEFINED> instruction: 0x46332a10
    22c0:	44792001 	ldrbtmi	r2, [r9], #-1
    22c4:	fffef7ff 			; <UNDEFINED> instruction: 0xfffef7ff
    22c8:	f7ff2020 			; <UNDEFINED> instruction: 0xf7ff2020
    22cc:	f8dffffe 			; <UNDEFINED> instruction: 0xf8dffffe
    22d0:	20011a3c 	andcs	r1, r1, ip, lsr sl
    22d4:	f7ff4479 			; <UNDEFINED> instruction: 0xf7ff4479
    22d8:	f8dffffe 			; <UNDEFINED> instruction: 0xf8dffffe
    22dc:	9a073994 	bls	0x1d0934
    22e0:	681858d3 	ldmdavs	r8, {r0, r1, r4, r6, r7, fp, ip, lr}
    22e4:	fffef7ff 			; <UNDEFINED> instruction: 0xfffef7ff
    22e8:	bad9f7fe 	blt	0xff6802e8
    22ec:	1a20f8df 	bne	0x840670
    22f0:	2a10ee1a 	bcs	0x43db60
    22f4:	2001462b 	andcs	r4, r1, fp, lsr #12
    22f8:	f7ff4479 			; <UNDEFINED> instruction: 0xf7ff4479
    22fc:	2020fffe 	strdcs	pc, [r0], -lr	; <UNPREDICTABLE>
    2300:	fffef7ff 			; <UNDEFINED> instruction: 0xfffef7ff
    2304:	1a0cf8df 	bne	0x340688
    2308:	44792001 	ldrbtmi	r2, [r9], #-1
    230c:	fffef7ff 			; <UNDEFINED> instruction: 0xfffef7ff
    2310:	395cf8df 	ldmdbcc	ip, {r0, r1, r2, r3, r4, r6, r7, fp, ip, sp, lr, pc}^
    2314:	58d39a07 	ldmpl	r3, {r0, r1, r2, r9, fp, ip, pc}^
    2318:	f7ff6818 			; <UNDEFINED> instruction: 0xf7ff6818
    231c:	f7fefffe 			; <UNDEFINED> instruction: 0xf7fefffe
    2320:	f8dfbad0 			; <UNDEFINED> instruction: 0xf8dfbad0
    2324:	461319f4 			; <UNDEFINED> instruction: 0x461319f4
    2328:	ee1a2001 	cdp	0, 1, cr2, cr10, cr1, {0}
    232c:	44792a10 	ldrbtmi	r2, [r9], #-2576	; 0xfffff5f0
    2330:	fffef7ff 			; <UNDEFINED> instruction: 0xfffef7ff
    2334:	f7ff2020 			; <UNDEFINED> instruction: 0xf7ff2020
    2338:	f8dffffe 			; <UNDEFINED> instruction: 0xf8dffffe
    233c:	200119e0 	andcs	r1, r1, r0, ror #19
    2340:	f7ff4479 			; <UNDEFINED> instruction: 0xf7ff4479
    2344:	f8dffffe 			; <UNDEFINED> instruction: 0xf8dffffe
    2348:	9a073928 	bls	0x1d07f0
    234c:	681858d3 	ldmdavs	r8, {r0, r1, r4, r6, r7, fp, ip, lr}
    2350:	fffef7ff 			; <UNDEFINED> instruction: 0xfffef7ff
    2354:	badef7fe 	blt	0xff7c0354
    2358:	19c4f8df 	stmibne	r4, {r0, r1, r2, r3, r4, r6, r7, fp, ip, sp, lr, pc}^
    235c:	20014613 	andcs	r4, r1, r3, lsl r6
    2360:	2a10ee1a 	bcs	0x43dbd0
    2364:	f7ff4479 			; <UNDEFINED> instruction: 0xf7ff4479
    2368:	2020fffe 	strdcs	pc, [r0], -lr	; <UNPREDICTABLE>
    236c:	fffef7ff 			; <UNDEFINED> instruction: 0xfffef7ff
    2370:	19b0f8df 	ldmibne	r0!, {r0, r1, r2, r3, r4, r6, r7, fp, ip, sp, lr, pc}
    2374:	44792001 	ldrbtmi	r2, [r9], #-1
    2378:	fffef7ff 			; <UNDEFINED> instruction: 0xfffef7ff
    237c:	38f0f8df 	ldmcc	r0!, {r0, r1, r2, r3, r4, r6, r7, fp, ip, sp, lr, pc}^
    2380:	58d39a07 	ldmpl	r3, {r0, r1, r2, r9, fp, ip, pc}^
    2384:	f7ff6818 			; <UNDEFINED> instruction: 0xf7ff6818
    2388:	f7fefffe 			; <UNDEFINED> instruction: 0xf7fefffe
    238c:	f8dfbc0c 			; <UNDEFINED> instruction: 0xf8dfbc0c
    2390:	ee1a1998 			; <UNDEFINED> instruction: 0xee1a1998
    2394:	46332a10 			; <UNDEFINED> instruction: 0x46332a10
    2398:	44792001 	ldrbtmi	r2, [r9], #-1
    239c:	fffef7ff 			; <UNDEFINED> instruction: 0xfffef7ff
    23a0:	f7ff2020 			; <UNDEFINED> instruction: 0xf7ff2020
    23a4:	f8dffffe 			; <UNDEFINED> instruction: 0xf8dffffe
    23a8:	20011984 	andcs	r1, r1, r4, lsl #19
    23ac:	f7ff4479 			; <UNDEFINED> instruction: 0xf7ff4479
    23b0:	f8dffffe 			; <UNDEFINED> instruction: 0xf8dffffe
    23b4:	9a0738bc 	bls	0x1d06ac
    23b8:	681858d3 	ldmdavs	r8, {r0, r1, r4, r6, r7, fp, ip, lr}
    23bc:	fffef7ff 			; <UNDEFINED> instruction: 0xfffef7ff
    23c0:	bbdbf7fe 	bllt	0xff7003c0
    23c4:	1968f8df 	stmdbne	r8!, {r0, r1, r2, r3, r4, r6, r7, fp, ip, sp, lr, pc}^
    23c8:	2a10ee1a 	bcs	0x43dc38
    23cc:	20014633 	andcs	r4, r1, r3, lsr r6
    23d0:	f7ff4479 			; <UNDEFINED> instruction: 0xf7ff4479
    23d4:	f8dffffe 			; <UNDEFINED> instruction: 0xf8dffffe
    23d8:	2001195c 	andcs	r1, r1, ip, asr r9
    23dc:	f7ff4479 			; <UNDEFINED> instruction: 0xf7ff4479
    23e0:	f8dffffe 			; <UNDEFINED> instruction: 0xf8dffffe
    23e4:	20011954 	andcs	r1, r1, r4, asr r9
    23e8:	f7ff4479 			; <UNDEFINED> instruction: 0xf7ff4479
    23ec:	f8dffffe 			; <UNDEFINED> instruction: 0xf8dffffe
    23f0:	9a073880 	bls	0x1d05f8
    23f4:	681858d3 	ldmdavs	r8, {r0, r1, r4, r6, r7, fp, ip, lr}
    23f8:	fffef7ff 			; <UNDEFINED> instruction: 0xfffef7ff
    23fc:	bb9ff7fe 	bllt	0xfe8003fc
    2400:	1938f8df 	ldmdbne	r8!, {r0, r1, r2, r3, r4, r6, r7, fp, ip, sp, lr, pc}
    2404:	2a10ee1a 	bcs	0x43dc74
    2408:	20014633 	andcs	r4, r1, r3, lsr r6
    240c:	f7ff4479 			; <UNDEFINED> instruction: 0xf7ff4479
    2410:	f8dffffe 			; <UNDEFINED> instruction: 0xf8dffffe
    2414:	2001192c 	andcs	r1, r1, ip, lsr #18
    2418:	f7ff4479 			; <UNDEFINED> instruction: 0xf7ff4479
    241c:	f8dffffe 			; <UNDEFINED> instruction: 0xf8dffffe
    2420:	20011924 	andcs	r1, r1, r4, lsr #18
    2424:	f7ff4479 			; <UNDEFINED> instruction: 0xf7ff4479
    2428:	f8dffffe 			; <UNDEFINED> instruction: 0xf8dffffe
    242c:	9a073844 	bls	0x1d0544
    2430:	681858d3 	ldmdavs	r8, {r0, r1, r4, r6, r7, fp, ip, lr}
    2434:	fffef7ff 			; <UNDEFINED> instruction: 0xfffef7ff
    2438:	bceef7fe 	stcllt	7, cr15, [lr], #1016	; 0x3f8
    243c:	1908f8df 	stmdbne	r8, {r0, r1, r2, r3, r4, r6, r7, fp, ip, sp, lr, pc}
    2440:	2a10ee1a 	bcs	0x43dcb0
    2444:	20014633 	andcs	r4, r1, r3, lsr r6
    2448:	f7ff4479 			; <UNDEFINED> instruction: 0xf7ff4479
    244c:	f8dffffe 			; <UNDEFINED> instruction: 0xf8dffffe
    2450:	200118fc 	strdcs	r1, [r1], -ip
    2454:	f7ff4479 			; <UNDEFINED> instruction: 0xf7ff4479
    2458:	f8dffffe 			; <UNDEFINED> instruction: 0xf8dffffe
    245c:	200118f4 	strdcs	r1, [r1], -r4
    2460:	f7ff4479 			; <UNDEFINED> instruction: 0xf7ff4479
    2464:	f8dffffe 			; <UNDEFINED> instruction: 0xf8dffffe
    2468:	9a073808 	bls	0x1d0490
    246c:	681858d3 	ldmdavs	r8, {r0, r1, r4, r6, r7, fp, ip, lr}
    2470:	fffef7ff 			; <UNDEFINED> instruction: 0xfffef7ff
    2474:	bd28f7fe 	stclt	7, cr15, [r8, #-1016]!	; 0xfffffc08
    2478:	18d8f8df 	ldmne	r8, {r0, r1, r2, r3, r4, r6, r7, fp, ip, sp, lr, pc}^
    247c:	2a10ee1a 	bcs	0x43dcec
    2480:	20014633 	andcs	r4, r1, r3, lsr r6
    2484:	f7ff4479 			; <UNDEFINED> instruction: 0xf7ff4479
    2488:	f8dffffe 			; <UNDEFINED> instruction: 0xf8dffffe
    248c:	200118cc 	andcs	r1, r1, ip, asr #17
    2490:	f7ff4479 			; <UNDEFINED> instruction: 0xf7ff4479
    2494:	f8dffffe 			; <UNDEFINED> instruction: 0xf8dffffe
    2498:	200118c4 	andcs	r1, r1, r4, asr #17
    249c:	f7ff4479 			; <UNDEFINED> instruction: 0xf7ff4479
    24a0:	f8dffffe 			; <UNDEFINED> instruction: 0xf8dffffe
    24a4:	9a0737cc 	bls	0x1d03dc
    24a8:	681858d3 	ldmdavs	r8, {r0, r1, r4, r6, r7, fp, ip, lr}
    24ac:	fffef7ff 			; <UNDEFINED> instruction: 0xfffef7ff
    24b0:	bcf2f7fe 	ldcllt	7, cr15, [r2], #1016	; 0x3f8
    24b4:	18a8f8df 	stmiane	r8!, {r0, r1, r2, r3, r4, r6, r7, fp, ip, sp, lr, pc}
    24b8:	2a10ee1a 	bcs	0x43dd28
    24bc:	4630462b 	ldrtmi	r4, [r0], -fp, lsr #12
    24c0:	f7ff4479 			; <UNDEFINED> instruction: 0xf7ff4479
    24c4:	f8dffffe 			; <UNDEFINED> instruction: 0xf8dffffe
    24c8:	4630189c 			; <UNDEFINED> instruction: 0x4630189c
    24cc:	f7ff4479 			; <UNDEFINED> instruction: 0xf7ff4479
    24d0:	f8dffffe 			; <UNDEFINED> instruction: 0xf8dffffe
    24d4:	46301894 			; <UNDEFINED> instruction: 0x46301894
    24d8:	f7ff4479 			; <UNDEFINED> instruction: 0xf7ff4479
    24dc:	f8dffffe 			; <UNDEFINED> instruction: 0xf8dffffe
    24e0:	9a073790 	bls	0x1d0328
    24e4:	681858d3 	ldmdavs	r8, {r0, r1, r4, r6, r7, fp, ip, lr}
    24e8:	fffef7ff 			; <UNDEFINED> instruction: 0xfffef7ff
    24ec:	bcbff7fe 	ldclt	7, cr15, [pc], #1016	; 0x28ec
    24f0:	1878f8df 	ldmdane	r8!, {r0, r1, r2, r3, r4, r6, r7, fp, ip, sp, lr, pc}^
    24f4:	2a10ee1a 	bcs	0x43dd64
    24f8:	2001462b 	andcs	r4, r1, fp, lsr #12
    24fc:	f7ff4479 			; <UNDEFINED> instruction: 0xf7ff4479
    2500:	f8dffffe 			; <UNDEFINED> instruction: 0xf8dffffe
    2504:	2001186c 	andcs	r1, r1, ip, ror #16
    2508:	f7ff4479 			; <UNDEFINED> instruction: 0xf7ff4479
    250c:	f8dffffe 			; <UNDEFINED> instruction: 0xf8dffffe
    2510:	20011864 	andcs	r1, r1, r4, ror #16
    2514:	f7ff4479 			; <UNDEFINED> instruction: 0xf7ff4479
    2518:	f8dffffe 			; <UNDEFINED> instruction: 0xf8dffffe
    251c:	9a073754 	bls	0x1d0274
    2520:	681858d3 	ldmdavs	r8, {r0, r1, r4, r6, r7, fp, ip, lr}
    2524:	fffef7ff 			; <UNDEFINED> instruction: 0xfffef7ff
    2528:	bc89f7fe 	stclt	7, cr15, [r9], {254}	; 0xfe
    252c:	1848f8df 	stmdane	r8, {r0, r1, r2, r3, r4, r6, r7, fp, ip, sp, lr, pc}^
    2530:	2a10ee1a 	bcs	0x43dda0
    2534:	2001465b 	andcs	r4, r1, fp, asr r6
    2538:	f7ff4479 			; <UNDEFINED> instruction: 0xf7ff4479
    253c:	f8dffffe 			; <UNDEFINED> instruction: 0xf8dffffe
    2540:	2001183c 	andcs	r1, r1, ip, lsr r8
    2544:	f7ff4479 			; <UNDEFINED> instruction: 0xf7ff4479
    2548:	f8dffffe 			; <UNDEFINED> instruction: 0xf8dffffe
    254c:	20011834 	andcs	r1, r1, r4, lsr r8
    2550:	f7ff4479 			; <UNDEFINED> instruction: 0xf7ff4479
    2554:	f8dffffe 			; <UNDEFINED> instruction: 0xf8dffffe
    2558:	9a073718 	bls	0x1d01c0
    255c:	681858d3 	ldmdavs	r8, {r0, r1, r4, r6, r7, fp, ip, lr}
    2560:	fffef7ff 			; <UNDEFINED> instruction: 0xfffef7ff
    2564:	bd77f7fe 	ldcllt	7, cr15, [r7, #-1016]!	; 0xfffffc08
    2568:	9915461a 	ldmdbls	r5, {r1, r3, r4, r9, sl, lr}
    256c:	3320f44f 	msrcc	CPSR_, #1325400064	; 0x4f000000
    2570:	f7ff4648 			; <UNDEFINED> instruction: 0xf7ff4648
    2574:	f7fefffe 			; <UNDEFINED> instruction: 0xf7fefffe
    2578:	f8dfbd4e 			; <UNDEFINED> instruction: 0xf8dfbd4e
    257c:	ee1a1808 	cdp	8, 1, cr1, cr10, cr8, {0}
    2580:	465b2a10 			; <UNDEFINED> instruction: 0x465b2a10
    2584:	44794630 	ldrbtmi	r4, [r9], #-1584	; 0xfffff9d0
    2588:	fffef7ff 			; <UNDEFINED> instruction: 0xfffef7ff
    258c:	17f8f8df 	ubfxne	pc, pc, #17, #25
    2590:	44794630 	ldrbtmi	r4, [r9], #-1584	; 0xfffff9d0
    2594:	fffef7ff 			; <UNDEFINED> instruction: 0xfffef7ff
    2598:	17f0f8df 	ubfxne	pc, pc, #17, #17
    259c:	44794630 	ldrbtmi	r4, [r9], #-1584	; 0xfffff9d0
    25a0:	fffef7ff 			; <UNDEFINED> instruction: 0xfffef7ff
    25a4:	36c8f8df 			; <UNDEFINED> instruction: 0x36c8f8df
    25a8:	58d39a07 	ldmpl	r3, {r0, r1, r2, r9, fp, ip, pc}^
    25ac:	f7ff6818 			; <UNDEFINED> instruction: 0xf7ff6818
    25b0:	f7fefffe 			; <UNDEFINED> instruction: 0xf7fefffe
    25b4:	f8dfbd2c 			; <UNDEFINED> instruction: 0xf8dfbd2c
    25b8:	465b17d8 			; <UNDEFINED> instruction: 0x465b17d8
    25bc:	2a10ee1a 	bcs	0x43de2c
    25c0:	44792001 	ldrbtmi	r2, [r9], #-1
    25c4:	fffef7ff 			; <UNDEFINED> instruction: 0xfffef7ff
    25c8:	17c8f8df 			; <UNDEFINED> instruction: 0x17c8f8df
    25cc:	20019a06 	andcs	r9, r1, r6, lsl #20
    25d0:	f7ff4479 			; <UNDEFINED> instruction: 0xf7ff4479
    25d4:	f8dffffe 			; <UNDEFINED> instruction: 0xf8dffffe
    25d8:	200117c0 	andcs	r1, r1, r0, asr #15
    25dc:	f7ff4479 			; <UNDEFINED> instruction: 0xf7ff4479
    25e0:	f8dffffe 			; <UNDEFINED> instruction: 0xf8dffffe
    25e4:	9a07368c 	bls	0x1d001c
    25e8:	681858d3 	ldmdavs	r8, {r0, r1, r4, r6, r7, fp, ip, lr}
    25ec:	fffef7ff 			; <UNDEFINED> instruction: 0xfffef7ff
    25f0:	bce4f7fe 	stcllt	7, cr15, [r4], #1016	; 0x3f8
    25f4:	17a4f8df 	sbfxne	pc, pc, #17, #5
    25f8:	2a10ee1a 	bcs	0x43de68
    25fc:	20014633 	andcs	r4, r1, r3, lsr r6
    2600:	f7ff4479 			; <UNDEFINED> instruction: 0xf7ff4479
    2604:	f8dffffe 			; <UNDEFINED> instruction: 0xf8dffffe
    2608:	20011798 	mulcs	r1, r8, r7
    260c:	f7ff4479 			; <UNDEFINED> instruction: 0xf7ff4479
    2610:	f8dffffe 			; <UNDEFINED> instruction: 0xf8dffffe
    2614:	20011790 	mulcs	r1, r0, r7
    2618:	f7ff4479 			; <UNDEFINED> instruction: 0xf7ff4479
    261c:	f8dffffe 			; <UNDEFINED> instruction: 0xf8dffffe
    2620:	9a073650 	bls	0x1cff68
    2624:	681858d3 	ldmdavs	r8, {r0, r1, r4, r6, r7, fp, ip, lr}
    2628:	fffef7ff 			; <UNDEFINED> instruction: 0xfffef7ff
    262c:	bc85f7fe 	stclt	7, cr15, [r5], {254}	; 0xfe
    2630:	1774f8df 			; <UNDEFINED> instruction: 0x1774f8df
    2634:	2a10ee1a 	bcs	0x43dea4
    2638:	2001465b 	andcs	r4, r1, fp, asr r6
    263c:	f7ff4479 			; <UNDEFINED> instruction: 0xf7ff4479
    2640:	f8dffffe 			; <UNDEFINED> instruction: 0xf8dffffe
    2644:	20011768 	andcs	r1, r1, r8, ror #14
    2648:	f7ff4479 			; <UNDEFINED> instruction: 0xf7ff4479
    264c:	f8dffffe 			; <UNDEFINED> instruction: 0xf8dffffe
    2650:	20011760 	andcs	r1, r1, r0, ror #14
    2654:	f7ff4479 			; <UNDEFINED> instruction: 0xf7ff4479
    2658:	f8dffffe 			; <UNDEFINED> instruction: 0xf8dffffe
    265c:	9a073614 	bls	0x1cfeb4
    2660:	681858d3 	ldmdavs	r8, {r0, r1, r4, r6, r7, fp, ip, lr}
    2664:	fffef7ff 			; <UNDEFINED> instruction: 0xfffef7ff
    2668:	bd14f7fe 	ldclt	7, cr15, [r4, #-1016]	; 0xfffffc08
    266c:	1744f8df 			; <UNDEFINED> instruction: 0x1744f8df
    2670:	2a10ee1a 	bcs	0x43dee0
    2674:	46584643 	ldrbmi	r4, [r8], -r3, asr #12
    2678:	f7ff4479 			; <UNDEFINED> instruction: 0xf7ff4479
    267c:	f8dffffe 			; <UNDEFINED> instruction: 0xf8dffffe
    2680:	46581738 			; <UNDEFINED> instruction: 0x46581738
    2684:	f7ff4479 			; <UNDEFINED> instruction: 0xf7ff4479
    2688:	f8dffffe 			; <UNDEFINED> instruction: 0xf8dffffe
    268c:	46581730 			; <UNDEFINED> instruction: 0x46581730
    2690:	f7ff4479 			; <UNDEFINED> instruction: 0xf7ff4479
    2694:	f8dffffe 			; <UNDEFINED> instruction: 0xf8dffffe
    2698:	9a0735d8 	bls	0x1cfe00
    269c:	682858d5 	stmdavs	r8!, {r0, r2, r4, r6, r7, fp, ip, lr}
    26a0:	fffef7ff 			; <UNDEFINED> instruction: 0xfffef7ff
    26a4:	2b046833 	blcs	0x11c778
    26a8:	ad4ff77e 	stclge	7, cr15, [pc, #-504]	; 0x24b8
    26ac:	46599b06 	ldrbmi	r9, [r9], -r6, lsl #22
    26b0:	93036828 	movwls	r6, #14376	; 0x3828
    26b4:	3a10ee18 	bcc	0x43df1c
    26b8:	2704f8df 			; <UNDEFINED> instruction: 0x2704f8df
    26bc:	8a00edcd 	bhi	0x3ddf8
    26c0:	e9cd447a 	stmib	sp, {r1, r3, r4, r5, r6, sl, lr}^
    26c4:	463b9301 	ldrtmi	r9, [fp], -r1, lsl #6
    26c8:	fffef7ff 			; <UNDEFINED> instruction: 0xfffef7ff
    26cc:	bd3df7fe 	ldclt	7, cr15, [sp, #-1016]!	; 0xfffffc08
    26d0:	16f0f8df 	usatne	pc, #16, pc, asr #17	; <UNPREDICTABLE>
    26d4:	2a10ee1a 	bcs	0x43df44
    26d8:	46304643 	ldrtmi	r4, [r0], -r3, asr #12
    26dc:	f7ff4479 			; <UNDEFINED> instruction: 0xf7ff4479
    26e0:	f8dffffe 			; <UNDEFINED> instruction: 0xf8dffffe
    26e4:	463016e4 	ldrtmi	r1, [r0], -r4, ror #13
    26e8:	f7ff4479 			; <UNDEFINED> instruction: 0xf7ff4479
    26ec:	f8dffffe 			; <UNDEFINED> instruction: 0xf8dffffe
    26f0:	463016dc 			; <UNDEFINED> instruction: 0x463016dc
    26f4:	f7ff4479 			; <UNDEFINED> instruction: 0xf7ff4479
    26f8:	f8dffffe 			; <UNDEFINED> instruction: 0xf8dffffe
    26fc:	9a073574 	bls	0x1cfcd4
    2700:	681858d3 	ldmdavs	r8, {r0, r1, r4, r6, r7, fp, ip, lr}
    2704:	fffef7ff 			; <UNDEFINED> instruction: 0xfffef7ff
    2708:	bcf9f7fe 	ldcllt	7, cr15, [r9], #1016	; 0x3f8
    270c:	16c0f8df 			; <UNDEFINED> instruction: 0x16c0f8df
    2710:	2a10ee1a 	bcs	0x43df80
    2714:	46584643 	ldrbmi	r4, [r8], -r3, asr #12
    2718:	f7ff4479 			; <UNDEFINED> instruction: 0xf7ff4479
    271c:	f8dffffe 			; <UNDEFINED> instruction: 0xf8dffffe
    2720:	465816b4 			; <UNDEFINED> instruction: 0x465816b4
    2724:	f7ff4479 			; <UNDEFINED> instruction: 0xf7ff4479
    2728:	f8dffffe 			; <UNDEFINED> instruction: 0xf8dffffe
    272c:	465816ac 	ldrbmi	r1, [r8], -ip, lsr #13
    2730:	f7ff4479 			; <UNDEFINED> instruction: 0xf7ff4479
    2734:	f8dffffe 			; <UNDEFINED> instruction: 0xf8dffffe
    2738:	9a073538 	bls	0x1cfc20
    273c:	682858d5 	stmdavs	r8!, {r0, r2, r4, r6, r7, fp, ip, lr}
    2740:	fffef7ff 			; <UNDEFINED> instruction: 0xfffef7ff
    2744:	2b046833 	blcs	0x11c818
    2748:	ad21f77e 	stcge	7, cr15, [r1, #-504]!	; 0xfffffe08
    274c:	46599b06 	ldrbmi	r9, [r9], -r6, lsl #22
    2750:	93026828 	movwls	r6, #10280	; 0x2828
    2754:	3a10ee18 	bcc	0x43dfbc
    2758:	2680f8df 	pkhtbcs	pc, r0, pc, asr #17	; <UNPREDICTABLE>
    275c:	e9cd447a 	stmib	sp, {r1, r3, r4, r5, r6, sl, lr}^
    2760:	463b9300 	ldrtmi	r9, [fp], -r0, lsl #6
    2764:	fffef7ff 			; <UNDEFINED> instruction: 0xfffef7ff
    2768:	bd11f7fe 	ldclt	7, cr15, [r1, #-1016]	; 0xfffffc08
    276c:	1670f8df 			; <UNDEFINED> instruction: 0x1670f8df
    2770:	2a10ee1a 	bcs	0x43dfe0
    2774:	2001465b 	andcs	r4, r1, fp, asr r6
    2778:	f7ff4479 			; <UNDEFINED> instruction: 0xf7ff4479
    277c:	2020fffe 	strdcs	pc, [r0], -lr	; <UNPREDICTABLE>
    2780:	fffef7ff 			; <UNDEFINED> instruction: 0xfffef7ff
    2784:	165cf8df 			; <UNDEFINED> instruction: 0x165cf8df
    2788:	44792001 	ldrbtmi	r2, [r9], #-1
    278c:	fffef7ff 			; <UNDEFINED> instruction: 0xfffef7ff
    2790:	34dcf8df 	ldrbcc	pc, [ip], #2271	; 0x8df	; <UNPREDICTABLE>
    2794:	58d39a07 	ldmpl	r3, {r0, r1, r2, r9, fp, ip, pc}^
    2798:	f7ff6818 			; <UNDEFINED> instruction: 0xf7ff6818
    279c:	42befffe 	adcsmi	pc, lr, #1016	; 0x3f8
    27a0:	adaff6be 	stcge	6, cr15, [pc, #760]!	; 0x2aa0
    27a4:	bd96f7fe 	ldclt	7, cr15, [r6, #1016]	; 0x3f8
    27a8:	163cf8df 			; <UNDEFINED> instruction: 0x163cf8df
    27ac:	20014613 	andcs	r4, r1, r3, lsl r6
    27b0:	2a10ee1a 	bcs	0x43e020
    27b4:	f7ff4479 			; <UNDEFINED> instruction: 0xf7ff4479
    27b8:	2020fffe 	strdcs	pc, [r0], -lr	; <UNPREDICTABLE>
    27bc:	fffef7ff 			; <UNDEFINED> instruction: 0xfffef7ff
    27c0:	1628f8df 			; <UNDEFINED> instruction: 0x1628f8df
    27c4:	44792001 	ldrbtmi	r2, [r9], #-1
    27c8:	fffef7ff 			; <UNDEFINED> instruction: 0xfffef7ff
    27cc:	34a0f8df 	strtcc	pc, [r0], #2271	; 0x8df
    27d0:	58d39a07 	ldmpl	r3, {r0, r1, r2, r9, fp, ip, pc}^
    27d4:	f7ff6818 			; <UNDEFINED> instruction: 0xf7ff6818
    27d8:	f7fefffe 			; <UNDEFINED> instruction: 0xf7fefffe
    27dc:	f8dfbcff 			; <UNDEFINED> instruction: 0xf8dfbcff
    27e0:	ee1a1610 	mrc	6, 0, r1, cr10, cr0, {0}
    27e4:	462b2a10 			; <UNDEFINED> instruction: 0x462b2a10
    27e8:	44794640 	ldrbtmi	r4, [r9], #-1600	; 0xfffff9c0
    27ec:	fffef7ff 			; <UNDEFINED> instruction: 0xfffef7ff
    27f0:	1600f8df 			; <UNDEFINED> instruction: 0x1600f8df
    27f4:	44794640 	ldrbtmi	r4, [r9], #-1600	; 0xfffff9c0
    27f8:	fffef7ff 			; <UNDEFINED> instruction: 0xfffef7ff
    27fc:	15f8f8df 	ldrbne	pc, [r8, #2271]!	; 0x8df	; <UNPREDICTABLE>
    2800:	44794640 	ldrbtmi	r4, [r9], #-1600	; 0xfffff9c0
    2804:	fffef7ff 			; <UNDEFINED> instruction: 0xfffef7ff
    2808:	3464f8df 	strbtcc	pc, [r4], #-2271	; 0xfffff721	; <UNPREDICTABLE>
    280c:	58d39a07 	ldmpl	r3, {r0, r1, r2, r9, fp, ip, pc}^
    2810:	f7ff6818 			; <UNDEFINED> instruction: 0xf7ff6818
    2814:	f7fefffe 			; <UNDEFINED> instruction: 0xf7fefffe
    2818:	f8dfbdc0 			; <UNDEFINED> instruction: 0xf8dfbdc0
    281c:	ee1a15e0 	cftruncd32	mvfx1, mvd10
    2820:	462b2a10 			; <UNDEFINED> instruction: 0x462b2a10
    2824:	44794658 	ldrbtmi	r4, [r9], #-1624	; 0xfffff9a8
    2828:	fffef7ff 			; <UNDEFINED> instruction: 0xfffef7ff
    282c:	f7ff2020 			; <UNDEFINED> instruction: 0xf7ff2020
    2830:	f8dffffe 			; <UNDEFINED> instruction: 0xf8dffffe
    2834:	465815cc 	ldrbmi	r1, [r8], -ip, asr #11
    2838:	f7ff4479 			; <UNDEFINED> instruction: 0xf7ff4479
    283c:	f8dffffe 			; <UNDEFINED> instruction: 0xf8dffffe
    2840:	9a073430 	bls	0x1cf908
    2844:	681858d3 	ldmdavs	r8, {r0, r1, r4, r6, r7, fp, ip, lr}
    2848:	fffef7ff 			; <UNDEFINED> instruction: 0xfffef7ff
    284c:	bdfbf7fe 	ldcllt	7, cr15, [fp, #1016]!	; 0x3f8
    2850:	15b0f8df 	ldrne	pc, [r0, #2271]!	; 0x8df
    2854:	2a10ee1a 	bcs	0x43e0c4
    2858:	2001462b 	andcs	r4, r1, fp, lsr #12
    285c:	f7ff4479 			; <UNDEFINED> instruction: 0xf7ff4479
    2860:	f8dffffe 			; <UNDEFINED> instruction: 0xf8dffffe
    2864:	200115a4 	andcs	r1, r1, r4, lsr #11
    2868:	f7ff4479 			; <UNDEFINED> instruction: 0xf7ff4479
    286c:	f8dffffe 			; <UNDEFINED> instruction: 0xf8dffffe
    2870:	2001159c 	mulcs	r1, ip, r5
    2874:	f7ff4479 			; <UNDEFINED> instruction: 0xf7ff4479
    2878:	4bfdfffe 	blmi	0xfff82878
    287c:	58d39a07 	ldmpl	r3, {r0, r1, r2, r9, fp, ip, pc}^
    2880:	f7ff6818 			; <UNDEFINED> instruction: 0xf7ff6818
    2884:	f7fefffe 			; <UNDEFINED> instruction: 0xf7fefffe
    2888:	f8dfbdbd 			; <UNDEFINED> instruction: 0xf8dfbdbd
    288c:	ee1a1584 	cdp	5, 1, cr1, cr10, cr4, {4}
    2890:	46432a10 			; <UNDEFINED> instruction: 0x46432a10
    2894:	44794658 	ldrbtmi	r4, [r9], #-1624	; 0xfffff9a8
    2898:	fffef7ff 			; <UNDEFINED> instruction: 0xfffef7ff
    289c:	f7ff2020 			; <UNDEFINED> instruction: 0xf7ff2020
    28a0:	f8dffffe 			; <UNDEFINED> instruction: 0xf8dffffe
    28a4:	46581570 			; <UNDEFINED> instruction: 0x46581570
    28a8:	f7ff4479 			; <UNDEFINED> instruction: 0xf7ff4479
    28ac:	4bf0fffe 	blmi	0xffc428ac
    28b0:	58d39a07 	ldmpl	r3, {r0, r1, r2, r9, fp, ip, pc}^
    28b4:	f7ff6818 			; <UNDEFINED> instruction: 0xf7ff6818
    28b8:	f7fefffe 			; <UNDEFINED> instruction: 0xf7fefffe
    28bc:	f8dfbe17 			; <UNDEFINED> instruction: 0xf8dfbe17
    28c0:	ee1a1558 	mrc	5, 0, r1, cr10, cr8, {2}
    28c4:	46432a10 			; <UNDEFINED> instruction: 0x46432a10
    28c8:	44794658 	ldrbtmi	r4, [r9], #-1624	; 0xfffff9a8
    28cc:	fffef7ff 			; <UNDEFINED> instruction: 0xfffef7ff
    28d0:	f7ff2020 			; <UNDEFINED> instruction: 0xf7ff2020
    28d4:	f8dffffe 			; <UNDEFINED> instruction: 0xf8dffffe
    28d8:	46581544 	ldrbmi	r1, [r8], -r4, asr #10
    28dc:	f7ff4479 			; <UNDEFINED> instruction: 0xf7ff4479
    28e0:	4be3fffe 	blmi	0xff9028e0
    28e4:	58d39a07 	ldmpl	r3, {r0, r1, r2, r9, fp, ip, pc}^
    28e8:	f7ff6818 			; <UNDEFINED> instruction: 0xf7ff6818
    28ec:	f7fefffe 			; <UNDEFINED> instruction: 0xf7fefffe
    28f0:	f8dfbdd4 			; <UNDEFINED> instruction: 0xf8dfbdd4
    28f4:	ee1a152c 	cfmul64	mvdx1, mvdx10, mvdx12
    28f8:	465b2a10 			; <UNDEFINED> instruction: 0x465b2a10
    28fc:	44792001 	ldrbtmi	r2, [r9], #-1
    2900:	fffef7ff 			; <UNDEFINED> instruction: 0xfffef7ff
    2904:	f7ff2020 			; <UNDEFINED> instruction: 0xf7ff2020
    2908:	f8dffffe 			; <UNDEFINED> instruction: 0xf8dffffe
    290c:	20011518 	andcs	r1, r1, r8, lsl r5
    2910:	f7ff4479 			; <UNDEFINED> instruction: 0xf7ff4479
    2914:	4bd6fffe 	blmi	0xff5c2914
    2918:	58d39a07 	ldmpl	r3, {r0, r1, r2, r9, fp, ip, pc}^
    291c:	f7ff6818 			; <UNDEFINED> instruction: 0xf7ff6818
    2920:	f7fefffe 			; <UNDEFINED> instruction: 0xf7fefffe
    2924:	f8dfbe08 			; <UNDEFINED> instruction: 0xf8dfbe08
    2928:	ee1a1500 	cfmul32	mvfx1, mvfx10, mvfx0
    292c:	46432a10 			; <UNDEFINED> instruction: 0x46432a10
    2930:	44792001 	ldrbtmi	r2, [r9], #-1
    2934:	fffef7ff 			; <UNDEFINED> instruction: 0xfffef7ff
    2938:	14f0f8df 	ldrbtne	pc, [r0], #2271	; 0x8df	; <UNPREDICTABLE>
    293c:	44792001 	ldrbtmi	r2, [r9], #-1
    2940:	fffef7ff 			; <UNDEFINED> instruction: 0xfffef7ff
    2944:	14e8f8df 	strbtne	pc, [r8], #2271	; 0x8df	; <UNPREDICTABLE>
    2948:	44792001 	ldrbtmi	r2, [r9], #-1
    294c:	fffef7ff 			; <UNDEFINED> instruction: 0xfffef7ff
    2950:	9a074bc7 	bls	0x1d5874
    2954:	681858d3 	ldmdavs	r8, {r0, r1, r4, r6, r7, fp, ip, lr}
    2958:	fffef7ff 			; <UNDEFINED> instruction: 0xfffef7ff
    295c:	f77f42af 			; <UNDEFINED> instruction: 0xf77f42af
    2960:	4632a9e6 	ldrtmi	sl, [r2], -r6, ror #19
    2964:	9b061b7e 	blls	0x189764
    2968:	0c00f04f 	stceq	0, cr15, [r0], {79}	; 0x4f
    296c:	46499301 	strbmi	r9, [r9], -r1, lsl #6
    2970:	8a00ed8d 	bhi	0x3dfac
    2974:	46504633 			; <UNDEFINED> instruction: 0x46504633
    2978:	c006f809 	andgt	pc, r6, r9, lsl #16
    297c:	fffef7ff 			; <UNDEFINED> instruction: 0xfffef7ff
    2980:	f2812800 	vmlal.s8	q1, d1, d0
    2984:	f819813c 			; <UNDEFINED> instruction: 0xf819813c
    2988:	2b003006 	blcs	0xe9a8
    298c:	a9cff43f 	stmibge	pc, {r0, r1, r2, r3, r4, r5, sl, ip, sp, lr, pc}^	; <UNPREDICTABLE>
    2990:	14a0f8df 	strtne	pc, [r0], #2271	; 0x8df
    2994:	20014642 	andcs	r4, r1, r2, asr #12
    2998:	f7ff4479 			; <UNDEFINED> instruction: 0xf7ff4479
    299c:	f8dffffe 			; <UNDEFINED> instruction: 0xf8dffffe
    29a0:	463b1498 			; <UNDEFINED> instruction: 0x463b1498
    29a4:	4479462a 	ldrbtmi	r4, [r9], #-1578	; 0xfffff9d6
    29a8:	f7ff2001 			; <UNDEFINED> instruction: 0xf7ff2001
    29ac:	f8dffffe 			; <UNDEFINED> instruction: 0xf8dffffe
    29b0:	ee1a148c 	cdp	4, 1, cr1, cr10, cr12, {4}
    29b4:	ee1d3a10 	vmov	r3, s26
    29b8:	44792a10 	ldrbtmi	r2, [r9], #-2576	; 0xfffff5f0
    29bc:	f7ff2001 			; <UNDEFINED> instruction: 0xf7ff2001
    29c0:	2001fffe 	strdcs	pc, [r1], -lr
    29c4:	fffef7ff 			; <UNDEFINED> instruction: 0xfffef7ff
    29c8:	1474f8df 	ldrbtne	pc, [r4], #-2271	; 0xfffff721	; <UNPREDICTABLE>
    29cc:	2a10ee1a 	bcs	0x43e23c
    29d0:	20014633 	andcs	r4, r1, r3, lsr r6
    29d4:	f7ff4479 			; <UNDEFINED> instruction: 0xf7ff4479
    29d8:	f8dffffe 			; <UNDEFINED> instruction: 0xf8dffffe
    29dc:	20011468 	andcs	r1, r1, r8, ror #8
    29e0:	f7ff4479 			; <UNDEFINED> instruction: 0xf7ff4479
    29e4:	f8dffffe 			; <UNDEFINED> instruction: 0xf8dffffe
    29e8:	20011460 	andcs	r1, r1, r0, ror #8
    29ec:	f7ff4479 			; <UNDEFINED> instruction: 0xf7ff4479
    29f0:	4b9ffffe 	blmi	0xfe8029f0
    29f4:	58d39a07 	ldmpl	r3, {r0, r1, r2, r9, fp, ip, pc}^
    29f8:	f7ff6818 			; <UNDEFINED> instruction: 0xf7ff6818
    29fc:	f7fefffe 			; <UNDEFINED> instruction: 0xf7fefffe
    2a00:	f8dfbe6d 			; <UNDEFINED> instruction: 0xf8dfbe6d
    2a04:	ee1a1448 	cdp	4, 1, cr1, cr10, cr8, {2}
    2a08:	46332a10 			; <UNDEFINED> instruction: 0x46332a10
    2a0c:	44792001 	ldrbtmi	r2, [r9], #-1
    2a10:	fffef7ff 			; <UNDEFINED> instruction: 0xfffef7ff
    2a14:	1438f8df 	ldrtne	pc, [r8], #-2271	; 0xfffff721	; <UNPREDICTABLE>
    2a18:	44792001 	ldrbtmi	r2, [r9], #-1
    2a1c:	fffef7ff 			; <UNDEFINED> instruction: 0xfffef7ff
    2a20:	1430f8df 	ldrtne	pc, [r0], #-2271	; 0xfffff721	; <UNPREDICTABLE>
    2a24:	44792001 	ldrbtmi	r2, [r9], #-1
    2a28:	fffef7ff 			; <UNDEFINED> instruction: 0xfffef7ff
    2a2c:	9a074b90 	bls	0x1d5874
    2a30:	681858d3 	ldmdavs	r8, {r0, r1, r4, r6, r7, fp, ip, lr}
    2a34:	fffef7ff 			; <UNDEFINED> instruction: 0xfffef7ff
    2a38:	be32f7fe 	mrclt	7, 1, APSR_nzcv, cr2, cr14, {7}
    2a3c:	1418f8df 	ldrne	pc, [r8], #-2271	; 0xfffff721
    2a40:	2a10ee1a 	bcs	0x43e2b0
    2a44:	20014623 	andcs	r4, r1, r3, lsr #12
    2a48:	f7ff4479 			; <UNDEFINED> instruction: 0xf7ff4479
    2a4c:	2020fffe 	strdcs	pc, [r0], -lr	; <UNPREDICTABLE>
    2a50:	fffef7ff 			; <UNDEFINED> instruction: 0xfffef7ff
    2a54:	1404f8df 	strne	pc, [r4], #-2271	; 0xfffff721
    2a58:	44792001 	ldrbtmi	r2, [r9], #-1
    2a5c:	fffef7ff 			; <UNDEFINED> instruction: 0xfffef7ff
    2a60:	9a074b83 	bls	0x1d5874
    2a64:	681858d3 	ldmdavs	r8, {r0, r1, r4, r6, r7, fp, ip, lr}
    2a68:	fffef7ff 			; <UNDEFINED> instruction: 0xfffef7ff
    2a6c:	be55f7fe 	mrclt	7, 2, APSR_nzcv, cr5, cr14, {7}
    2a70:	461349fb 			; <UNDEFINED> instruction: 0x461349fb
    2a74:	ee1a2001 	cdp	0, 1, cr2, cr10, cr1, {0}
    2a78:	44792a10 	ldrbtmi	r2, [r9], #-2576	; 0xfffff5f0
    2a7c:	fffef7ff 			; <UNDEFINED> instruction: 0xfffef7ff
    2a80:	f7ff2020 			; <UNDEFINED> instruction: 0xf7ff2020
    2a84:	49f7fffe 	ldmibmi	r7!, {r1, r2, r3, r4, r5, r6, r7, r8, r9, sl, fp, ip, sp, lr, pc}^
    2a88:	44792001 	ldrbtmi	r2, [r9], #-1
    2a8c:	fffef7ff 			; <UNDEFINED> instruction: 0xfffef7ff
    2a90:	9a074b77 	bls	0x1d5874
    2a94:	681858d3 	ldmdavs	r8, {r0, r1, r4, r6, r7, fp, ip, lr}
    2a98:	fffef7ff 			; <UNDEFINED> instruction: 0xfffef7ff
    2a9c:	be62f7fe 	mcrlt	7, 3, pc, cr2, cr14, {7}	; <UNPREDICTABLE>
    2aa0:	461349f1 			; <UNDEFINED> instruction: 0x461349f1
    2aa4:	ee1a2001 	cdp	0, 1, cr2, cr10, cr1, {0}
    2aa8:	44792a10 	ldrbtmi	r2, [r9], #-2576	; 0xfffff5f0
    2aac:	fffef7ff 			; <UNDEFINED> instruction: 0xfffef7ff
    2ab0:	f7ff2020 			; <UNDEFINED> instruction: 0xf7ff2020
    2ab4:	49edfffe 	stmibmi	sp!, {r1, r2, r3, r4, r5, r6, r7, r8, r9, sl, fp, ip, sp, lr, pc}^
    2ab8:	44792001 	ldrbtmi	r2, [r9], #-1
    2abc:	fffef7ff 			; <UNDEFINED> instruction: 0xfffef7ff
    2ac0:	9a074b6b 	bls	0x1d5874
    2ac4:	681858d3 	ldmdavs	r8, {r0, r1, r4, r6, r7, fp, ip, lr}
    2ac8:	fffef7ff 			; <UNDEFINED> instruction: 0xfffef7ff
    2acc:	be9af7fe 	mrclt	7, 4, APSR_nzcv, cr10, cr14, {7}
    2ad0:	461349e7 	ldrmi	r4, [r3], -r7, ror #19
    2ad4:	ee1a2001 	cdp	0, 1, cr2, cr10, cr1, {0}
    2ad8:	44792a10 	ldrbtmi	r2, [r9], #-2576	; 0xfffff5f0
    2adc:	fffef7ff 			; <UNDEFINED> instruction: 0xfffef7ff
    2ae0:	f7ff2020 			; <UNDEFINED> instruction: 0xf7ff2020
    2ae4:	49e3fffe 	stmibmi	r3!, {r1, r2, r3, r4, r5, r6, r7, r8, r9, sl, fp, ip, sp, lr, pc}^
    2ae8:	44792001 	ldrbtmi	r2, [r9], #-1
    2aec:	fffef7ff 			; <UNDEFINED> instruction: 0xfffef7ff
    2af0:	9a074b5f 	bls	0x1d5874
    2af4:	681858d3 	ldmdavs	r8, {r0, r1, r4, r6, r7, fp, ip, lr}
    2af8:	fffef7ff 			; <UNDEFINED> instruction: 0xfffef7ff
    2afc:	be61f7fe 	mcrlt	7, 3, pc, cr1, cr14, {7}	; <UNPREDICTABLE>
    2b00:	461349dd 			; <UNDEFINED> instruction: 0x461349dd
    2b04:	ee1a2001 	cdp	0, 1, cr2, cr10, cr1, {0}
    2b08:	44792a10 	ldrbtmi	r2, [r9], #-2576	; 0xfffff5f0
    2b0c:	fffef7ff 			; <UNDEFINED> instruction: 0xfffef7ff
    2b10:	f7ff2020 			; <UNDEFINED> instruction: 0xf7ff2020
    2b14:	49d9fffe 	ldmibmi	r9, {r1, r2, r3, r4, r5, r6, r7, r8, r9, sl, fp, ip, sp, lr, pc}^
    2b18:	44792001 	ldrbtmi	r2, [r9], #-1
    2b1c:	fffef7ff 			; <UNDEFINED> instruction: 0xfffef7ff
    2b20:	9a074b53 	bls	0x1d5874
    2b24:	681858d3 	ldmdavs	r8, {r0, r1, r4, r6, r7, fp, ip, lr}
    2b28:	fffef7ff 			; <UNDEFINED> instruction: 0xfffef7ff
    2b2c:	bee6f7fe 	mcrlt	7, 7, pc, cr6, cr14, {7}	; <UNPREDICTABLE>
    2b30:	ee1a49d3 			; <UNDEFINED> instruction: 0xee1a49d3
    2b34:	46232a10 			; <UNDEFINED> instruction: 0x46232a10
    2b38:	44792001 	ldrbtmi	r2, [r9], #-1
    2b3c:	fffef7ff 			; <UNDEFINED> instruction: 0xfffef7ff
    2b40:	f7ff2020 			; <UNDEFINED> instruction: 0xf7ff2020
    2b44:	49cffffe 	stmibmi	pc, {r1, r2, r3, r4, r5, r6, r7, r8, r9, sl, fp, ip, sp, lr, pc}^	; <UNPREDICTABLE>
    2b48:	44792001 	ldrbtmi	r2, [r9], #-1
    2b4c:	fffef7ff 			; <UNDEFINED> instruction: 0xfffef7ff
    2b50:	9a074b47 	bls	0x1d5874
    2b54:	681858d3 	ldmdavs	r8, {r0, r1, r4, r6, r7, fp, ip, lr}
    2b58:	fffef7ff 			; <UNDEFINED> instruction: 0xfffef7ff
    2b5c:	bef3f7fe 	mrclt	7, 7, APSR_nzcv, cr3, cr14, {7}
    2b60:	ee1a49c9 	vnmla.f16	s8, s21, s18
    2b64:	46332a10 			; <UNDEFINED> instruction: 0x46332a10
    2b68:	44792001 	ldrbtmi	r2, [r9], #-1
    2b6c:	fffef7ff 			; <UNDEFINED> instruction: 0xfffef7ff
    2b70:	f7ff2020 			; <UNDEFINED> instruction: 0xf7ff2020
    2b74:	49c5fffe 	stmibmi	r5, {r1, r2, r3, r4, r5, r6, r7, r8, r9, sl, fp, ip, sp, lr, pc}^
    2b78:	44792001 	ldrbtmi	r2, [r9], #-1
    2b7c:	fffef7ff 			; <UNDEFINED> instruction: 0xfffef7ff
    2b80:	9a074b3b 	bls	0x1d5874
    2b84:	681858d3 	ldmdavs	r8, {r0, r1, r4, r6, r7, fp, ip, lr}
    2b88:	fffef7ff 			; <UNDEFINED> instruction: 0xfffef7ff
    2b8c:	f8539b0f 			; <UNDEFINED> instruction: 0xf8539b0f
    2b90:	f7fe3c48 			; <UNDEFINED> instruction: 0xf7fe3c48
    2b94:	49bebf37 	ldmibmi	lr!, {r0, r1, r2, r4, r5, r8, r9, sl, fp, ip, sp, pc}
    2b98:	2a10ee1a 	bcs	0x43e408
    2b9c:	20014633 	andcs	r4, r1, r3, lsr r6
    2ba0:	f7ff4479 			; <UNDEFINED> instruction: 0xf7ff4479
    2ba4:	2020fffe 	strdcs	pc, [r0], -lr	; <UNPREDICTABLE>
    2ba8:	fffef7ff 			; <UNDEFINED> instruction: 0xfffef7ff
    2bac:	200149b9 			; <UNDEFINED> instruction: 0x200149b9
    2bb0:	f7ff4479 			; <UNDEFINED> instruction: 0xf7ff4479
    2bb4:	4b2efffe 	blmi	0xbc2bb4
    2bb8:	58d39a07 	ldmpl	r3, {r0, r1, r2, r9, fp, ip, pc}^
    2bbc:	f7ff6818 			; <UNDEFINED> instruction: 0xf7ff6818
    2bc0:	f7fdfffe 			; <UNDEFINED> instruction: 0xf7fdfffe
    2bc4:	49b4bece 	ldmibmi	r4!, {r1, r2, r3, r6, r7, r9, sl, fp, ip, sp, pc}
    2bc8:	2a10ee1a 	bcs	0x43e438
    2bcc:	20014623 	andcs	r4, r1, r3, lsr #12
    2bd0:	f7ff4479 			; <UNDEFINED> instruction: 0xf7ff4479
    2bd4:	49b1fffe 	ldmibmi	r1!, {r1, r2, r3, r4, r5, r6, r7, r8, r9, sl, fp, ip, sp, lr, pc}
    2bd8:	44792001 	ldrbtmi	r2, [r9], #-1
    2bdc:	fffef7ff 			; <UNDEFINED> instruction: 0xfffef7ff
    2be0:	200149af 	andcs	r4, r1, pc, lsr #19
    2be4:	f7ff4479 			; <UNDEFINED> instruction: 0xf7ff4479
    2be8:	4b21fffe 	blmi	0x882be8
    2bec:	58d39a07 	ldmpl	r3, {r0, r1, r2, r9, fp, ip, pc}^
    2bf0:	f7ff6818 			; <UNDEFINED> instruction: 0xf7ff6818
    2bf4:	f7fdfffe 			; <UNDEFINED> instruction: 0xf7fdfffe
    2bf8:	49aabe39 	stmibmi	sl!, {r0, r3, r4, r5, r9, sl, fp, ip, sp, pc}
    2bfc:	2a10ee1a 	bcs	0x43e46c
    2c00:	20014633 	andcs	r4, r1, r3, lsr r6
    2c04:	f7ff4479 			; <UNDEFINED> instruction: 0xf7ff4479
    2c08:	49a7fffe 	stmibmi	r7!, {r1, r2, r3, r4, r5, r6, r7, r8, r9, sl, fp, ip, sp, lr, pc}
    2c0c:	44792001 	ldrbtmi	r2, [r9], #-1
    2c10:	fffef7ff 			; <UNDEFINED> instruction: 0xfffef7ff
    2c14:	200149a5 	andcs	r4, r1, r5, lsr #19
    2c18:	f7ff4479 			; <UNDEFINED> instruction: 0xf7ff4479
    2c1c:	4b14fffe 	blmi	0x542c1c
    2c20:	58d39a07 	ldmpl	r3, {r0, r1, r2, r9, fp, ip, pc}^
    2c24:	f7ff6818 			; <UNDEFINED> instruction: 0xf7ff6818
    2c28:	f7fefffe 			; <UNDEFINED> instruction: 0xf7fefffe
    2c2c:	49a0b866 	stmibmi	r0!, {r1, r2, r5, r6, fp, ip, sp, pc}
    2c30:	2a10ee1a 	bcs	0x43e4a0
    2c34:	20014633 	andcs	r4, r1, r3, lsr r6
    2c38:	f7ff4479 			; <UNDEFINED> instruction: 0xf7ff4479
    2c3c:	499dfffe 	ldmibmi	sp, {r1, r2, r3, r4, r5, r6, r7, r8, r9, sl, fp, ip, sp, lr, pc}
    2c40:	44792001 	ldrbtmi	r2, [r9], #-1
    2c44:	fffef7ff 			; <UNDEFINED> instruction: 0xfffef7ff
    2c48:	2001499b 	mulcs	r1, fp, r9
    2c4c:	f7ff4479 			; <UNDEFINED> instruction: 0xf7ff4479
    2c50:	4b07fffe 	blmi	0x202c50
    2c54:	58d39a07 	ldmpl	r3, {r0, r1, r2, r9, fp, ip, pc}^
    2c58:	f7ff6818 			; <UNDEFINED> instruction: 0xf7ff6818
    2c5c:	f7fefffe 			; <UNDEFINED> instruction: 0xf7fefffe
    2c60:	bf00b805 	svclt	0x0000b805
    2c64:	00000dc8 	andeq	r0, r0, r8, asr #27
    2c68:	00000dc0 	andeq	r0, r0, r0, asr #27
    2c6c:	00000db8 			; <UNDEFINED> instruction: 0x00000db8
    2c70:	00000000 	andeq	r0, r0, r0
    2c74:	00000d86 	andeq	r0, r0, r6, lsl #27
    2c78:	00000d54 	andeq	r0, r0, r4, asr sp
    2c7c:	00000d04 	andeq	r0, r0, r4, lsl #26
    2c80:	00000cf0 	strdeq	r0, [r0], -r0	; <UNPREDICTABLE>
    2c84:	00000cc0 	andeq	r0, r0, r0, asr #25
    2c88:	00000ca6 	andeq	r0, r0, r6, lsr #25
    2c8c:	00000c9e 	muleq	r0, lr, ip
    2c90:	00000c96 	muleq	r0, r6, ip
    2c94:	00000c76 	andeq	r0, r0, r6, ror ip
    2c98:	00000c6e 	andeq	r0, r0, lr, ror #24
    2c9c:	00000c66 	andeq	r0, r0, r6, ror #24
    2ca0:	00000c44 	andeq	r0, r0, r4, asr #24
    2ca4:	00000c0a 	andeq	r0, r0, sl, lsl #24
    2ca8:	00000bbe 			; <UNDEFINED> instruction: 0x00000bbe
    2cac:	00000bb6 			; <UNDEFINED> instruction: 0x00000bb6
    2cb0:	00000ba8 	andeq	r0, r0, r8, lsr #23
    2cb4:	00000b92 	muleq	r0, r2, fp
    2cb8:	00000b8a 	andeq	r0, r0, sl, lsl #23
    2cbc:	00000b82 	andeq	r0, r0, r2, lsl #23
    2cc0:	00000b62 	andeq	r0, r0, r2, ror #22
    2cc4:	00000b5a 	andeq	r0, r0, sl, asr fp
    2cc8:	00000b52 	andeq	r0, r0, r2, asr fp
    2ccc:	00000b32 	andeq	r0, r0, r2, lsr fp
    2cd0:	00000b2a 	andeq	r0, r0, sl, lsr #22
    2cd4:	00000b22 	andeq	r0, r0, r2, lsr #22
    2cd8:	00000b02 	andeq	r0, r0, r2, lsl #22
    2cdc:	00000afa 	strdeq	r0, [r0], -sl
    2ce0:	00000af2 	strdeq	r0, [r0], -r2
    2ce4:	00000ad2 	ldrdeq	r0, [r0], -r2
    2ce8:	00000aca 	andeq	r0, r0, sl, asr #21
    2cec:	00000ac2 	andeq	r0, r0, r2, asr #21
    2cf0:	00000aa2 	andeq	r0, r0, r2, lsr #21
    2cf4:	00000a9a 	muleq	r0, sl, sl
    2cf8:	00000a92 	muleq	r0, r2, sl
    2cfc:	00000a72 	andeq	r0, r0, r2, ror sl
    2d00:	00000a6a 	andeq	r0, r0, sl, ror #20
    2d04:	00000a62 	andeq	r0, r0, r2, ror #20
    2d08:	00000a42 	andeq	r0, r0, r2, asr #20
    2d0c:	00000a34 	andeq	r0, r0, r4, lsr sl
    2d10:	00000a14 	andeq	r0, r0, r4, lsl sl
    2d14:	00000a06 	andeq	r0, r0, r6, lsl #20
    2d18:	000009e6 	andeq	r0, r0, r6, ror #19
    2d1c:	000009d8 	ldrdeq	r0, [r0], -r8
    2d20:	000009b8 			; <UNDEFINED> instruction: 0x000009b8
    2d24:	000009aa 	andeq	r0, r0, sl, lsr #19
    2d28:	0000098a 	andeq	r0, r0, sl, lsl #19
    2d2c:	0000097c 	andeq	r0, r0, ip, ror r9
    2d30:	0000095c 	andeq	r0, r0, ip, asr r9
    2d34:	00000954 	andeq	r0, r0, r4, asr r9
    2d38:	0000094c 	andeq	r0, r0, ip, asr #18
    2d3c:	0000092c 	andeq	r0, r0, ip, lsr #18
    2d40:	00000924 	andeq	r0, r0, r4, lsr #18
    2d44:	0000091c 	andeq	r0, r0, ip, lsl r9
    2d48:	000008fc 	strdeq	r0, [r0], -ip
    2d4c:	000008f4 	strdeq	r0, [r0], -r4
    2d50:	000008ec 	andeq	r0, r0, ip, ror #17
    2d54:	000008cc 	andeq	r0, r0, ip, asr #17
    2d58:	000008c4 	andeq	r0, r0, r4, asr #17
    2d5c:	000008bc 			; <UNDEFINED> instruction: 0x000008bc
    2d60:	0000089c 	muleq	r0, ip, r8
    2d64:	00000894 	muleq	r0, r4, r8
    2d68:	0000088c 	andeq	r0, r0, ip, lsl #17
    2d6c:	0000086c 	andeq	r0, r0, ip, ror #16
    2d70:	00000864 	andeq	r0, r0, r4, ror #16
    2d74:	0000085c 	andeq	r0, r0, ip, asr r8
    2d78:	0000083c 	andeq	r0, r0, ip, lsr r8
    2d7c:	00000834 	andeq	r0, r0, r4, lsr r8
    2d80:	0000082c 	andeq	r0, r0, ip, lsr #16
    2d84:	000007fa 	strdeq	r0, [r0], -sl
    2d88:	000007f2 	strdeq	r0, [r0], -r2
    2d8c:	000007ea 	andeq	r0, r0, sl, ror #15
    2d90:	000007ca 	andeq	r0, r0, sl, asr #15
    2d94:	000007c0 	andeq	r0, r0, r0, asr #15
    2d98:	000007b8 			; <UNDEFINED> instruction: 0x000007b8
    2d9c:	00000798 	muleq	r0, r8, r7
    2da0:	00000790 	muleq	r0, r0, r7
    2da4:	00000788 	andeq	r0, r0, r8, lsl #15
    2da8:	00000768 	andeq	r0, r0, r8, ror #14
    2dac:	00000760 	andeq	r0, r0, r0, ror #14
    2db0:	00000758 	andeq	r0, r0, r8, asr r7
    2db4:	00000738 	andeq	r0, r0, r8, lsr r7
    2db8:	00000730 	andeq	r0, r0, r0, lsr r7
    2dbc:	00000728 	andeq	r0, r0, r8, lsr #14
    2dc0:	000006fc 	strdeq	r0, [r0], -ip
    2dc4:	000006e4 	andeq	r0, r0, r4, ror #13
    2dc8:	000006dc 	ldrdeq	r0, [r0], -ip
    2dcc:	000006d4 	ldrdeq	r0, [r0], -r4
    2dd0:	000006b4 			; <UNDEFINED> instruction: 0x000006b4
    2dd4:	000006ac 	andeq	r0, r0, ip, lsr #13
    2dd8:	000006a4 	andeq	r0, r0, r4, lsr #13
    2ddc:	0000067c 	andeq	r0, r0, ip, ror r6
    2de0:	00000664 	andeq	r0, r0, r4, ror #12
    2de4:	00000656 	andeq	r0, r0, r6, asr r6
    2de8:	00000630 	andeq	r0, r0, r0, lsr r6
    2dec:	00000622 	andeq	r0, r0, r2, lsr #12
    2df0:	00000602 	andeq	r0, r0, r2, lsl #12
    2df4:	000005fa 	strdeq	r0, [r0], -sl
    2df8:	000005f2 	strdeq	r0, [r0], -r2
    2dfc:	000005d2 	ldrdeq	r0, [r0], -r2
    2e00:	000005c4 	andeq	r0, r0, r4, asr #11
    2e04:	000005a4 	andeq	r0, r0, r4, lsr #11
    2e08:	0000059c 	muleq	r0, ip, r5
    2e0c:	00000594 	muleq	r0, r4, r5
    2e10:	00000576 	andeq	r0, r0, r6, ror r5
    2e14:	00000568 	andeq	r0, r0, r8, ror #10
    2e18:	0000054a 	andeq	r0, r0, sl, asr #10
    2e1c:	0000053c 	andeq	r0, r0, ip, lsr r5
    2e20:	0000051e 	andeq	r0, r0, lr, lsl r5
    2e24:	00000510 	andeq	r0, r0, r0, lsl r5
    2e28:	000004f2 	strdeq	r0, [r0], -r2
    2e2c:	000004ea 	andeq	r0, r0, sl, ror #9
    2e30:	000004e2 	andeq	r0, r0, r2, ror #9
    2e34:	00000498 	muleq	r0, r8, r4
    2e38:	0000048e 	andeq	r0, r0, lr, lsl #9
    2e3c:	0000047e 	andeq	r0, r0, lr, ror r4
    2e40:	00000468 	andeq	r0, r0, r8, ror #8
    2e44:	00000460 	andeq	r0, r0, r0, ror #8
    2e48:	00000458 	andeq	r0, r0, r8, asr r4
    2e4c:	0000043a 	andeq	r0, r0, sl, lsr r4
    2e50:	00000432 	andeq	r0, r0, r2, lsr r4
    2e54:	0000042a 	andeq	r0, r0, sl, lsr #8
    2e58:	0000040c 	andeq	r0, r0, ip, lsl #8
    2e5c:	000003fe 	strdeq	r0, [r0], -lr
    2e60:	000003e2 	andeq	r0, r0, r2, ror #7
    2e64:	000003d6 	ldrdeq	r0, [r0], -r6
    2e68:	000003ba 			; <UNDEFINED> instruction: 0x000003ba
    2e6c:	000003ae 	andeq	r0, r0, lr, lsr #7
    2e70:	00000392 	muleq	r0, r2, r3
    2e74:	00000386 	andeq	r0, r0, r6, lsl #7
    2e78:	0000036a 	andeq	r0, r0, sl, ror #6
    2e7c:	0000035e 	andeq	r0, r0, lr, asr r3
    2e80:	00000342 	andeq	r0, r0, r2, asr #6
    2e84:	00000336 	andeq	r0, r0, r6, lsr r3
    2e88:	0000031a 	andeq	r0, r0, sl, lsl r3
    2e8c:	0000030e 	andeq	r0, r0, lr, lsl #6
    2e90:	000002ec 	andeq	r0, r0, ip, ror #5
    2e94:	000002e0 	andeq	r0, r0, r0, ror #5
    2e98:	000002c4 	andeq	r0, r0, r4, asr #5
    2e9c:	000002be 			; <UNDEFINED> instruction: 0x000002be
    2ea0:	000002b8 			; <UNDEFINED> instruction: 0x000002b8
    2ea4:	0000029c 	muleq	r0, ip, r2
    2ea8:	00000296 	muleq	r0, r6, r2
    2eac:	00000290 	muleq	r0, r0, r2
    2eb0:	00000274 	andeq	r0, r0, r4, ror r2
    2eb4:	0000026e 	andeq	r0, r0, lr, ror #4
    2eb8:	00000268 	andeq	r0, r0, r8, ror #4
    2ebc:	1f64f8df 	svcne	0x0064f8df
    2ec0:	2a10ee1a 	bcs	0x43e730
    2ec4:	20014633 	andcs	r4, r1, r3, lsr r6
    2ec8:	f7ff4479 			; <UNDEFINED> instruction: 0xf7ff4479
    2ecc:	f8dffffe 			; <UNDEFINED> instruction: 0xf8dffffe
    2ed0:	20011f58 	andcs	r1, r1, r8, asr pc
    2ed4:	f7ff4479 			; <UNDEFINED> instruction: 0xf7ff4479
    2ed8:	f8dffffe 			; <UNDEFINED> instruction: 0xf8dffffe
    2edc:	20011f50 	andcs	r1, r1, r0, asr pc
    2ee0:	f7ff4479 			; <UNDEFINED> instruction: 0xf7ff4479
    2ee4:	f8dffffe 			; <UNDEFINED> instruction: 0xf8dffffe
    2ee8:	9a073f48 	bls	0x1d2c10
    2eec:	681858d3 	ldmdavs	r8, {r0, r1, r4, r6, r7, fp, ip, lr}
    2ef0:	fffef7ff 			; <UNDEFINED> instruction: 0xfffef7ff
    2ef4:	be76f7fd 	mrclt	7, 3, APSR_nzcv, cr6, cr13, {7}
    2ef8:	46269613 			; <UNDEFINED> instruction: 0x46269613
    2efc:	beb2f7fe 	mrclt	7, 5, APSR_nzcv, cr2, cr14, {7}
    2f00:	1f30f8df 	svcne	0x0030f8df
    2f04:	2a10ee1a 	bcs	0x43e774
    2f08:	20019b09 	andcs	r9, r1, r9, lsl #22
    2f0c:	f7ff4479 			; <UNDEFINED> instruction: 0xf7ff4479
    2f10:	f8dffffe 			; <UNDEFINED> instruction: 0xf8dffffe
    2f14:	20011f24 	andcs	r1, r1, r4, lsr #30
    2f18:	f7ff4479 			; <UNDEFINED> instruction: 0xf7ff4479
    2f1c:	f8dffffe 			; <UNDEFINED> instruction: 0xf8dffffe
    2f20:	20011f1c 	andcs	r1, r1, ip, lsl pc
    2f24:	f7ff4479 			; <UNDEFINED> instruction: 0xf7ff4479
    2f28:	f8dffffe 			; <UNDEFINED> instruction: 0xf8dffffe
    2f2c:	9a073f04 	bls	0x1d2b44
    2f30:	681858d3 	ldmdavs	r8, {r0, r1, r4, r6, r7, fp, ip, lr}
    2f34:	fffef7ff 			; <UNDEFINED> instruction: 0xfffef7ff
    2f38:	bf27f7fd 	svclt	0x0027f7fd
    2f3c:	1f00f8df 	svcne	0x0000f8df
    2f40:	20014613 	andcs	r4, r1, r3, lsl r6
    2f44:	2a10ee1a 	bcs	0x43e7b4
    2f48:	f7ff4479 			; <UNDEFINED> instruction: 0xf7ff4479
    2f4c:	2020fffe 	strdcs	pc, [r0], -lr	; <UNPREDICTABLE>
    2f50:	fffef7ff 			; <UNDEFINED> instruction: 0xfffef7ff
    2f54:	1eecf8df 	mcrne	8, 7, pc, cr12, cr15, {6}	; <UNPREDICTABLE>
    2f58:	44792001 	ldrbtmi	r2, [r9], #-1
    2f5c:	fffef7ff 			; <UNDEFINED> instruction: 0xfffef7ff
    2f60:	3eccf8df 	mcrcc	8, 6, pc, cr12, cr15, {6}	; <UNPREDICTABLE>
    2f64:	58d39a07 	ldmpl	r3, {r0, r1, r2, r9, fp, ip, pc}^
    2f68:	f7ff6818 			; <UNDEFINED> instruction: 0xf7ff6818
    2f6c:	f7fefffe 			; <UNDEFINED> instruction: 0xf7fefffe
    2f70:	f8dfb982 			; <UNDEFINED> instruction: 0xf8dfb982
    2f74:	ee1a1ed4 	mrc	14, 0, r1, cr10, cr4, {6}
    2f78:	465b2a10 			; <UNDEFINED> instruction: 0x465b2a10
    2f7c:	44792001 	ldrbtmi	r2, [r9], #-1
    2f80:	fffef7ff 			; <UNDEFINED> instruction: 0xfffef7ff
    2f84:	f7ff2020 			; <UNDEFINED> instruction: 0xf7ff2020
    2f88:	f8dffffe 			; <UNDEFINED> instruction: 0xf8dffffe
    2f8c:	20011ec0 	andcs	r1, r1, r0, asr #29
    2f90:	f7ff4479 			; <UNDEFINED> instruction: 0xf7ff4479
    2f94:	f8dffffe 			; <UNDEFINED> instruction: 0xf8dffffe
    2f98:	9a073e98 	bls	0x1d2a00
    2f9c:	681858d3 	ldmdavs	r8, {r0, r1, r4, r6, r7, fp, ip, lr}
    2fa0:	fffef7ff 			; <UNDEFINED> instruction: 0xfffef7ff
    2fa4:	b944f7fe 	stmdblt	r4, {r1, r2, r3, r4, r5, r6, r7, r8, r9, sl, ip, sp, lr, pc}^
    2fa8:	1ea4f8df 	mcrne	8, 5, pc, cr4, cr15, {6}	; <UNPREDICTABLE>
    2fac:	2a10ee1a 	bcs	0x43e81c
    2fb0:	2001465b 	andcs	r4, r1, fp, asr r6
    2fb4:	f7ff4479 			; <UNDEFINED> instruction: 0xf7ff4479
    2fb8:	2020fffe 	strdcs	pc, [r0], -lr	; <UNPREDICTABLE>
    2fbc:	fffef7ff 			; <UNDEFINED> instruction: 0xfffef7ff
    2fc0:	1e90f8df 	mrcne	8, 4, APSR_nzcv, cr0, cr15, {6}
    2fc4:	44792001 	ldrbtmi	r2, [r9], #-1
    2fc8:	fffef7ff 			; <UNDEFINED> instruction: 0xfffef7ff
    2fcc:	3e60f8df 	mcrcc	8, 3, pc, cr0, cr15, {6}	; <UNPREDICTABLE>
    2fd0:	58d39a07 	ldmpl	r3, {r0, r1, r2, r9, fp, ip, pc}^
    2fd4:	f7ff6818 			; <UNDEFINED> instruction: 0xf7ff6818
    2fd8:	f7fefffe 			; <UNDEFINED> instruction: 0xf7fefffe
    2fdc:	f8dfbad5 			; <UNDEFINED> instruction: 0xf8dfbad5
    2fe0:	ee1a1e78 	mrc	14, 0, r1, cr10, cr8, {3}
    2fe4:	465b2a10 			; <UNDEFINED> instruction: 0x465b2a10
    2fe8:	44792001 	ldrbtmi	r2, [r9], #-1
    2fec:	fffef7ff 			; <UNDEFINED> instruction: 0xfffef7ff
    2ff0:	f7ff2020 			; <UNDEFINED> instruction: 0xf7ff2020
    2ff4:	f8dffffe 			; <UNDEFINED> instruction: 0xf8dffffe
    2ff8:	20011e64 	andcs	r1, r1, r4, ror #28
    2ffc:	f7ff4479 			; <UNDEFINED> instruction: 0xf7ff4479
    3000:	f8dffffe 			; <UNDEFINED> instruction: 0xf8dffffe
    3004:	9a073e2c 	bls	0x1d28bc
    3008:	681858d3 	ldmdavs	r8, {r0, r1, r4, r6, r7, fp, ip, lr}
    300c:	fffef7ff 			; <UNDEFINED> instruction: 0xfffef7ff
    3010:	badbf7fe 	blt	0xff701010
    3014:	2b009b05 	blcs	0x29c30
    3018:	9b25d13a 	blls	0x977508
    301c:	3a90ee08 	bcc	0xfe43e844
    3020:	bdfdf7fe 	ldcllt	7, cr15, [sp, #1016]!	; 0x3f8
    3024:	1e38f8df 	mrcne	8, 1, APSR_nzcv, cr8, cr15, {6}
    3028:	2a10ee1a 	bcs	0x43e898
    302c:	2001465b 	andcs	r4, r1, fp, asr r6
    3030:	f7ff4479 			; <UNDEFINED> instruction: 0xf7ff4479
    3034:	2020fffe 	strdcs	pc, [r0], -lr	; <UNPREDICTABLE>
    3038:	fffef7ff 			; <UNDEFINED> instruction: 0xfffef7ff
    303c:	1e24f8df 	mcrne	8, 1, pc, cr4, cr15, {6}	; <UNPREDICTABLE>
    3040:	44792001 	ldrbtmi	r2, [r9], #-1
    3044:	fffef7ff 			; <UNDEFINED> instruction: 0xfffef7ff
    3048:	3de4f8df 	stclcc	8, cr15, [r4, #892]!	; 0x37c
    304c:	58d39a07 	ldmpl	r3, {r0, r1, r2, r9, fp, ip, pc}^
    3050:	f7ff6818 			; <UNDEFINED> instruction: 0xf7ff6818
    3054:	f7fffffe 			; <UNDEFINED> instruction: 0xf7fffffe
    3058:	f8dfb823 			; <UNDEFINED> instruction: 0xf8dfb823
    305c:	ee1a1e0c 	cdp	14, 1, cr1, cr10, cr12, {0}
    3060:	23022a10 	movwcs	r2, #10768	; 0x2a10
    3064:	44792001 	ldrbtmi	r2, [r9], #-1
    3068:	fffef7ff 			; <UNDEFINED> instruction: 0xfffef7ff
    306c:	f7ff2020 			; <UNDEFINED> instruction: 0xf7ff2020
    3070:	f8dffffe 			; <UNDEFINED> instruction: 0xf8dffffe
    3074:	20011df8 	strdcs	r1, [r1], -r8
    3078:	f7ff4479 			; <UNDEFINED> instruction: 0xf7ff4479
    307c:	f8dffffe 			; <UNDEFINED> instruction: 0xf8dffffe
    3080:	9a073db0 	bls	0x1d2748
    3084:	681858d3 	ldmdavs	r8, {r0, r1, r4, r6, r7, fp, ip, lr}
    3088:	fffef7ff 			; <UNDEFINED> instruction: 0xfffef7ff
    308c:	bf4df7fe 	svclt	0x004df7fe
    3090:	3a90ee18 	bcc	0xfe43e8f8
    3094:	f0012b00 			; <UNDEFINED> instruction: 0xf0012b00
    3098:	9d2582a4 	sfmls	f0, 1, [r5, #-656]!	; 0xfffffd70
    309c:	1a90ee18 	bne	0xfe43e904
    30a0:	ee089a05 	vmla.f32	s18, s16, s10
    30a4:	46285a90 			; <UNDEFINED> instruction: 0x46285a90
    30a8:	fffef7ff 			; <UNDEFINED> instruction: 0xfffef7ff
    30ac:	bdb7f7fe 	ldclt	7, cr15, [r7, #1016]!	; 0x3f8
    30b0:	2b009b05 	blcs	0x29ccc
    30b4:	9b25d1ec 	blls	0x97786c
    30b8:	3a90ee08 	bcc	0xfe43e8e0
    30bc:	ba4bf7fd 	blt	0x13010b8
    30c0:	3a10ee1d 	bcc	0x43e93c
    30c4:	b99bf7fd 	ldmiblt	fp, {r0, r2, r3, r4, r5, r6, r7, r8, r9, sl, ip, sp, lr, pc}
    30c8:	1da4f8df 	stcne	8, cr15, [r4, #892]!	; 0x37c
    30cc:	46424605 	strbmi	r4, [r2], -r5, lsl #12
    30d0:	44794658 	ldrbtmi	r4, [r9], #-1624	; 0xfffff9a8
    30d4:	fffef7ff 			; <UNDEFINED> instruction: 0xfffef7ff
    30d8:	1d98f8df 	ldcne	8, cr15, [r8, #892]	; 0x37c
    30dc:	462a4633 			; <UNDEFINED> instruction: 0x462a4633
    30e0:	46584479 			; <UNDEFINED> instruction: 0x46584479
    30e4:	fffef7ff 			; <UNDEFINED> instruction: 0xfffef7ff
    30e8:	1d8cf8df 	stcne	8, cr15, [ip, #892]	; 0x37c
    30ec:	3a10ee1a 	bcc	0x43e95c
    30f0:	2a10ee1d 	bcs	0x43e96c
    30f4:	46584479 			; <UNDEFINED> instruction: 0x46584479
    30f8:	fffef7ff 			; <UNDEFINED> instruction: 0xfffef7ff
    30fc:	f7ff4658 			; <UNDEFINED> instruction: 0xf7ff4658
    3100:	f8dffffe 			; <UNDEFINED> instruction: 0xf8dffffe
    3104:	46041d78 			; <UNDEFINED> instruction: 0x46041d78
    3108:	4658462a 	ldrbmi	r4, [r8], -sl, lsr #12
    310c:	f7ff4479 			; <UNDEFINED> instruction: 0xf7ff4479
    3110:	f8dffffe 			; <UNDEFINED> instruction: 0xf8dffffe
    3114:	46331d6c 	ldrtmi	r1, [r3], -ip, ror #26
    3118:	44794622 	ldrbtmi	r4, [r9], #-1570	; 0xfffff9de
    311c:	f7ff4658 			; <UNDEFINED> instruction: 0xf7ff4658
    3120:	f8dffffe 			; <UNDEFINED> instruction: 0xf8dffffe
    3124:	ee1a1d60 	cdp	13, 1, cr1, cr10, cr0, {3}
    3128:	ee1d3a10 	vmov	r3, s26
    312c:	44792a10 	ldrbtmi	r2, [r9], #-2576	; 0xfffff5f0
    3130:	f7ff4658 			; <UNDEFINED> instruction: 0xf7ff4658
    3134:	4658fffe 	usub8mi	pc, r8, lr	; <UNPREDICTABLE>
    3138:	fffef7ff 			; <UNDEFINED> instruction: 0xfffef7ff
    313c:	0d48f8df 	stcleq	8, cr15, [r8, #-892]	; 0xfffffc84
    3140:	f7ff4478 			; <UNDEFINED> instruction: 0xf7ff4478
    3144:	f7fffffe 			; <UNDEFINED> instruction: 0xf7fffffe
    3148:	f8dffffe 			; <UNDEFINED> instruction: 0xf8dffffe
    314c:	465a1d40 	ldrbmi	r1, [sl], -r0, asr #26
    3150:	44792001 	ldrbtmi	r2, [r9], #-1
    3154:	fffef7ff 			; <UNDEFINED> instruction: 0xfffef7ff
    3158:	1d34f8df 	ldcne	8, cr15, [r4, #-892]!	; 0xfffffc84
    315c:	44792001 	ldrbtmi	r2, [r9], #-1
    3160:	fffef7ff 			; <UNDEFINED> instruction: 0xfffef7ff
    3164:	1d2cf8df 	stcne	8, cr15, [ip, #-892]!	; 0xfffffc84
    3168:	3a10ee1a 	bcc	0x43e9d8
    316c:	2a10ee1d 	bcs	0x43e9e8
    3170:	20014479 	andcs	r4, r1, r9, ror r4
    3174:	fffef7ff 			; <UNDEFINED> instruction: 0xfffef7ff
    3178:	f7ff2001 			; <UNDEFINED> instruction: 0xf7ff2001
    317c:	f8dffffe 			; <UNDEFINED> instruction: 0xf8dffffe
    3180:	465a1d18 			; <UNDEFINED> instruction: 0x465a1d18
    3184:	44792001 	ldrbtmi	r2, [r9], #-1
    3188:	fffef7ff 			; <UNDEFINED> instruction: 0xfffef7ff
    318c:	1d0cf8df 	stcne	8, cr15, [ip, #-892]	; 0xfffffc84
    3190:	44792001 	ldrbtmi	r2, [r9], #-1
    3194:	fffef7ff 			; <UNDEFINED> instruction: 0xfffef7ff
    3198:	1d04f8df 	stcne	8, cr15, [r4, #-892]	; 0xfffffc84
    319c:	3a10ee1a 	bcc	0x43ea0c
    31a0:	2a10ee1d 	bcs	0x43ea1c
    31a4:	20014479 	andcs	r4, r1, r9, ror r4
    31a8:	fffef7ff 			; <UNDEFINED> instruction: 0xfffef7ff
    31ac:	f7ff2001 			; <UNDEFINED> instruction: 0xf7ff2001
    31b0:	f8dffffe 			; <UNDEFINED> instruction: 0xf8dffffe
    31b4:	465a1cf0 			; <UNDEFINED> instruction: 0x465a1cf0
    31b8:	44792001 	ldrbtmi	r2, [r9], #-1
    31bc:	fffef7ff 			; <UNDEFINED> instruction: 0xfffef7ff
    31c0:	1ce4f8df 	stclne	8, cr15, [r4], #892	; 0x37c
    31c4:	44792001 	ldrbtmi	r2, [r9], #-1
    31c8:	fffef7ff 			; <UNDEFINED> instruction: 0xfffef7ff
    31cc:	1cdcf8df 	ldclne	8, cr15, [ip], {223}	; 0xdf
    31d0:	3a10ee1a 	bcc	0x43ea40
    31d4:	2a10ee1d 	bcs	0x43ea50
    31d8:	20014479 	andcs	r4, r1, r9, ror r4
    31dc:	fffef7ff 			; <UNDEFINED> instruction: 0xfffef7ff
    31e0:	f7ff2001 			; <UNDEFINED> instruction: 0xf7ff2001
    31e4:	f8dffffe 			; <UNDEFINED> instruction: 0xf8dffffe
    31e8:	465a1cc8 	ldrbmi	r1, [sl], -r8, asr #25
    31ec:	44792001 	ldrbtmi	r2, [r9], #-1
    31f0:	fffef7ff 			; <UNDEFINED> instruction: 0xfffef7ff
    31f4:	1cbcf8df 	ldcne	8, cr15, [ip], #892	; 0x37c
    31f8:	44792001 	ldrbtmi	r2, [r9], #-1
    31fc:	fffef7ff 			; <UNDEFINED> instruction: 0xfffef7ff
    3200:	1cb4f8df 	ldcne	8, cr15, [r4], #892	; 0x37c
    3204:	3a10ee1a 	bcc	0x43ea74
    3208:	2a10ee1d 	bcs	0x43ea84
    320c:	20014479 	andcs	r4, r1, r9, ror r4
    3210:	fffef7ff 			; <UNDEFINED> instruction: 0xfffef7ff
    3214:	f7ff2001 			; <UNDEFINED> instruction: 0xf7ff2001
    3218:	f8dffffe 			; <UNDEFINED> instruction: 0xf8dffffe
    321c:	465a1ca0 	ldrbmi	r1, [sl], -r0, lsr #25
    3220:	44792001 	ldrbtmi	r2, [r9], #-1
    3224:	fffef7ff 			; <UNDEFINED> instruction: 0xfffef7ff
    3228:	1c94f8df 	ldcne	8, cr15, [r4], {223}	; 0xdf
    322c:	44792001 	ldrbtmi	r2, [r9], #-1
    3230:	fffef7ff 			; <UNDEFINED> instruction: 0xfffef7ff
    3234:	1c8cf8df 	stcne	8, cr15, [ip], {223}	; 0xdf
    3238:	3a10ee1a 	bcc	0x43eaa8
    323c:	2a10ee1d 	bcs	0x43eab8
    3240:	20014479 	andcs	r4, r1, r9, ror r4
    3244:	fffef7ff 			; <UNDEFINED> instruction: 0xfffef7ff
    3248:	f7ff2001 			; <UNDEFINED> instruction: 0xf7ff2001
    324c:	f8dffffe 			; <UNDEFINED> instruction: 0xf8dffffe
    3250:	46221c78 			; <UNDEFINED> instruction: 0x46221c78
    3254:	44792001 	ldrbtmi	r2, [r9], #-1
    3258:	fffef7ff 			; <UNDEFINED> instruction: 0xfffef7ff
    325c:	1c6cf8df 	stclne	8, cr15, [ip], #-892	; 0xfffffc84
    3260:	44792001 	ldrbtmi	r2, [r9], #-1
    3264:	fffef7ff 			; <UNDEFINED> instruction: 0xfffef7ff
    3268:	1c64f8df 	stclne	8, cr15, [r4], #-892	; 0xfffffc84
    326c:	3a10ee1a 	bcc	0x43eadc
    3270:	2a10ee1d 	bcs	0x43eaec
    3274:	20014479 	andcs	r4, r1, r9, ror r4
    3278:	fffef7ff 			; <UNDEFINED> instruction: 0xfffef7ff
    327c:	f7ff2001 			; <UNDEFINED> instruction: 0xf7ff2001
    3280:	f8dffffe 			; <UNDEFINED> instruction: 0xf8dffffe
    3284:	46221c50 			; <UNDEFINED> instruction: 0x46221c50
    3288:	44792001 	ldrbtmi	r2, [r9], #-1
    328c:	fffef7ff 			; <UNDEFINED> instruction: 0xfffef7ff
    3290:	1c44f8df 	mcrrne	8, 13, pc, r4, cr15	; <UNPREDICTABLE>
    3294:	44792001 	ldrbtmi	r2, [r9], #-1
    3298:	fffef7ff 			; <UNDEFINED> instruction: 0xfffef7ff
    329c:	1c3cf8df 	ldcne	8, cr15, [ip], #-892	; 0xfffffc84
    32a0:	3a10ee1a 	bcc	0x43eb10
    32a4:	2a10ee1d 	bcs	0x43eb20
    32a8:	20014479 	andcs	r4, r1, r9, ror r4
    32ac:	fffef7ff 			; <UNDEFINED> instruction: 0xfffef7ff
    32b0:	f7ff2001 			; <UNDEFINED> instruction: 0xf7ff2001
    32b4:	f8dffffe 			; <UNDEFINED> instruction: 0xf8dffffe
    32b8:	20011c28 	andcs	r1, r1, r8, lsr #24
    32bc:	44799a11 	ldrbtmi	r9, [r9], #-2577	; 0xfffff5ef
    32c0:	fffef7ff 			; <UNDEFINED> instruction: 0xfffef7ff
    32c4:	1c1cf8df 	ldcne	8, cr15, [ip], {223}	; 0xdf
    32c8:	44792001 	ldrbtmi	r2, [r9], #-1
    32cc:	fffef7ff 			; <UNDEFINED> instruction: 0xfffef7ff
    32d0:	1c14f8df 	ldcne	8, cr15, [r4], {223}	; 0xdf
    32d4:	3a10ee1a 	bcc	0x43eb44
    32d8:	2a10ee1d 	bcs	0x43eb54
    32dc:	20014479 	andcs	r4, r1, r9, ror r4
    32e0:	fffef7ff 			; <UNDEFINED> instruction: 0xfffef7ff
    32e4:	f7ff2001 			; <UNDEFINED> instruction: 0xf7ff2001
    32e8:	f8dffffe 			; <UNDEFINED> instruction: 0xf8dffffe
    32ec:	46831c00 	strmi	r1, [r3], r0, lsl #24
    32f0:	20019a11 	andcs	r9, r1, r1, lsl sl
    32f4:	f7ff4479 			; <UNDEFINED> instruction: 0xf7ff4479
    32f8:	f8dffffe 			; <UNDEFINED> instruction: 0xf8dffffe
    32fc:	462b1bf4 			; <UNDEFINED> instruction: 0x462b1bf4
    3300:	4479465a 	ldrbtmi	r4, [r9], #-1626	; 0xfffff9a6
    3304:	f7ff2001 			; <UNDEFINED> instruction: 0xf7ff2001
    3308:	f8dffffe 			; <UNDEFINED> instruction: 0xf8dffffe
    330c:	ee1a1be8 	vnmla.f64	d1, d26, d24
    3310:	ee1d3a10 	vmov	r3, s26
    3314:	44792a10 	ldrbtmi	r2, [r9], #-2576	; 0xfffff5f0
    3318:	f7ff2001 			; <UNDEFINED> instruction: 0xf7ff2001
    331c:	2001fffe 	strdcs	pc, [r1], -lr
    3320:	fffef7ff 			; <UNDEFINED> instruction: 0xfffef7ff
    3324:	1bd0f8df 	blne	0xff4416a8
    3328:	9a112001 	bls	0x44b334
    332c:	f7ff4479 			; <UNDEFINED> instruction: 0xf7ff4479
    3330:	f8dffffe 			; <UNDEFINED> instruction: 0xf8dffffe
    3334:	20011bc8 	andcs	r1, r1, r8, asr #23
    3338:	f7ff4479 			; <UNDEFINED> instruction: 0xf7ff4479
    333c:	f8dffffe 			; <UNDEFINED> instruction: 0xf8dffffe
    3340:	ee1a1bc0 	vnmla.f64	d1, d26, d0
    3344:	ee1d3a10 	vmov	r3, s26
    3348:	44792a10 	ldrbtmi	r2, [r9], #-2576	; 0xfffff5f0
    334c:	f7ff2001 			; <UNDEFINED> instruction: 0xf7ff2001
    3350:	2001fffe 	strdcs	pc, [r1], -lr
    3354:	fffef7ff 			; <UNDEFINED> instruction: 0xfffef7ff
    3358:	1ba8f8df 	blne	0xfea416dc
    335c:	9a114683 	bls	0x454d70
    3360:	44792001 	ldrbtmi	r2, [r9], #-1
    3364:	fffef7ff 			; <UNDEFINED> instruction: 0xfffef7ff
    3368:	1b9cf8df 	blne	0xfe7416ec
    336c:	465a462b 	ldrbmi	r4, [sl], -fp, lsr #12
    3370:	20014479 	andcs	r4, r1, r9, ror r4
    3374:	fffef7ff 			; <UNDEFINED> instruction: 0xfffef7ff
    3378:	1b90f8df 	blne	0xfe4416fc
    337c:	3a10ee1a 	bcc	0x43ebec
    3380:	2a10ee1d 	bcs	0x43ebfc
    3384:	20014479 	andcs	r4, r1, r9, ror r4
    3388:	fffef7ff 			; <UNDEFINED> instruction: 0xfffef7ff
    338c:	f7ff2001 			; <UNDEFINED> instruction: 0xf7ff2001
    3390:	f8ddfffe 			; <UNDEFINED> instruction: 0xf8ddfffe
    3394:	4604b044 	strmi	fp, [r4], -r4, asr #32
    3398:	1b74f8df 	blne	0x1d4171c
    339c:	465a2001 	ldrbmi	r2, [sl], -r1
    33a0:	f7ff4479 			; <UNDEFINED> instruction: 0xf7ff4479
    33a4:	f8dffffe 			; <UNDEFINED> instruction: 0xf8dffffe
    33a8:	462b1b6c 	strtmi	r1, [fp], -ip, ror #22
    33ac:	44794622 	ldrbtmi	r4, [r9], #-1570	; 0xfffff9de
    33b0:	f7ff2001 			; <UNDEFINED> instruction: 0xf7ff2001
    33b4:	f8dffffe 			; <UNDEFINED> instruction: 0xf8dffffe
    33b8:	ee1a1b60 	vnmla.f64	d1, d10, d16
    33bc:	ee1d3a10 	vmov	r3, s26
    33c0:	44792a10 	ldrbtmi	r2, [r9], #-2576	; 0xfffff5f0
    33c4:	f7ff2001 			; <UNDEFINED> instruction: 0xf7ff2001
    33c8:	2001fffe 	strdcs	pc, [r1], -lr
    33cc:	fffef7ff 			; <UNDEFINED> instruction: 0xfffef7ff
    33d0:	3b48f8df 	blcc	0x1241754
    33d4:	32e9f240 	rsccc	pc, r9, #64, 4
    33d8:	1b44f8df 	blne	0x114175c
    33dc:	0b44f8df 	bleq	0x1141760
    33e0:	4479447b 	ldrbtmi	r4, [r9], #-1147	; 0xfffffb85
    33e4:	f7ff4478 			; <UNDEFINED> instruction: 0xf7ff4478
    33e8:	f8ddfffe 			; <UNDEFINED> instruction: 0xf8ddfffe
    33ec:	2001b044 	andcs	fp, r1, r4, asr #32
    33f0:	1b34f8df 	blne	0xd41774
    33f4:	4479465a 	ldrbtmi	r4, [r9], #-1626	; 0xfffff9a6
    33f8:	fffef7ff 			; <UNDEFINED> instruction: 0xfffef7ff
    33fc:	1b2cf8df 	blne	0xb41780
    3400:	44792001 	ldrbtmi	r2, [r9], #-1
    3404:	fffef7ff 			; <UNDEFINED> instruction: 0xfffef7ff
    3408:	1b24f8df 	blne	0x94178c
    340c:	3a10ee1a 	bcc	0x43ec7c
    3410:	2a10ee1d 	bcs	0x43ec8c
    3414:	20014479 	andcs	r4, r1, r9, ror r4
    3418:	fffef7ff 			; <UNDEFINED> instruction: 0xfffef7ff
    341c:	f7ff2001 			; <UNDEFINED> instruction: 0xf7ff2001
    3420:	f8ddfffe 			; <UNDEFINED> instruction: 0xf8ddfffe
    3424:	2001b044 	andcs	fp, r1, r4, asr #32
    3428:	1b08f8df 	blne	0x2417ac
    342c:	4479465a 	ldrbtmi	r4, [r9], #-1626	; 0xfffff9a6
    3430:	fffef7ff 			; <UNDEFINED> instruction: 0xfffef7ff
    3434:	1b00f8df 	blne	0x417b8
    3438:	44792001 	ldrbtmi	r2, [r9], #-1
    343c:	fffef7ff 			; <UNDEFINED> instruction: 0xfffef7ff
    3440:	1af8f8df 	bne	0xffe417c4
    3444:	3a10ee1a 	bcc	0x43ecb4
    3448:	2a10ee1d 	bcs	0x43ecc4
    344c:	20014479 	andcs	r4, r1, r9, ror r4
    3450:	fffef7ff 			; <UNDEFINED> instruction: 0xfffef7ff
    3454:	f7ff2001 			; <UNDEFINED> instruction: 0xf7ff2001
    3458:	ee18fffe 	mrc	15, 0, APSR_nzcv, cr8, cr14, {7}
    345c:	46490a90 			; <UNDEFINED> instruction: 0x46490a90
    3460:	fee2f7fc 	mcr2	7, 7, pc, cr2, cr12, {7}	; <UNPREDICTABLE>
    3464:	1ad8f8df 	bne	0xff6417e8
    3468:	20014622 	andcs	r4, r1, r2, lsr #12
    346c:	f7ff4479 			; <UNDEFINED> instruction: 0xf7ff4479
    3470:	f8dffffe 			; <UNDEFINED> instruction: 0xf8dffffe
    3474:	20011ad0 	ldrdcs	r1, [r1], -r0
    3478:	f7ff4479 			; <UNDEFINED> instruction: 0xf7ff4479
    347c:	f8dffffe 			; <UNDEFINED> instruction: 0xf8dffffe
    3480:	ee1a1ac8 	vnmla.f32	s2, s21, s16
    3484:	ee1d3a10 	vmov	r3, s26
    3488:	44792a10 	ldrbtmi	r2, [r9], #-2576	; 0xfffff5f0
    348c:	f7ff2001 			; <UNDEFINED> instruction: 0xf7ff2001
    3490:	2001fffe 	strdcs	pc, [r1], -lr
    3494:	fffef7ff 			; <UNDEFINED> instruction: 0xfffef7ff
    3498:	1ab0f8df 	bne	0xfec4181c
    349c:	20014622 	andcs	r4, r1, r2, lsr #12
    34a0:	f7ff4479 			; <UNDEFINED> instruction: 0xf7ff4479
    34a4:	f8dffffe 			; <UNDEFINED> instruction: 0xf8dffffe
    34a8:	20011aa8 	andcs	r1, r1, r8, lsr #21
    34ac:	f7ff4479 			; <UNDEFINED> instruction: 0xf7ff4479
    34b0:	f8dffffe 			; <UNDEFINED> instruction: 0xf8dffffe
    34b4:	ee1a1aa0 	vnmls.f32	s2, s21, s1
    34b8:	ee1d3a10 	vmov	r3, s26
    34bc:	44792a10 	ldrbtmi	r2, [r9], #-2576	; 0xfffff5f0
    34c0:	f7ff2001 			; <UNDEFINED> instruction: 0xf7ff2001
    34c4:	2001fffe 	strdcs	pc, [r1], -lr
    34c8:	fffef7ff 			; <UNDEFINED> instruction: 0xfffef7ff
    34cc:	1a88f8df 	bne	0xfe241850
    34d0:	20014622 	andcs	r4, r1, r2, lsr #12
    34d4:	f7ff4479 			; <UNDEFINED> instruction: 0xf7ff4479
    34d8:	f8dffffe 			; <UNDEFINED> instruction: 0xf8dffffe
    34dc:	20011a80 	andcs	r1, r1, r0, lsl #21
    34e0:	f7ff4479 			; <UNDEFINED> instruction: 0xf7ff4479
    34e4:	f8dffffe 			; <UNDEFINED> instruction: 0xf8dffffe
    34e8:	ee1a1a78 			; <UNDEFINED> instruction: 0xee1a1a78
    34ec:	ee1d3a10 	vmov	r3, s26
    34f0:	44792a10 	ldrbtmi	r2, [r9], #-2576	; 0xfffff5f0
    34f4:	f7ff2001 			; <UNDEFINED> instruction: 0xf7ff2001
    34f8:	2001fffe 	strdcs	pc, [r1], -lr
    34fc:	fffef7ff 			; <UNDEFINED> instruction: 0xfffef7ff
    3500:	fffef7ff 			; <UNDEFINED> instruction: 0xfffef7ff
    3504:	1a5cf8df 	bne	0x1741888
    3508:	20014642 	andcs	r4, r1, r2, asr #12
    350c:	f7ff4479 			; <UNDEFINED> instruction: 0xf7ff4479
    3510:	f8dffffe 			; <UNDEFINED> instruction: 0xf8dffffe
    3514:	20011a54 	andcs	r1, r1, r4, asr sl
    3518:	f7ff4479 			; <UNDEFINED> instruction: 0xf7ff4479
    351c:	f8dffffe 			; <UNDEFINED> instruction: 0xf8dffffe
    3520:	ee1a1a4c 	vnmla.f32	s2, s20, s24
    3524:	ee1d3a10 	vmov	r3, s26
    3528:	44792a10 	ldrbtmi	r2, [r9], #-2576	; 0xfffff5f0
    352c:	f7ff2001 			; <UNDEFINED> instruction: 0xf7ff2001
    3530:	2001fffe 	strdcs	pc, [r1], -lr
    3534:	fffef7ff 			; <UNDEFINED> instruction: 0xfffef7ff
    3538:	1a34f8df 	bne	0xd418bc
    353c:	20014632 	andcs	r4, r1, r2, lsr r6
    3540:	f7ff4479 			; <UNDEFINED> instruction: 0xf7ff4479
    3544:	f8dffffe 			; <UNDEFINED> instruction: 0xf8dffffe
    3548:	20011a2c 	andcs	r1, r1, ip, lsr #20
    354c:	f7ff4479 			; <UNDEFINED> instruction: 0xf7ff4479
    3550:	f8dffffe 			; <UNDEFINED> instruction: 0xf8dffffe
    3554:	ee1a1a24 	vnmls.f32	s2, s20, s9
    3558:	ee1d3a10 	vmov	r3, s26
    355c:	44792a10 	ldrbtmi	r2, [r9], #-2576	; 0xfffff5f0
    3560:	f7ff2001 			; <UNDEFINED> instruction: 0xf7ff2001
    3564:	2001fffe 	strdcs	pc, [r1], -lr
    3568:	fffef7ff 			; <UNDEFINED> instruction: 0xfffef7ff
    356c:	1a0cf8df 	bne	0x3418f0
    3570:	20014632 	andcs	r4, r1, r2, lsr r6
    3574:	f7ff4479 			; <UNDEFINED> instruction: 0xf7ff4479
    3578:	f8dffffe 			; <UNDEFINED> instruction: 0xf8dffffe
    357c:	20011a04 	andcs	r1, r1, r4, lsl #20
    3580:	f7ff4479 			; <UNDEFINED> instruction: 0xf7ff4479
    3584:	f8dffffe 			; <UNDEFINED> instruction: 0xf8dffffe
    3588:	ee1a19fc 			; <UNDEFINED> instruction: 0xee1a19fc
    358c:	ee1d3a10 	vmov	r3, s26
    3590:	44792a10 	ldrbtmi	r2, [r9], #-2576	; 0xfffff5f0
    3594:	f7ff2001 			; <UNDEFINED> instruction: 0xf7ff2001
    3598:	2001fffe 	strdcs	pc, [r1], -lr
    359c:	fffef7ff 			; <UNDEFINED> instruction: 0xfffef7ff
    35a0:	19e4f8df 	stmibne	r4!, {r0, r1, r2, r3, r4, r6, r7, fp, ip, sp, lr, pc}^
    35a4:	20014632 	andcs	r4, r1, r2, lsr r6
    35a8:	f7ff4479 			; <UNDEFINED> instruction: 0xf7ff4479
    35ac:	f8dffffe 			; <UNDEFINED> instruction: 0xf8dffffe
    35b0:	200119dc 	ldrdcs	r1, [r1], -ip
    35b4:	f7ff4479 			; <UNDEFINED> instruction: 0xf7ff4479
    35b8:	f8dffffe 			; <UNDEFINED> instruction: 0xf8dffffe
    35bc:	ee1a19d4 			; <UNDEFINED> instruction: 0xee1a19d4
    35c0:	ee1d3a10 	vmov	r3, s26
    35c4:	44792a10 	ldrbtmi	r2, [r9], #-2576	; 0xfffff5f0
    35c8:	f7ff2001 			; <UNDEFINED> instruction: 0xf7ff2001
    35cc:	2001fffe 	strdcs	pc, [r1], -lr
    35d0:	fffef7ff 			; <UNDEFINED> instruction: 0xfffef7ff
    35d4:	19bcf8df 	ldmibne	ip!, {r0, r1, r2, r3, r4, r6, r7, fp, ip, sp, lr, pc}
    35d8:	46324605 	ldrtmi	r4, [r2], -r5, lsl #12
    35dc:	44792001 	ldrbtmi	r2, [r9], #-1
    35e0:	fffef7ff 			; <UNDEFINED> instruction: 0xfffef7ff
    35e4:	19b0f8df 	ldmibne	r0!, {r0, r1, r2, r3, r4, r6, r7, fp, ip, sp, lr, pc}
    35e8:	462a9b05 	strtmi	r9, [sl], -r5, lsl #22
    35ec:	20014479 	andcs	r4, r1, r9, ror r4
    35f0:	fffef7ff 			; <UNDEFINED> instruction: 0xfffef7ff
    35f4:	19a4f8df 	stmibne	r4!, {r0, r1, r2, r3, r4, r6, r7, fp, ip, sp, lr, pc}
    35f8:	3a10ee1a 	bcc	0x43ee68
    35fc:	2a10ee1d 	bcs	0x43ee78
    3600:	20014479 	andcs	r4, r1, r9, ror r4
    3604:	fffef7ff 			; <UNDEFINED> instruction: 0xfffef7ff
    3608:	f7ff2001 			; <UNDEFINED> instruction: 0xf7ff2001
    360c:	f8dffffe 			; <UNDEFINED> instruction: 0xf8dffffe
    3610:	46221990 			; <UNDEFINED> instruction: 0x46221990
    3614:	44792001 	ldrbtmi	r2, [r9], #-1
    3618:	fffef7ff 			; <UNDEFINED> instruction: 0xfffef7ff
    361c:	1984f8df 	stmibne	r4, {r0, r1, r2, r3, r4, r6, r7, fp, ip, sp, lr, pc}
    3620:	44792001 	ldrbtmi	r2, [r9], #-1
    3624:	fffef7ff 			; <UNDEFINED> instruction: 0xfffef7ff
    3628:	197cf8df 	ldmdbne	ip!, {r0, r1, r2, r3, r4, r6, r7, fp, ip, sp, lr, pc}^
    362c:	3a10ee1a 	bcc	0x43ee9c
    3630:	2a10ee1d 	bcs	0x43eeac
    3634:	20014479 	andcs	r4, r1, r9, ror r4
    3638:	fffef7ff 			; <UNDEFINED> instruction: 0xfffef7ff
    363c:	f7ff2001 			; <UNDEFINED> instruction: 0xf7ff2001
    3640:	f8dffffe 			; <UNDEFINED> instruction: 0xf8dffffe
    3644:	46221968 	strtmi	r1, [r2], -r8, ror #18
    3648:	44792001 	ldrbtmi	r2, [r9], #-1
    364c:	fffef7ff 			; <UNDEFINED> instruction: 0xfffef7ff
    3650:	195cf8df 	ldmdbne	ip, {r0, r1, r2, r3, r4, r6, r7, fp, ip, sp, lr, pc}^
    3654:	44792001 	ldrbtmi	r2, [r9], #-1
    3658:	fffef7ff 			; <UNDEFINED> instruction: 0xfffef7ff
    365c:	1954f8df 	ldmdbne	r4, {r0, r1, r2, r3, r4, r6, r7, fp, ip, sp, lr, pc}^
    3660:	3a10ee1a 	bcc	0x43eed0
    3664:	2a10ee1d 	bcs	0x43eee0
    3668:	20014479 	andcs	r4, r1, r9, ror r4
    366c:	fffef7ff 			; <UNDEFINED> instruction: 0xfffef7ff
    3670:	f7ff2001 			; <UNDEFINED> instruction: 0xf7ff2001
    3674:	f8dffffe 			; <UNDEFINED> instruction: 0xf8dffffe
    3678:	46321940 	ldrtmi	r1, [r2], -r0, asr #18
    367c:	20014680 	andcs	r4, r1, r0, lsl #13
    3680:	f7ff4479 			; <UNDEFINED> instruction: 0xf7ff4479
    3684:	f8dffffe 			; <UNDEFINED> instruction: 0xf8dffffe
    3688:	46421934 			; <UNDEFINED> instruction: 0x46421934
    368c:	44792001 	ldrbtmi	r2, [r9], #-1
    3690:	fffef7ff 			; <UNDEFINED> instruction: 0xfffef7ff
    3694:	1928f8df 	stmdbne	r8!, {r0, r1, r2, r3, r4, r6, r7, fp, ip, sp, lr, pc}
    3698:	3a10ee1a 	bcc	0x43ef08
    369c:	2a10ee1d 	bcs	0x43ef18
    36a0:	20014479 	andcs	r4, r1, r9, ror r4
    36a4:	fffef7ff 			; <UNDEFINED> instruction: 0xfffef7ff
    36a8:	f7ff2001 			; <UNDEFINED> instruction: 0xf7ff2001
    36ac:	f8dffffe 			; <UNDEFINED> instruction: 0xf8dffffe
    36b0:	46321914 			; <UNDEFINED> instruction: 0x46321914
    36b4:	44792001 	ldrbtmi	r2, [r9], #-1
    36b8:	fffef7ff 			; <UNDEFINED> instruction: 0xfffef7ff
    36bc:	1908f8df 	stmdbne	r8, {r0, r1, r2, r3, r4, r6, r7, fp, ip, sp, lr, pc}
    36c0:	44792001 	ldrbtmi	r2, [r9], #-1
    36c4:	fffef7ff 			; <UNDEFINED> instruction: 0xfffef7ff
    36c8:	1900f8df 	stmdbne	r0, {r0, r1, r2, r3, r4, r6, r7, fp, ip, sp, lr, pc}
    36cc:	3a10ee1a 	bcc	0x43ef3c
    36d0:	2a10ee1d 	bcs	0x43ef4c
    36d4:	20014479 	andcs	r4, r1, r9, ror r4
    36d8:	fffef7ff 			; <UNDEFINED> instruction: 0xfffef7ff
    36dc:	f7ff2001 			; <UNDEFINED> instruction: 0xf7ff2001
    36e0:	f8dffffe 			; <UNDEFINED> instruction: 0xf8dffffe
    36e4:	463218ec 	ldrtmi	r1, [r2], -ip, ror #17
    36e8:	44792001 	ldrbtmi	r2, [r9], #-1
    36ec:	fffef7ff 			; <UNDEFINED> instruction: 0xfffef7ff
    36f0:	18e0f8df 	stmiane	r0!, {r0, r1, r2, r3, r4, r6, r7, fp, ip, sp, lr, pc}^
    36f4:	465a465b 			; <UNDEFINED> instruction: 0x465a465b
    36f8:	20014479 	andcs	r4, r1, r9, ror r4
    36fc:	f7ff9700 			; <UNDEFINED> instruction: 0xf7ff9700
    3700:	f8dffffe 			; <UNDEFINED> instruction: 0xf8dffffe
    3704:	ee1a18d4 	mrc	8, 0, r1, cr10, cr4, {6}
    3708:	ee1d3a10 	vmov	r3, s26
    370c:	44792a10 	ldrbtmi	r2, [r9], #-2576	; 0xfffff5f0
    3710:	f7ff2001 			; <UNDEFINED> instruction: 0xf7ff2001
    3714:	2001fffe 	strdcs	pc, [r1], -lr
    3718:	fffef7ff 			; <UNDEFINED> instruction: 0xfffef7ff
    371c:	18bcf8df 	ldmne	ip!, {r0, r1, r2, r3, r4, r6, r7, fp, ip, sp, lr, pc}
    3720:	46804632 			; <UNDEFINED> instruction: 0x46804632
    3724:	44792001 	ldrbtmi	r2, [r9], #-1
    3728:	fffef7ff 			; <UNDEFINED> instruction: 0xfffef7ff
    372c:	18b0f8df 	ldmne	r0!, {r0, r1, r2, r3, r4, r6, r7, fp, ip, sp, lr, pc}
    3730:	4642465b 			; <UNDEFINED> instruction: 0x4642465b
    3734:	20014479 	andcs	r4, r1, r9, ror r4
    3738:	f7ff9700 			; <UNDEFINED> instruction: 0xf7ff9700
    373c:	f8dffffe 			; <UNDEFINED> instruction: 0xf8dffffe
    3740:	ee1a18a4 	cdp	8, 1, cr1, cr10, cr4, {5}
    3744:	ee1d3a10 	vmov	r3, s26
    3748:	44792a10 	ldrbtmi	r2, [r9], #-2576	; 0xfffff5f0
    374c:	f7ff2001 			; <UNDEFINED> instruction: 0xf7ff2001
    3750:	2001fffe 	strdcs	pc, [r1], -lr
    3754:	fffef7ff 			; <UNDEFINED> instruction: 0xfffef7ff
    3758:	188cf8df 	stmne	ip, {r0, r1, r2, r3, r4, r6, r7, fp, ip, sp, lr, pc}
    375c:	46804632 			; <UNDEFINED> instruction: 0x46804632
    3760:	44792001 	ldrbtmi	r2, [r9], #-1
    3764:	fffef7ff 			; <UNDEFINED> instruction: 0xfffef7ff
    3768:	1880f8df 	stmne	r0, {r0, r1, r2, r3, r4, r6, r7, fp, ip, sp, lr, pc}
    376c:	20014642 	andcs	r4, r1, r2, asr #12
    3770:	f7ff4479 			; <UNDEFINED> instruction: 0xf7ff4479
    3774:	f8dffffe 			; <UNDEFINED> instruction: 0xf8dffffe
    3778:	ee1a1878 	mrc	8, 0, r1, cr10, cr8, {3}
    377c:	ee1d3a10 	vmov	r3, s26
    3780:	44792a10 	ldrbtmi	r2, [r9], #-2576	; 0xfffff5f0
    3784:	f7ff2001 			; <UNDEFINED> instruction: 0xf7ff2001
    3788:	2001fffe 	strdcs	pc, [r1], -lr
    378c:	fffef7ff 			; <UNDEFINED> instruction: 0xfffef7ff
    3790:	1860f8df 	stmdane	r0!, {r0, r1, r2, r3, r4, r6, r7, fp, ip, sp, lr, pc}^
    3794:	9a092001 	bls	0x24b7a0
    3798:	f7ff4479 			; <UNDEFINED> instruction: 0xf7ff4479
    379c:	f8dffffe 			; <UNDEFINED> instruction: 0xf8dffffe
    37a0:	20011858 	andcs	r1, r1, r8, asr r8
    37a4:	f7ff4479 			; <UNDEFINED> instruction: 0xf7ff4479
    37a8:	f8dffffe 			; <UNDEFINED> instruction: 0xf8dffffe
    37ac:	ee1a1850 	mrc	8, 0, r1, cr10, cr0, {2}
    37b0:	ee1d3a10 	vmov	r3, s26
    37b4:	44792a10 	ldrbtmi	r2, [r9], #-2576	; 0xfffff5f0
    37b8:	f7ff2001 			; <UNDEFINED> instruction: 0xf7ff2001
    37bc:	2001fffe 	strdcs	pc, [r1], -lr
    37c0:	fffef7ff 			; <UNDEFINED> instruction: 0xfffef7ff
    37c4:	1838f8df 	ldmdane	r8!, {r0, r1, r2, r3, r4, r6, r7, fp, ip, sp, lr, pc}
    37c8:	9a092001 	bls	0x24b7d4
    37cc:	f7ff4479 			; <UNDEFINED> instruction: 0xf7ff4479
    37d0:	f8dffffe 			; <UNDEFINED> instruction: 0xf8dffffe
    37d4:	20011830 	andcs	r1, r1, r0, lsr r8
    37d8:	f7ff4479 			; <UNDEFINED> instruction: 0xf7ff4479
    37dc:	f8dffffe 			; <UNDEFINED> instruction: 0xf8dffffe
    37e0:	ee1a1828 	cdp	8, 1, cr1, cr10, cr8, {1}
    37e4:	ee1d3a10 	vmov	r3, s26
    37e8:	44792a10 	ldrbtmi	r2, [r9], #-2576	; 0xfffff5f0
    37ec:	f7ff2001 			; <UNDEFINED> instruction: 0xf7ff2001
    37f0:	2001fffe 	strdcs	pc, [r1], -lr
    37f4:	fffef7ff 			; <UNDEFINED> instruction: 0xfffef7ff
    37f8:	1810f8df 	ldmdane	r0, {r0, r1, r2, r3, r4, r6, r7, fp, ip, sp, lr, pc}
    37fc:	46324680 	ldrtmi	r4, [r2], -r0, lsl #13
    3800:	44792001 	ldrbtmi	r2, [r9], #-1
    3804:	fffef7ff 			; <UNDEFINED> instruction: 0xfffef7ff
    3808:	91009911 	tstls	r0, r1, lsl r9
    380c:	f8df4643 			; <UNDEFINED> instruction: 0xf8df4643
    3810:	463a1800 	ldrtmi	r1, [sl], -r0, lsl #16
    3814:	44792001 	ldrbtmi	r2, [r9], #-1
    3818:	fffef7ff 			; <UNDEFINED> instruction: 0xfffef7ff
    381c:	17f4f8df 	ubfxne	pc, pc, #17, #21
    3820:	3a10ee1a 	bcc	0x43f090
    3824:	2a10ee1d 	bcs	0x43f0a0
    3828:	20014479 	andcs	r4, r1, r9, ror r4
    382c:	fffef7ff 			; <UNDEFINED> instruction: 0xfffef7ff
    3830:	f7ff2001 			; <UNDEFINED> instruction: 0xf7ff2001
    3834:	f8dffffe 			; <UNDEFINED> instruction: 0xf8dffffe
    3838:	220217e0 	andcs	r1, r2, #224, 14	; 0x3800000
    383c:	44792001 	ldrbtmi	r2, [r9], #-1
    3840:	fffef7ff 			; <UNDEFINED> instruction: 0xfffef7ff
    3844:	17d4f8df 			; <UNDEFINED> instruction: 0x17d4f8df
    3848:	44792001 	ldrbtmi	r2, [r9], #-1
    384c:	fffef7ff 			; <UNDEFINED> instruction: 0xfffef7ff
    3850:	17ccf8df 			; <UNDEFINED> instruction: 0x17ccf8df
    3854:	3a10ee1a 	bcc	0x43f0c4
    3858:	2a10ee1d 	bcs	0x43f0d4
    385c:	20014479 	andcs	r4, r1, r9, ror r4
    3860:	fffef7ff 			; <UNDEFINED> instruction: 0xfffef7ff
    3864:	f7ff2001 			; <UNDEFINED> instruction: 0xf7ff2001
    3868:	f8dffffe 			; <UNDEFINED> instruction: 0xf8dffffe
    386c:	220117b8 	andcs	r1, r1, #184, 14	; 0x2e00000
    3870:	44794610 	ldrbtmi	r4, [r9], #-1552	; 0xfffff9f0
    3874:	fffef7ff 			; <UNDEFINED> instruction: 0xfffef7ff
    3878:	17acf8df 	sbfxne	pc, pc, #17, #13
    387c:	44792001 	ldrbtmi	r2, [r9], #-1
    3880:	fffef7ff 			; <UNDEFINED> instruction: 0xfffef7ff
    3884:	17a4f8df 	sbfxne	pc, pc, #17, #5
    3888:	3a10ee1a 	bcc	0x43f0f8
    388c:	2a10ee1d 	bcs	0x43f108
    3890:	20014479 	andcs	r4, r1, r9, ror r4
    3894:	fffef7ff 			; <UNDEFINED> instruction: 0xfffef7ff
    3898:	f7ff2001 			; <UNDEFINED> instruction: 0xf7ff2001
    389c:	f8dffffe 			; <UNDEFINED> instruction: 0xf8dffffe
    38a0:	f44f3790 	vst1.32	{d19}, [pc :64], r0
    38a4:	f8df6286 			; <UNDEFINED> instruction: 0xf8df6286
    38a8:	f8df178c 			; <UNDEFINED> instruction: 0xf8df178c
    38ac:	447b078c 	ldrbtmi	r0, [fp], #-1932	; 0xfffff874
    38b0:	44784479 	ldrbtmi	r4, [r8], #-1145	; 0xfffffb87
    38b4:	fffef7ff 			; <UNDEFINED> instruction: 0xfffef7ff
    38b8:	3780f8df 			; <UNDEFINED> instruction: 0x3780f8df
    38bc:	422ef240 	eormi	pc, lr, #64, 4
    38c0:	177cf8df 			; <UNDEFINED> instruction: 0x177cf8df
    38c4:	077cf8df 			; <UNDEFINED> instruction: 0x077cf8df
    38c8:	4479447b 	ldrbtmi	r4, [r9], #-1147	; 0xfffffb85
    38cc:	f7ff4478 			; <UNDEFINED> instruction: 0xf7ff4478
    38d0:	ee18fffe 	mrc	15, 0, APSR_nzcv, cr8, cr14, {7}
    38d4:	46490a90 			; <UNDEFINED> instruction: 0x46490a90
    38d8:	fca6f7fc 	stc2	7, cr15, [r6], #1008	; 0x3f0
    38dc:	1768f8df 			; <UNDEFINED> instruction: 0x1768f8df
    38e0:	20014632 	andcs	r4, r1, r2, lsr r6
    38e4:	f7ff4479 			; <UNDEFINED> instruction: 0xf7ff4479
    38e8:	f8dffffe 			; <UNDEFINED> instruction: 0xf8dffffe
    38ec:	20011760 	andcs	r1, r1, r0, ror #14
    38f0:	f7ff4479 			; <UNDEFINED> instruction: 0xf7ff4479
    38f4:	f8dffffe 			; <UNDEFINED> instruction: 0xf8dffffe
    38f8:	ee1a1758 	mrc	7, 0, r1, cr10, cr8, {2}
    38fc:	ee1d3a10 	vmov	r3, s26
    3900:	44792a10 	ldrbtmi	r2, [r9], #-2576	; 0xfffff5f0
    3904:	f7ff2001 			; <UNDEFINED> instruction: 0xf7ff2001
    3908:	2001fffe 	strdcs	pc, [r1], -lr
    390c:	fffef7ff 			; <UNDEFINED> instruction: 0xfffef7ff
    3910:	1740f8df 			; <UNDEFINED> instruction: 0x1740f8df
    3914:	20014632 	andcs	r4, r1, r2, lsr r6
    3918:	f7ff4479 			; <UNDEFINED> instruction: 0xf7ff4479
    391c:	f8dffffe 			; <UNDEFINED> instruction: 0xf8dffffe
    3920:	20011738 	andcs	r1, r1, r8, lsr r7
    3924:	f7ff4479 			; <UNDEFINED> instruction: 0xf7ff4479
    3928:	f8dffffe 			; <UNDEFINED> instruction: 0xf8dffffe
    392c:	ee1a1730 	mrc	7, 0, r1, cr10, cr0, {1}
    3930:	ee1d3a10 	vmov	r3, s26
    3934:	44792a10 	ldrbtmi	r2, [r9], #-2576	; 0xfffff5f0
    3938:	f7ff2001 			; <UNDEFINED> instruction: 0xf7ff2001
    393c:	2001fffe 	strdcs	pc, [r1], -lr
    3940:	fffef7ff 			; <UNDEFINED> instruction: 0xfffef7ff
    3944:	1718f8df 			; <UNDEFINED> instruction: 0x1718f8df
    3948:	46584642 	ldrbmi	r4, [r8], -r2, asr #12
    394c:	f7ff4479 			; <UNDEFINED> instruction: 0xf7ff4479
    3950:	f8dffffe 			; <UNDEFINED> instruction: 0xf8dffffe
    3954:	46581710 			; <UNDEFINED> instruction: 0x46581710
    3958:	f7ff4479 			; <UNDEFINED> instruction: 0xf7ff4479
    395c:	f8dffffe 			; <UNDEFINED> instruction: 0xf8dffffe
    3960:	ee1a1708 	cdp	7, 1, cr1, cr10, cr8, {0}
    3964:	ee1d3a10 	vmov	r3, s26
    3968:	44792a10 	ldrbtmi	r2, [r9], #-2576	; 0xfffff5f0
    396c:	f7ff4658 			; <UNDEFINED> instruction: 0xf7ff4658
    3970:	4658fffe 	usub8mi	pc, r8, lr	; <UNPREDICTABLE>
    3974:	fffef7ff 			; <UNDEFINED> instruction: 0xfffef7ff
    3978:	16f0f8df 	usatne	pc, #16, pc, asr #17	; <UNPREDICTABLE>
    397c:	465a4680 	ldrbmi	r4, [sl], -r0, lsl #13
    3980:	44792001 	ldrbtmi	r2, [r9], #-1
    3984:	fffef7ff 			; <UNDEFINED> instruction: 0xfffef7ff
    3988:	16e4f8df 	usatne	pc, #4, pc, asr #17	; <UNPREDICTABLE>
    398c:	20014642 	andcs	r4, r1, r2, asr #12
    3990:	f7ff4479 			; <UNDEFINED> instruction: 0xf7ff4479
    3994:	f8dffffe 			; <UNDEFINED> instruction: 0xf8dffffe
    3998:	ee1a16dc 	mrc	6, 0, r1, cr10, cr12, {6}
    399c:	ee1d3a10 	vmov	r3, s26
    39a0:	44792a10 	ldrbtmi	r2, [r9], #-2576	; 0xfffff5f0
    39a4:	f7ff2001 			; <UNDEFINED> instruction: 0xf7ff2001
    39a8:	2001fffe 	strdcs	pc, [r1], -lr
    39ac:	fffef7ff 			; <UNDEFINED> instruction: 0xfffef7ff
    39b0:	16c4f8df 			; <UNDEFINED> instruction: 0x16c4f8df
    39b4:	2001465a 	andcs	r4, r1, sl, asr r6
    39b8:	f7ff4479 			; <UNDEFINED> instruction: 0xf7ff4479
    39bc:	f8dffffe 			; <UNDEFINED> instruction: 0xf8dffffe
    39c0:	200116bc 			; <UNDEFINED> instruction: 0x200116bc
    39c4:	f7ff4479 			; <UNDEFINED> instruction: 0xf7ff4479
    39c8:	f8dffffe 			; <UNDEFINED> instruction: 0xf8dffffe
    39cc:	ee1a16b4 	mrc	6, 0, r1, cr10, cr4, {5}
    39d0:	ee1d3a10 	vmov	r3, s26
    39d4:	44792a10 	ldrbtmi	r2, [r9], #-2576	; 0xfffff5f0
    39d8:	f7ff2001 			; <UNDEFINED> instruction: 0xf7ff2001
    39dc:	2001fffe 	strdcs	pc, [r1], -lr
    39e0:	fffef7ff 			; <UNDEFINED> instruction: 0xfffef7ff
    39e4:	169cf8df 			; <UNDEFINED> instruction: 0x169cf8df
    39e8:	20012202 	andcs	r2, r1, r2, lsl #4
    39ec:	f7ff4479 			; <UNDEFINED> instruction: 0xf7ff4479
    39f0:	f8dffffe 			; <UNDEFINED> instruction: 0xf8dffffe
    39f4:	20011694 	mulcs	r1, r4, r6
    39f8:	f7ff4479 			; <UNDEFINED> instruction: 0xf7ff4479
    39fc:	f8dffffe 			; <UNDEFINED> instruction: 0xf8dffffe
    3a00:	ee1a168c 	cfmsub32	mvax4, mvfx1, mvfx10, mvfx12
    3a04:	ee1d3a10 	vmov	r3, s26
    3a08:	44792a10 	ldrbtmi	r2, [r9], #-2576	; 0xfffff5f0
    3a0c:	f7ff2001 			; <UNDEFINED> instruction: 0xf7ff2001
    3a10:	2001fffe 	strdcs	pc, [r1], -lr
    3a14:	fffef7ff 			; <UNDEFINED> instruction: 0xfffef7ff
    3a18:	1674f8df 			; <UNDEFINED> instruction: 0x1674f8df
    3a1c:	9a132001 	bls	0x4cba28
    3a20:	f7ff4479 			; <UNDEFINED> instruction: 0xf7ff4479
    3a24:	f8dffffe 			; <UNDEFINED> instruction: 0xf8dffffe
    3a28:	2001166c 	andcs	r1, r1, ip, ror #12
    3a2c:	f7ff4479 			; <UNDEFINED> instruction: 0xf7ff4479
    3a30:	f8dffffe 			; <UNDEFINED> instruction: 0xf8dffffe
    3a34:	ee1a1664 	cfmsub32	mvax3, mvfx1, mvfx10, mvfx4
    3a38:	ee1d3a10 	vmov	r3, s26
    3a3c:	44792a10 	ldrbtmi	r2, [r9], #-2576	; 0xfffff5f0
    3a40:	f7ff2001 			; <UNDEFINED> instruction: 0xf7ff2001
    3a44:	2001fffe 	strdcs	pc, [r1], -lr
    3a48:	fffef7ff 			; <UNDEFINED> instruction: 0xfffef7ff
    3a4c:	164cf8df 			; <UNDEFINED> instruction: 0x164cf8df
    3a50:	9a132001 	bls	0x4cba5c
    3a54:	f7ff4479 			; <UNDEFINED> instruction: 0xf7ff4479
    3a58:	f8dffffe 			; <UNDEFINED> instruction: 0xf8dffffe
    3a5c:	20011644 	andcs	r1, r1, r4, asr #12
    3a60:	f7ff4479 			; <UNDEFINED> instruction: 0xf7ff4479
    3a64:	f8dffffe 			; <UNDEFINED> instruction: 0xf8dffffe
    3a68:	ee1a163c 	mrc	6, 0, r1, cr10, cr12, {1}
    3a6c:	ee1d3a10 	vmov	r3, s26
    3a70:	44792a10 	ldrbtmi	r2, [r9], #-2576	; 0xfffff5f0
    3a74:	f7ff2001 			; <UNDEFINED> instruction: 0xf7ff2001
    3a78:	2001fffe 	strdcs	pc, [r1], -lr
    3a7c:	fffef7ff 			; <UNDEFINED> instruction: 0xfffef7ff
    3a80:	1624f8df 			; <UNDEFINED> instruction: 0x1624f8df
    3a84:	9a132001 	bls	0x4cba90
    3a88:	f7ff4479 			; <UNDEFINED> instruction: 0xf7ff4479
    3a8c:	f8dffffe 			; <UNDEFINED> instruction: 0xf8dffffe
    3a90:	2001161c 	andcs	r1, r1, ip, lsl r6
    3a94:	f7ff4479 			; <UNDEFINED> instruction: 0xf7ff4479
    3a98:	f8dffffe 			; <UNDEFINED> instruction: 0xf8dffffe
    3a9c:	ee1a1614 	mrc	6, 0, r1, cr10, cr4, {0}
    3aa0:	ee1d3a10 	vmov	r3, s26
    3aa4:	44792a10 	ldrbtmi	r2, [r9], #-2576	; 0xfffff5f0
    3aa8:	f7ff2001 			; <UNDEFINED> instruction: 0xf7ff2001
    3aac:	2001fffe 	strdcs	pc, [r1], -lr
    3ab0:	fffef7ff 			; <UNDEFINED> instruction: 0xfffef7ff
    3ab4:	15fcf8df 	ldrbne	pc, [ip, #2271]!	; 0x8df	; <UNPREDICTABLE>
    3ab8:	9a132001 	bls	0x4cbac4
    3abc:	f7ff4479 			; <UNDEFINED> instruction: 0xf7ff4479
    3ac0:	f8dffffe 			; <UNDEFINED> instruction: 0xf8dffffe
    3ac4:	200115f4 	strdcs	r1, [r1], -r4
    3ac8:	f7ff4479 			; <UNDEFINED> instruction: 0xf7ff4479
    3acc:	f8dffffe 			; <UNDEFINED> instruction: 0xf8dffffe
    3ad0:	ee1a15ec 	cdp	5, 1, cr1, cr10, cr12, {7}
    3ad4:	ee1d3a10 	vmov	r3, s26
    3ad8:	44792a10 	ldrbtmi	r2, [r9], #-2576	; 0xfffff5f0
    3adc:	f7ff2001 			; <UNDEFINED> instruction: 0xf7ff2001
    3ae0:	2001fffe 	strdcs	pc, [r1], -lr
    3ae4:	fffef7ff 			; <UNDEFINED> instruction: 0xfffef7ff
    3ae8:	15d4f8df 	ldrbne	pc, [r4, #2271]	; 0x8df	; <UNPREDICTABLE>
    3aec:	20014632 	andcs	r4, r1, r2, lsr r6
    3af0:	f7ff4479 			; <UNDEFINED> instruction: 0xf7ff4479
    3af4:	f8dffffe 			; <UNDEFINED> instruction: 0xf8dffffe
    3af8:	465b15cc 	ldrbmi	r1, [fp], -ip, asr #11
    3afc:	4479465a 	ldrbtmi	r4, [r9], #-1626	; 0xfffff9a6
    3b00:	97002001 	strls	r2, [r0, -r1]
    3b04:	fffef7ff 			; <UNDEFINED> instruction: 0xfffef7ff
    3b08:	15bcf8df 	ldrne	pc, [ip, #2271]!	; 0x8df
    3b0c:	3a10ee1a 	bcc	0x43f37c
    3b10:	2a10ee1d 	bcs	0x43f38c
    3b14:	20014479 	andcs	r4, r1, r9, ror r4
    3b18:	fffef7ff 			; <UNDEFINED> instruction: 0xfffef7ff
    3b1c:	f7ff2001 			; <UNDEFINED> instruction: 0xf7ff2001
    3b20:	f8dffffe 			; <UNDEFINED> instruction: 0xf8dffffe
    3b24:	463215a8 	ldrtmi	r1, [r2], -r8, lsr #11
    3b28:	20014680 	andcs	r4, r1, r0, lsl #13
    3b2c:	f7ff4479 			; <UNDEFINED> instruction: 0xf7ff4479
    3b30:	f8dffffe 			; <UNDEFINED> instruction: 0xf8dffffe
    3b34:	465b159c 			; <UNDEFINED> instruction: 0x465b159c
    3b38:	44794642 	ldrbtmi	r4, [r9], #-1602	; 0xfffff9be
    3b3c:	97002001 	strls	r2, [r0, -r1]
    3b40:	fffef7ff 			; <UNDEFINED> instruction: 0xfffef7ff
    3b44:	158cf8df 	strne	pc, [ip, #2271]	; 0x8df
    3b48:	3a10ee1a 	bcc	0x43f3b8
    3b4c:	2a10ee1d 	bcs	0x43f3c8
    3b50:	20014479 	andcs	r4, r1, r9, ror r4
    3b54:	fffef7ff 			; <UNDEFINED> instruction: 0xfffef7ff
    3b58:	f7ff2001 			; <UNDEFINED> instruction: 0xf7ff2001
    3b5c:	f8dffffe 			; <UNDEFINED> instruction: 0xf8dffffe
    3b60:	46321578 			; <UNDEFINED> instruction: 0x46321578
    3b64:	44792001 	ldrbtmi	r2, [r9], #-1
    3b68:	fffef7ff 			; <UNDEFINED> instruction: 0xfffef7ff
    3b6c:	156cf8df 	strbne	pc, [ip, #-2271]!	; 0xfffff721	; <UNPREDICTABLE>
    3b70:	2001462a 	andcs	r4, r1, sl, lsr #12
    3b74:	f7ff4479 			; <UNDEFINED> instruction: 0xf7ff4479
    3b78:	f8dffffe 			; <UNDEFINED> instruction: 0xf8dffffe
    3b7c:	ee1a1564 	cfmsc32	mvfx1, mvfx10, mvfx4
    3b80:	ee1d3a10 	vmov	r3, s26
    3b84:	44792a10 	ldrbtmi	r2, [r9], #-2576	; 0xfffff5f0
    3b88:	f7ff2001 			; <UNDEFINED> instruction: 0xf7ff2001
    3b8c:	2001fffe 	strdcs	pc, [r1], -lr
    3b90:	fffef7ff 			; <UNDEFINED> instruction: 0xfffef7ff
    3b94:	154cf8df 	strbne	pc, [ip, #-2271]	; 0xfffff721	; <UNPREDICTABLE>
    3b98:	20014632 	andcs	r4, r1, r2, lsr r6
    3b9c:	f7ff4479 			; <UNDEFINED> instruction: 0xf7ff4479
    3ba0:	f8dffffe 			; <UNDEFINED> instruction: 0xf8dffffe
    3ba4:	462a1544 	strtmi	r1, [sl], -r4, asr #10
    3ba8:	44792001 	ldrbtmi	r2, [r9], #-1
    3bac:	fffef7ff 			; <UNDEFINED> instruction: 0xfffef7ff
    3bb0:	1538f8df 	ldrne	pc, [r8, #-2271]!	; 0xfffff721
    3bb4:	3a10ee1a 	bcc	0x43f424
    3bb8:	2a10ee1d 	bcs	0x43f434
    3bbc:	20014479 	andcs	r4, r1, r9, ror r4
    3bc0:	fffef7ff 			; <UNDEFINED> instruction: 0xfffef7ff
    3bc4:	f7ff2001 			; <UNDEFINED> instruction: 0xf7ff2001
    3bc8:	f8dffffe 			; <UNDEFINED> instruction: 0xf8dffffe
    3bcc:	46321524 	ldrtmi	r1, [r2], -r4, lsr #10
    3bd0:	44792001 	ldrbtmi	r2, [r9], #-1
    3bd4:	fffef7ff 			; <UNDEFINED> instruction: 0xfffef7ff
    3bd8:	1518f8df 	ldrne	pc, [r8, #-2271]	; 0xfffff721
    3bdc:	44792001 	ldrbtmi	r2, [r9], #-1
    3be0:	fffef7ff 			; <UNDEFINED> instruction: 0xfffef7ff
    3be4:	1510f8df 	ldrne	pc, [r0, #-2271]	; 0xfffff721
    3be8:	3a10ee1a 	bcc	0x43f458
    3bec:	2a10ee1d 	bcs	0x43f468
    3bf0:	20014479 	andcs	r4, r1, r9, ror r4
    3bf4:	fffef7ff 			; <UNDEFINED> instruction: 0xfffef7ff
    3bf8:	f7ff2001 			; <UNDEFINED> instruction: 0xf7ff2001
    3bfc:	f8dffffe 			; <UNDEFINED> instruction: 0xf8dffffe
    3c00:	464214fc 			; <UNDEFINED> instruction: 0x464214fc
    3c04:	44792001 	ldrbtmi	r2, [r9], #-1
    3c08:	fffef7ff 			; <UNDEFINED> instruction: 0xfffef7ff
    3c0c:	14f0f8df 	ldrbtne	pc, [r0], #2271	; 0x8df	; <UNPREDICTABLE>
    3c10:	2001462a 	andcs	r4, r1, sl, lsr #12
    3c14:	f7ff4479 			; <UNDEFINED> instruction: 0xf7ff4479
    3c18:	f8dffffe 			; <UNDEFINED> instruction: 0xf8dffffe
    3c1c:	ee1a14e8 	cdp	4, 1, cr1, cr10, cr8, {7}
    3c20:	ee1d3a10 	vmov	r3, s26
    3c24:	44792a10 	ldrbtmi	r2, [r9], #-2576	; 0xfffff5f0
    3c28:	f7ff2001 			; <UNDEFINED> instruction: 0xf7ff2001
    3c2c:	2001fffe 	strdcs	pc, [r1], -lr
    3c30:	fffef7ff 			; <UNDEFINED> instruction: 0xfffef7ff
    3c34:	14d0f8df 	ldrbne	pc, [r0], #2271	; 0x8df	; <UNPREDICTABLE>
    3c38:	2001465a 	andcs	r4, r1, sl, asr r6
    3c3c:	f7ff4479 			; <UNDEFINED> instruction: 0xf7ff4479
    3c40:	f8dffffe 			; <UNDEFINED> instruction: 0xf8dffffe
    3c44:	200114c8 	andcs	r1, r1, r8, asr #9
    3c48:	f7ff4479 			; <UNDEFINED> instruction: 0xf7ff4479
    3c4c:	f8dffffe 			; <UNDEFINED> instruction: 0xf8dffffe
    3c50:	ee1a14c0 	cfmv64a	mvdx1, mvax10
    3c54:	ee1d3a10 	vmov	r3, s26
    3c58:	44792a10 	ldrbtmi	r2, [r9], #-2576	; 0xfffff5f0
    3c5c:	f7ff2001 			; <UNDEFINED> instruction: 0xf7ff2001
    3c60:	2001fffe 	strdcs	pc, [r1], -lr
    3c64:	fffef7ff 			; <UNDEFINED> instruction: 0xfffef7ff
    3c68:	14a8f8df 	strtne	pc, [r8], #2271	; 0x8df
    3c6c:	465a4680 	ldrbmi	r4, [sl], -r0, lsl #13
    3c70:	44792001 	ldrbtmi	r2, [r9], #-1
    3c74:	fffef7ff 			; <UNDEFINED> instruction: 0xfffef7ff
    3c78:	f8df9b0f 			; <UNDEFINED> instruction: 0xf8df9b0f
    3c7c:	4642149c 			; <UNDEFINED> instruction: 0x4642149c
    3c80:	f8532001 			; <UNDEFINED> instruction: 0xf8532001
    3c84:	44793c48 	ldrbtmi	r3, [r9], #-3144	; 0xfffff3b8
    3c88:	fffef7ff 			; <UNDEFINED> instruction: 0xfffef7ff
    3c8c:	148cf8df 	strne	pc, [ip], #2271	; 0x8df
    3c90:	3a10ee1a 	bcc	0x43f500
    3c94:	2a10ee1d 	bcs	0x43f510
    3c98:	20014479 	andcs	r4, r1, r9, ror r4
    3c9c:	fffef7ff 			; <UNDEFINED> instruction: 0xfffef7ff
    3ca0:	f7ff2001 			; <UNDEFINED> instruction: 0xf7ff2001
    3ca4:	f8dffffe 			; <UNDEFINED> instruction: 0xf8dffffe
    3ca8:	465a1478 			; <UNDEFINED> instruction: 0x465a1478
    3cac:	44792001 	ldrbtmi	r2, [r9], #-1
    3cb0:	fffef7ff 			; <UNDEFINED> instruction: 0xfffef7ff
    3cb4:	146cf8df 	strbtne	pc, [ip], #-2271	; 0xfffff721	; <UNPREDICTABLE>
    3cb8:	44792001 	ldrbtmi	r2, [r9], #-1
    3cbc:	fffef7ff 			; <UNDEFINED> instruction: 0xfffef7ff
    3cc0:	1464f8df 	strbtne	pc, [r4], #-2271	; 0xfffff721	; <UNPREDICTABLE>
    3cc4:	3a10ee1a 	bcc	0x43f534
    3cc8:	2a10ee1d 	bcs	0x43f544
    3ccc:	20014479 	andcs	r4, r1, r9, ror r4
    3cd0:	fffef7ff 			; <UNDEFINED> instruction: 0xfffef7ff
    3cd4:	f7ff2001 			; <UNDEFINED> instruction: 0xf7ff2001
    3cd8:	f8dffffe 			; <UNDEFINED> instruction: 0xf8dffffe
    3cdc:	465a1450 			; <UNDEFINED> instruction: 0x465a1450
    3ce0:	44792001 	ldrbtmi	r2, [r9], #-1
    3ce4:	fffef7ff 			; <UNDEFINED> instruction: 0xfffef7ff
    3ce8:	1444f8df 	strbne	pc, [r4], #-2271	; 0xfffff721	; <UNPREDICTABLE>
    3cec:	44792001 	ldrbtmi	r2, [r9], #-1
    3cf0:	fffef7ff 			; <UNDEFINED> instruction: 0xfffef7ff
    3cf4:	143cf8df 	ldrtne	pc, [ip], #-2271	; 0xfffff721	; <UNPREDICTABLE>
    3cf8:	3a10ee1a 	bcc	0x43f568
    3cfc:	2a10ee1d 	bcs	0x43f578
    3d00:	20014479 	andcs	r4, r1, r9, ror r4
    3d04:	fffef7ff 			; <UNDEFINED> instruction: 0xfffef7ff
    3d08:	f7ff2001 			; <UNDEFINED> instruction: 0xf7ff2001
    3d0c:	ee18fffe 	mrc	15, 0, APSR_nzcv, cr8, cr14, {7}
    3d10:	46490a90 			; <UNDEFINED> instruction: 0x46490a90
    3d14:	fa88f7fc 	blx	0xfe241d0c
    3d18:	141cf8df 	ldrne	pc, [ip], #-2271	; 0xfffff721
    3d1c:	20014642 	andcs	r4, r1, r2, asr #12
    3d20:	f7ff4479 			; <UNDEFINED> instruction: 0xf7ff4479
    3d24:	f8dffffe 			; <UNDEFINED> instruction: 0xf8dffffe
    3d28:	9a061414 	bls	0x188d80
    3d2c:	44792001 	ldrbtmi	r2, [r9], #-1
    3d30:	fffef7ff 			; <UNDEFINED> instruction: 0xfffef7ff
    3d34:	1408f8df 	strne	pc, [r8], #-2271	; 0xfffff721
    3d38:	3a10ee1a 	bcc	0x43f5a8
    3d3c:	2a10ee1d 	bcs	0x43f5b8
    3d40:	20014479 	andcs	r4, r1, r9, ror r4
    3d44:	fffef7ff 			; <UNDEFINED> instruction: 0xfffef7ff
    3d48:	f7ff2001 			; <UNDEFINED> instruction: 0xf7ff2001
    3d4c:	49fdfffe 	ldmibmi	sp!, {r1, r2, r3, r4, r5, r6, r7, r8, r9, sl, fp, ip, sp, lr, pc}^
    3d50:	20014642 	andcs	r4, r1, r2, asr #12
    3d54:	f7ff4479 			; <UNDEFINED> instruction: 0xf7ff4479
    3d58:	49fbfffe 	ldmibmi	fp!, {r1, r2, r3, r4, r5, r6, r7, r8, r9, sl, fp, ip, sp, lr, pc}^
    3d5c:	44792001 	ldrbtmi	r2, [r9], #-1
    3d60:	fffef7ff 			; <UNDEFINED> instruction: 0xfffef7ff
    3d64:	ee1a49f9 			; <UNDEFINED> instruction: 0xee1a49f9
    3d68:	ee1d3a10 	vmov	r3, s26
    3d6c:	44792a10 	ldrbtmi	r2, [r9], #-2576	; 0xfffff5f0
    3d70:	f7ff2001 			; <UNDEFINED> instruction: 0xf7ff2001
    3d74:	2001fffe 	strdcs	pc, [r1], -lr
    3d78:	fffef7ff 			; <UNDEFINED> instruction: 0xfffef7ff
    3d7c:	f44f4bf4 			; <UNDEFINED> instruction: 0xf44f4bf4
    3d80:	49f47271 	ldmibmi	r4!, {r0, r4, r5, r6, r9, ip, sp, lr}^
    3d84:	447b48f4 	ldrbtmi	r4, [fp], #-2292	; 0xfffff70c
    3d88:	44784479 	ldrbtmi	r4, [r8], #-1145	; 0xfffffb87
    3d8c:	fffef7ff 			; <UNDEFINED> instruction: 0xfffef7ff
    3d90:	463249f2 			; <UNDEFINED> instruction: 0x463249f2
    3d94:	44792001 	ldrbtmi	r2, [r9], #-1
    3d98:	fffef7ff 			; <UNDEFINED> instruction: 0xfffef7ff
    3d9c:	200149f0 	strdcs	r4, [r1], -r0
    3da0:	f7ff4479 			; <UNDEFINED> instruction: 0xf7ff4479
    3da4:	49effffe 	stmibmi	pc!, {r1, r2, r3, r4, r5, r6, r7, r8, r9, sl, fp, ip, sp, lr, pc}^	; <UNPREDICTABLE>
    3da8:	3a10ee1a 	bcc	0x43f618
    3dac:	2a10ee1d 	bcs	0x43f628
    3db0:	20014479 	andcs	r4, r1, r9, ror r4
    3db4:	fffef7ff 			; <UNDEFINED> instruction: 0xfffef7ff
    3db8:	f7ff2001 			; <UNDEFINED> instruction: 0xf7ff2001
    3dbc:	49eafffe 	stmibmi	sl!, {r1, r2, r3, r4, r5, r6, r7, r8, r9, sl, fp, ip, sp, lr, pc}^
    3dc0:	20014632 	andcs	r4, r1, r2, lsr r6
    3dc4:	f7ff4479 			; <UNDEFINED> instruction: 0xf7ff4479
    3dc8:	49e8fffe 	stmibmi	r8!, {r1, r2, r3, r4, r5, r6, r7, r8, r9, sl, fp, ip, sp, lr, pc}^
    3dcc:	44792001 	ldrbtmi	r2, [r9], #-1
    3dd0:	fffef7ff 			; <UNDEFINED> instruction: 0xfffef7ff
    3dd4:	ee1a49e6 	vnmla.f16	s8, s21, s13
    3dd8:	ee1d3a10 	vmov	r3, s26
    3ddc:	44792a10 	ldrbtmi	r2, [r9], #-2576	; 0xfffff5f0
    3de0:	f7ff2001 			; <UNDEFINED> instruction: 0xf7ff2001
    3de4:	2001fffe 	strdcs	pc, [r1], -lr
    3de8:	fffef7ff 			; <UNDEFINED> instruction: 0xfffef7ff
    3dec:	460549e1 	strmi	r4, [r5], -r1, ror #19
    3df0:	20014632 	andcs	r4, r1, r2, lsr r6
    3df4:	f7ff4479 			; <UNDEFINED> instruction: 0xf7ff4479
    3df8:	9b0ffffe 	blls	0x403df8
    3dfc:	462a49de 			; <UNDEFINED> instruction: 0x462a49de
    3e00:	f8532001 			; <UNDEFINED> instruction: 0xf8532001
    3e04:	44793c48 	ldrbtmi	r3, [r9], #-3144	; 0xfffff3b8
    3e08:	fffef7ff 			; <UNDEFINED> instruction: 0xfffef7ff
    3e0c:	ee1a49db 			; <UNDEFINED> instruction: 0xee1a49db
    3e10:	ee1d3a10 	vmov	r3, s26
    3e14:	44792a10 	ldrbtmi	r2, [r9], #-2576	; 0xfffff5f0
    3e18:	f7ff2001 			; <UNDEFINED> instruction: 0xf7ff2001
    3e1c:	2001fffe 	strdcs	pc, [r1], -lr
    3e20:	fffef7ff 			; <UNDEFINED> instruction: 0xfffef7ff
    3e24:	00000f58 	andeq	r0, r0, r8, asr pc
    3e28:	00000f50 	andeq	r0, r0, r0, asr pc
    3e2c:	00000f48 	andeq	r0, r0, r8, asr #30
    3e30:	00000000 	andeq	r0, r0, r0
    3e34:	00000f24 	andeq	r0, r0, r4, lsr #30
    3e38:	00000f1c 	andeq	r0, r0, ip, lsl pc
    3e3c:	00000f14 	andeq	r0, r0, r4, lsl pc
    3e40:	00000ef4 	strdeq	r0, [r0], -r4
    3e44:	00000ee6 	andeq	r0, r0, r6, ror #29
    3e48:	00000ec6 	andeq	r0, r0, r6, asr #29
    3e4c:	00000eb8 			; <UNDEFINED> instruction: 0x00000eb8
    3e50:	00000e98 	muleq	r0, r8, lr
    3e54:	00000e8a 	andeq	r0, r0, sl, lsl #29
    3e58:	00000e6a 	andeq	r0, r0, sl, ror #28
    3e5c:	00000e5c 	andeq	r0, r0, ip, asr lr
    3e60:	00000e2c 	andeq	r0, r0, ip, lsr #28
    3e64:	00000e1e 	andeq	r0, r0, lr, lsl lr
    3e68:	00000dfe 	strdeq	r0, [r0], -lr
    3e6c:	00000df0 	strdeq	r0, [r0], -r0	; <UNPREDICTABLE>
    3e70:	00000d9a 	muleq	r0, sl, sp
    3e74:	00000d90 	muleq	r0, r0, sp
    3e78:	00000d80 	andeq	r0, r0, r0, lsl #27
    3e7c:	00000d6c 	andeq	r0, r0, ip, ror #26
    3e80:	00000d62 	andeq	r0, r0, r2, ror #26
    3e84:	00000d52 	andeq	r0, r0, r2, asr sp
    3e88:	00000d44 	andeq	r0, r0, r4, asr #26
    3e8c:	00000d36 	andeq	r0, r0, r6, lsr sp
    3e90:	00000d2e 	andeq	r0, r0, lr, lsr #26
    3e94:	00000d20 	andeq	r0, r0, r0, lsr #26
    3e98:	00000d0e 	andeq	r0, r0, lr, lsl #26
    3e9c:	00000d06 	andeq	r0, r0, r6, lsl #26
    3ea0:	00000cf8 	strdeq	r0, [r0], -r8
    3ea4:	00000ce6 	andeq	r0, r0, r6, ror #25
    3ea8:	00000cde 	ldrdeq	r0, [r0], -lr
    3eac:	00000cd0 	ldrdeq	r0, [r0], -r0	; <UNPREDICTABLE>
    3eb0:	00000cbe 			; <UNDEFINED> instruction: 0x00000cbe
    3eb4:	00000cb6 			; <UNDEFINED> instruction: 0x00000cb6
    3eb8:	00000ca8 	andeq	r0, r0, r8, lsr #25
    3ebc:	00000c96 	muleq	r0, r6, ip
    3ec0:	00000c8e 	andeq	r0, r0, lr, lsl #25
    3ec4:	00000c80 	andeq	r0, r0, r0, lsl #25
    3ec8:	00000c6e 	andeq	r0, r0, lr, ror #24
    3ecc:	00000c66 	andeq	r0, r0, r6, ror #24
    3ed0:	00000c58 	andeq	r0, r0, r8, asr ip
    3ed4:	00000c46 	andeq	r0, r0, r6, asr #24
    3ed8:	00000c3e 	andeq	r0, r0, lr, lsr ip
    3edc:	00000c30 	andeq	r0, r0, r0, lsr ip
    3ee0:	00000c1e 	andeq	r0, r0, lr, lsl ip
    3ee4:	00000c16 	andeq	r0, r0, r6, lsl ip
    3ee8:	00000c08 	andeq	r0, r0, r8, lsl #24
    3eec:	00000bf4 	strdeq	r0, [r0], -r4
    3ef0:	00000bea 	andeq	r0, r0, sl, ror #23
    3ef4:	00000bda 	ldrdeq	r0, [r0], -sl
    3ef8:	00000bc8 	andeq	r0, r0, r8, asr #23
    3efc:	00000bc0 	andeq	r0, r0, r0, asr #23
    3f00:	00000bb2 			; <UNDEFINED> instruction: 0x00000bb2
    3f04:	00000b9e 	muleq	r0, lr, fp
    3f08:	00000b94 	muleq	r0, r4, fp
    3f0c:	00000b84 	andeq	r0, r0, r4, lsl #23
    3f10:	00000b6c 	andeq	r0, r0, ip, ror #22
    3f14:	00000b62 	andeq	r0, r0, r2, ror #22
    3f18:	00000b52 	andeq	r0, r0, r2, asr fp
    3f1c:	00000b38 	andeq	r0, r0, r8, lsr fp
    3f20:	00000b3a 	andeq	r0, r0, sl, lsr fp
    3f24:	00000b3c 	andeq	r0, r0, ip, lsr fp
    3f28:	00000b2e 	andeq	r0, r0, lr, lsr #22
    3f2c:	00000b26 	andeq	r0, r0, r6, lsr #22
    3f30:	00000b18 	andeq	r0, r0, r8, lsl fp
    3f34:	00000b02 	andeq	r0, r0, r2, lsl #22
    3f38:	00000afa 	strdeq	r0, [r0], -sl
    3f3c:	00000aec 	andeq	r0, r0, ip, ror #21
    3f40:	00000ad0 	ldrdeq	r0, [r0], -r0	; <UNPREDICTABLE>
    3f44:	00000ac8 	andeq	r0, r0, r8, asr #21
    3f48:	00000aba 			; <UNDEFINED> instruction: 0x00000aba
    3f4c:	00000aa8 	andeq	r0, r0, r8, lsr #21
    3f50:	00000aa0 	andeq	r0, r0, r0, lsr #21
    3f54:	00000a92 	muleq	r0, r2, sl
    3f58:	00000a80 	andeq	r0, r0, r0, lsl #21
    3f5c:	00000a78 	andeq	r0, r0, r8, ror sl
    3f60:	00000a6a 	andeq	r0, r0, sl, ror #20
    3f64:	00000a54 	andeq	r0, r0, r4, asr sl
    3f68:	00000a4c 	andeq	r0, r0, ip, asr #20
    3f6c:	00000a3e 	andeq	r0, r0, lr, lsr sl
    3f70:	00000a2c 	andeq	r0, r0, ip, lsr #20
    3f74:	00000a24 	andeq	r0, r0, r4, lsr #20
    3f78:	00000a16 	andeq	r0, r0, r6, lsl sl
    3f7c:	00000a04 	andeq	r0, r0, r4, lsl #20
    3f80:	000009fc 	strdeq	r0, [r0], -ip
    3f84:	000009ee 	andeq	r0, r0, lr, ror #19
    3f88:	000009dc 	ldrdeq	r0, [r0], -ip
    3f8c:	000009d4 	ldrdeq	r0, [r0], -r4
    3f90:	000009c6 	andeq	r0, r0, r6, asr #19
    3f94:	000009b2 			; <UNDEFINED> instruction: 0x000009b2
    3f98:	000009a8 	andeq	r0, r0, r8, lsr #19
    3f9c:	00000998 	muleq	r0, r8, r9
    3fa0:	00000986 	andeq	r0, r0, r6, lsl #19
    3fa4:	0000097e 	andeq	r0, r0, lr, ror r9
    3fa8:	00000970 	andeq	r0, r0, r0, ror r9
    3fac:	0000095e 	andeq	r0, r0, lr, asr r9
    3fb0:	00000956 	andeq	r0, r0, r6, asr r9
    3fb4:	00000948 	andeq	r0, r0, r8, asr #18
    3fb8:	00000934 	andeq	r0, r0, r4, lsr r9
    3fbc:	0000092a 	andeq	r0, r0, sl, lsr #18
    3fc0:	0000091c 	andeq	r0, r0, ip, lsl r9
    3fc4:	0000090a 	andeq	r0, r0, sl, lsl #18
    3fc8:	00000902 	andeq	r0, r0, r2, lsl #18
    3fcc:	000008f4 	strdeq	r0, [r0], -r4
    3fd0:	000008e2 	andeq	r0, r0, r2, ror #17
    3fd4:	000008d8 	ldrdeq	r0, [r0], -r8
    3fd8:	000008c6 	andeq	r0, r0, r6, asr #17
    3fdc:	000008b2 			; <UNDEFINED> instruction: 0x000008b2
    3fe0:	000008a8 	andeq	r0, r0, r8, lsr #17
    3fe4:	00000896 	muleq	r0, r6, r8
    3fe8:	00000882 	andeq	r0, r0, r2, lsl #17
    3fec:	00000878 	andeq	r0, r0, r8, ror r8
    3ff0:	0000086a 	andeq	r0, r0, sl, ror #16
    3ff4:	00000858 	andeq	r0, r0, r8, asr r8
    3ff8:	00000850 	andeq	r0, r0, r0, asr r8
    3ffc:	00000842 	andeq	r0, r0, r2, asr #16
    4000:	00000830 	andeq	r0, r0, r0, lsr r8
    4004:	00000828 	andeq	r0, r0, r8, lsr #16
    4008:	0000081a 	andeq	r0, r0, sl, lsl r8
    400c:	00000806 	andeq	r0, r0, r6, lsl #16
    4010:	000007f6 	strdeq	r0, [r0], -r6
    4014:	000007e8 	andeq	r0, r0, r8, ror #15
    4018:	000007d6 	ldrdeq	r0, [r0], -r6
    401c:	000007ce 	andeq	r0, r0, lr, asr #15
    4020:	000007c0 	andeq	r0, r0, r0, asr #15
    4024:	000007ae 	andeq	r0, r0, lr, lsr #15
    4028:	000007a6 	andeq	r0, r0, r6, lsr #15
    402c:	00000798 	muleq	r0, r8, r7
    4030:	0000077e 	andeq	r0, r0, lr, ror r7
    4034:	00000780 	andeq	r0, r0, r0, lsl #15
    4038:	00000782 	andeq	r0, r0, r2, lsl #15
    403c:	00000770 	andeq	r0, r0, r0, ror r7
    4040:	00000772 	andeq	r0, r0, r2, ror r7
    4044:	00000774 	andeq	r0, r0, r4, ror r7
    4048:	00000760 	andeq	r0, r0, r0, ror #14
    404c:	00000758 	andeq	r0, r0, r8, asr r7
    4050:	0000074a 	andeq	r0, r0, sl, asr #14
    4054:	00000738 	andeq	r0, r0, r8, lsr r7
    4058:	00000730 	andeq	r0, r0, r0, lsr r7
    405c:	00000722 	andeq	r0, r0, r2, lsr #14
    4060:	00000710 	andeq	r0, r0, r0, lsl r7
    4064:	00000708 	andeq	r0, r0, r8, lsl #14
    4068:	000006fa 	strdeq	r0, [r0], -sl
    406c:	000006e6 	andeq	r0, r0, r6, ror #13
    4070:	000006dc 	ldrdeq	r0, [r0], -ip
    4074:	000006ce 	andeq	r0, r0, lr, asr #13
    4078:	000006bc 			; <UNDEFINED> instruction: 0x000006bc
    407c:	000006b4 			; <UNDEFINED> instruction: 0x000006b4
    4080:	000006a6 	andeq	r0, r0, r6, lsr #13
    4084:	00000694 	muleq	r0, r4, r6
    4088:	0000068c 	andeq	r0, r0, ip, lsl #13
    408c:	0000067e 	andeq	r0, r0, lr, ror r6
    4090:	0000066c 	andeq	r0, r0, ip, ror #12
    4094:	00000664 	andeq	r0, r0, r4, ror #12
    4098:	00000656 	andeq	r0, r0, r6, asr r6
    409c:	00000644 	andeq	r0, r0, r4, asr #12
    40a0:	0000063c 	andeq	r0, r0, ip, lsr r6
    40a4:	0000062e 	andeq	r0, r0, lr, lsr #12
    40a8:	0000061c 	andeq	r0, r0, ip, lsl r6
    40ac:	00000614 	andeq	r0, r0, r4, lsl r6
    40b0:	00000606 	andeq	r0, r0, r6, lsl #12
    40b4:	000005f4 	strdeq	r0, [r0], -r4
    40b8:	000005ec 	andeq	r0, r0, ip, ror #11
    40bc:	000005de 	ldrdeq	r0, [r0], -lr
    40c0:	000005cc 	andeq	r0, r0, ip, asr #11
    40c4:	000005c2 	andeq	r0, r0, r2, asr #11
    40c8:	000005b0 			; <UNDEFINED> instruction: 0x000005b0
    40cc:	0000059c 	muleq	r0, ip, r5
    40d0:	00000592 	muleq	r0, r2, r5
    40d4:	00000580 	andeq	r0, r0, r0, lsl #11
    40d8:	0000056e 	andeq	r0, r0, lr, ror #10
    40dc:	00000564 	andeq	r0, r0, r4, ror #10
    40e0:	00000556 	andeq	r0, r0, r6, asr r5
    40e4:	00000544 	andeq	r0, r0, r4, asr #10
    40e8:	0000053a 	andeq	r0, r0, sl, lsr r5
    40ec:	0000052c 	andeq	r0, r0, ip, lsr #10
    40f0:	0000051a 	andeq	r0, r0, sl, lsl r5
    40f4:	00000512 	andeq	r0, r0, r2, lsl r5
    40f8:	00000504 	andeq	r0, r0, r4, lsl #10
    40fc:	000004f2 	strdeq	r0, [r0], -r2
    4100:	000004e8 	andeq	r0, r0, r8, ror #9
    4104:	000004da 	ldrdeq	r0, [r0], -sl
    4108:	000004c8 	andeq	r0, r0, r8, asr #9
    410c:	000004c0 	andeq	r0, r0, r0, asr #9
    4110:	000004b2 			; <UNDEFINED> instruction: 0x000004b2
    4114:	0000049e 	muleq	r0, lr, r4
    4118:	0000048e 	andeq	r0, r0, lr, lsl #9
    411c:	00000480 	andeq	r0, r0, r0, lsl #9
    4120:	0000046e 	andeq	r0, r0, lr, ror #8
    4124:	00000466 	andeq	r0, r0, r6, ror #8
    4128:	00000458 	andeq	r0, r0, r8, asr r4
    412c:	00000446 	andeq	r0, r0, r6, asr #8
    4130:	0000043e 	andeq	r0, r0, lr, lsr r4
    4134:	00000430 	andeq	r0, r0, r0, lsr r4
    4138:	00000414 	andeq	r0, r0, r4, lsl r4
    413c:	0000040a 	andeq	r0, r0, sl, lsl #8
    4140:	000003fc 	strdeq	r0, [r0], -ip
    4144:	000003ec 	andeq	r0, r0, ip, ror #7
    4148:	000003e6 	andeq	r0, r0, r6, ror #7
    414c:	000003da 	ldrdeq	r0, [r0], -sl
    4150:	000003c6 	andeq	r0, r0, r6, asr #7
    4154:	000003c8 	andeq	r0, r0, r8, asr #7
    4158:	000003ca 	andeq	r0, r0, sl, asr #7
    415c:	000003c2 	andeq	r0, r0, r2, asr #7
    4160:	000003bc 			; <UNDEFINED> instruction: 0x000003bc
    4164:	000003b0 			; <UNDEFINED> instruction: 0x000003b0
    4168:	000003a0 	andeq	r0, r0, r0, lsr #7
    416c:	0000039a 	muleq	r0, sl, r3
    4170:	0000038e 	andeq	r0, r0, lr, lsl #7
    4174:	0000037c 	andeq	r0, r0, ip, ror r3
    4178:	0000036e 	andeq	r0, r0, lr, ror #6
    417c:	00000362 	andeq	r0, r0, r2, ror #6
    4180:	8020f8dd 	ldrdhi	pc, [r0], -sp	; <UNPREDICTABLE>
    4184:	f8df2001 			; <UNDEFINED> instruction: 0xf8df2001
    4188:	46421f94 			; <UNDEFINED> instruction: 0x46421f94
    418c:	f7ff4479 			; <UNDEFINED> instruction: 0xf7ff4479
    4190:	f8dffffe 			; <UNDEFINED> instruction: 0xf8dffffe
    4194:	20011f8c 	andcs	r1, r1, ip, lsl #31
    4198:	f7ff4479 			; <UNDEFINED> instruction: 0xf7ff4479
    419c:	f8dffffe 			; <UNDEFINED> instruction: 0xf8dffffe
    41a0:	ee1a1f84 	cdp	15, 1, cr1, cr10, cr4, {4}
    41a4:	ee1d3a10 	vmov	r3, s26
    41a8:	44792a10 	ldrbtmi	r2, [r9], #-2576	; 0xfffff5f0
    41ac:	f7ff2001 			; <UNDEFINED> instruction: 0xf7ff2001
    41b0:	2001fffe 	strdcs	pc, [r1], -lr
    41b4:	fffef7ff 			; <UNDEFINED> instruction: 0xfffef7ff
    41b8:	8020f8dd 	ldrdhi	pc, [r0], -sp	; <UNPREDICTABLE>
    41bc:	f8df2001 			; <UNDEFINED> instruction: 0xf8df2001
    41c0:	46421f68 	strbmi	r1, [r2], -r8, ror #30
    41c4:	f7ff4479 			; <UNDEFINED> instruction: 0xf7ff4479
    41c8:	f8dffffe 			; <UNDEFINED> instruction: 0xf8dffffe
    41cc:	20011f60 	andcs	r1, r1, r0, ror #30
    41d0:	f7ff4479 			; <UNDEFINED> instruction: 0xf7ff4479
    41d4:	f8dffffe 			; <UNDEFINED> instruction: 0xf8dffffe
    41d8:	ee1a1f58 	mrc	15, 0, r1, cr10, cr8, {2}
    41dc:	ee1d3a10 	vmov	r3, s26
    41e0:	44792a10 	ldrbtmi	r2, [r9], #-2576	; 0xfffff5f0
    41e4:	f7ff2001 			; <UNDEFINED> instruction: 0xf7ff2001
    41e8:	2001fffe 	strdcs	pc, [r1], -lr
    41ec:	fffef7ff 			; <UNDEFINED> instruction: 0xfffef7ff
    41f0:	8020f8dd 	ldrdhi	pc, [r0], -sp	; <UNPREDICTABLE>
    41f4:	f8df2001 			; <UNDEFINED> instruction: 0xf8df2001
    41f8:	46421f3c 			; <UNDEFINED> instruction: 0x46421f3c
    41fc:	f7ff4479 			; <UNDEFINED> instruction: 0xf7ff4479
    4200:	f8dffffe 			; <UNDEFINED> instruction: 0xf8dffffe
    4204:	20011f34 	andcs	r1, r1, r4, lsr pc
    4208:	f7ff4479 			; <UNDEFINED> instruction: 0xf7ff4479
    420c:	f8dffffe 			; <UNDEFINED> instruction: 0xf8dffffe
    4210:	ee1a1f2c 	cdp	15, 1, cr1, cr10, cr12, {1}
    4214:	ee1d3a10 	vmov	r3, s26
    4218:	44792a10 	ldrbtmi	r2, [r9], #-2576	; 0xfffff5f0
    421c:	f7ff2001 			; <UNDEFINED> instruction: 0xf7ff2001
    4220:	2001fffe 	strdcs	pc, [r1], -lr
    4224:	fffef7ff 			; <UNDEFINED> instruction: 0xfffef7ff
    4228:	0a90ee18 	beq	0xfe43fa90
    422c:	f7fb4649 			; <UNDEFINED> instruction: 0xf7fb4649
    4230:	f8dffffb 			; <UNDEFINED> instruction: 0xf8dffffb
    4234:	46221f0c 	strtmi	r1, [r2], -ip, lsl #30
    4238:	44792001 	ldrbtmi	r2, [r9], #-1
    423c:	fffef7ff 			; <UNDEFINED> instruction: 0xfffef7ff
    4240:	1f00f8df 	svcne	0x0000f8df
    4244:	44792001 	ldrbtmi	r2, [r9], #-1
    4248:	fffef7ff 			; <UNDEFINED> instruction: 0xfffef7ff
    424c:	1ef8f8df 	mrcne	8, 7, APSR_nzcv, cr8, cr15, {6}
    4250:	3a10ee1a 	bcc	0x43fac0
    4254:	2a10ee1d 	bcs	0x43fad0
    4258:	20014479 	andcs	r4, r1, r9, ror r4
    425c:	fffef7ff 			; <UNDEFINED> instruction: 0xfffef7ff
    4260:	f7ff2001 			; <UNDEFINED> instruction: 0xf7ff2001
    4264:	f8dffffe 			; <UNDEFINED> instruction: 0xf8dffffe
    4268:	462a1ee4 	strtmi	r1, [sl], -r4, ror #29
    426c:	44794658 	ldrbtmi	r4, [r9], #-1624	; 0xfffff9a8
    4270:	fffef7ff 			; <UNDEFINED> instruction: 0xfffef7ff
    4274:	1ed8f8df 	mrcne	8, 6, APSR_nzcv, cr8, cr15, {6}
    4278:	44794658 	ldrbtmi	r4, [r9], #-1624	; 0xfffff9a8
    427c:	fffef7ff 			; <UNDEFINED> instruction: 0xfffef7ff
    4280:	1ed0f8df 	mrcne	8, 6, APSR_nzcv, cr0, cr15, {6}
    4284:	3a10ee1a 	bcc	0x43faf4
    4288:	2a10ee1d 	bcs	0x43fb04
    428c:	46584479 			; <UNDEFINED> instruction: 0x46584479
    4290:	fffef7ff 			; <UNDEFINED> instruction: 0xfffef7ff
    4294:	f7ff4658 			; <UNDEFINED> instruction: 0xf7ff4658
    4298:	f8dffffe 			; <UNDEFINED> instruction: 0xf8dffffe
    429c:	462a1ebc 			; <UNDEFINED> instruction: 0x462a1ebc
    42a0:	46584604 	ldrbmi	r4, [r8], -r4, lsl #12
    42a4:	f7ff4479 			; <UNDEFINED> instruction: 0xf7ff4479
    42a8:	f8dffffe 			; <UNDEFINED> instruction: 0xf8dffffe
    42ac:	46331eb0 			; <UNDEFINED> instruction: 0x46331eb0
    42b0:	44794622 	ldrbtmi	r4, [r9], #-1570	; 0xfffff9de
    42b4:	f7ff4658 			; <UNDEFINED> instruction: 0xf7ff4658
    42b8:	f8dffffe 			; <UNDEFINED> instruction: 0xf8dffffe
    42bc:	ee1a1ea4 	cdp	14, 1, cr1, cr10, cr4, {5}
    42c0:	ee1d3a10 	vmov	r3, s26
    42c4:	44792a10 	ldrbtmi	r2, [r9], #-2576	; 0xfffff5f0
    42c8:	f7ff4658 			; <UNDEFINED> instruction: 0xf7ff4658
    42cc:	4658fffe 	usub8mi	pc, r8, lr	; <UNPREDICTABLE>
    42d0:	fffef7ff 			; <UNDEFINED> instruction: 0xfffef7ff
    42d4:	1e8cf8df 	mcrne	8, 4, pc, cr12, cr15, {6}	; <UNPREDICTABLE>
    42d8:	2001462a 	andcs	r4, r1, sl, lsr #12
    42dc:	f7ff4479 			; <UNDEFINED> instruction: 0xf7ff4479
    42e0:	f8dffffe 			; <UNDEFINED> instruction: 0xf8dffffe
    42e4:	20011e84 	andcs	r1, r1, r4, lsl #29
    42e8:	f7ff4479 			; <UNDEFINED> instruction: 0xf7ff4479
    42ec:	f8dffffe 			; <UNDEFINED> instruction: 0xf8dffffe
    42f0:	ee1a1e7c 	mrc	14, 0, r1, cr10, cr12, {3}
    42f4:	ee1d3a10 	vmov	r3, s26
    42f8:	44792a10 	ldrbtmi	r2, [r9], #-2576	; 0xfffff5f0
    42fc:	f7ff2001 			; <UNDEFINED> instruction: 0xf7ff2001
    4300:	2001fffe 	strdcs	pc, [r1], -lr
    4304:	fffef7ff 			; <UNDEFINED> instruction: 0xfffef7ff
    4308:	1e64f8df 	mcrne	8, 3, pc, cr4, cr15, {6}	; <UNPREDICTABLE>
    430c:	2001462a 	andcs	r4, r1, sl, lsr #12
    4310:	f7ff4479 			; <UNDEFINED> instruction: 0xf7ff4479
    4314:	f8dffffe 			; <UNDEFINED> instruction: 0xf8dffffe
    4318:	46331e5c 			; <UNDEFINED> instruction: 0x46331e5c
    431c:	4479465a 	ldrbtmi	r4, [r9], #-1626	; 0xfffff9a6
    4320:	f7ff2001 			; <UNDEFINED> instruction: 0xf7ff2001
    4324:	f8dffffe 			; <UNDEFINED> instruction: 0xf8dffffe
    4328:	ee1a1e50 	mrc	14, 0, r1, cr10, cr0, {2}
    432c:	ee1d3a10 	vmov	r3, s26
    4330:	44792a10 	ldrbtmi	r2, [r9], #-2576	; 0xfffff5f0
    4334:	f7ff2001 			; <UNDEFINED> instruction: 0xf7ff2001
    4338:	2001fffe 	strdcs	pc, [r1], -lr
    433c:	fffef7ff 			; <UNDEFINED> instruction: 0xfffef7ff
    4340:	1e38f8df 	mrcne	8, 1, APSR_nzcv, cr8, cr15, {6}
    4344:	2001462a 	andcs	r4, r1, sl, lsr #12
    4348:	f7ff4479 			; <UNDEFINED> instruction: 0xf7ff4479
    434c:	f8dffffe 			; <UNDEFINED> instruction: 0xf8dffffe
    4350:	20011e30 	andcs	r1, r1, r0, lsr lr
    4354:	f7ff4479 			; <UNDEFINED> instruction: 0xf7ff4479
    4358:	f8dffffe 			; <UNDEFINED> instruction: 0xf8dffffe
    435c:	ee1a1e28 	cdp	14, 1, cr1, cr10, cr8, {1}
    4360:	ee1d3a10 	vmov	r3, s26
    4364:	44792a10 	ldrbtmi	r2, [r9], #-2576	; 0xfffff5f0
    4368:	f7ff2001 			; <UNDEFINED> instruction: 0xf7ff2001
    436c:	2001fffe 	strdcs	pc, [r1], -lr
    4370:	fffef7ff 			; <UNDEFINED> instruction: 0xfffef7ff
    4374:	1e10f8df 	mrcne	8, 0, APSR_nzcv, cr0, cr15, {6}
    4378:	46404632 			; <UNDEFINED> instruction: 0x46404632
    437c:	f7ff4479 			; <UNDEFINED> instruction: 0xf7ff4479
    4380:	f8dffffe 			; <UNDEFINED> instruction: 0xf8dffffe
    4384:	46401e08 	strbmi	r1, [r0], -r8, lsl #28
    4388:	f7ff4479 			; <UNDEFINED> instruction: 0xf7ff4479
    438c:	f8dffffe 			; <UNDEFINED> instruction: 0xf8dffffe
    4390:	ee1a1e00 	cdp	14, 1, cr1, cr10, cr0, {0}
    4394:	ee1d3a10 	vmov	r3, s26
    4398:	44792a10 	ldrbtmi	r2, [r9], #-2576	; 0xfffff5f0
    439c:	f7ff4640 			; <UNDEFINED> instruction: 0xf7ff4640
    43a0:	4640fffe 			; <UNDEFINED> instruction: 0x4640fffe
    43a4:	fffef7ff 			; <UNDEFINED> instruction: 0xfffef7ff
    43a8:	1de8f8df 	stclne	8, cr15, [r8, #892]!	; 0x37c
    43ac:	2001465a 	andcs	r4, r1, sl, asr r6
    43b0:	f7ff4479 			; <UNDEFINED> instruction: 0xf7ff4479
    43b4:	f8dffffe 			; <UNDEFINED> instruction: 0xf8dffffe
    43b8:	463b1de0 	ldrtmi	r1, [fp], -r0, ror #27
    43bc:	44794632 	ldrbtmi	r4, [r9], #-1586	; 0xfffff9ce
    43c0:	f7ff2001 			; <UNDEFINED> instruction: 0xf7ff2001
    43c4:	f8dffffe 			; <UNDEFINED> instruction: 0xf8dffffe
    43c8:	ee1a1dd4 	mrc	13, 0, r1, cr10, cr4, {6}
    43cc:	ee1d3a10 	vmov	r3, s26
    43d0:	44792a10 	ldrbtmi	r2, [r9], #-2576	; 0xfffff5f0
    43d4:	f7ff2001 			; <UNDEFINED> instruction: 0xf7ff2001
    43d8:	2001fffe 	strdcs	pc, [r1], -lr
    43dc:	fffef7ff 			; <UNDEFINED> instruction: 0xfffef7ff
    43e0:	1dbcf8df 	ldcne	8, cr15, [ip, #892]!	; 0x37c
    43e4:	2001465a 	andcs	r4, r1, sl, asr r6
    43e8:	f7ff4479 			; <UNDEFINED> instruction: 0xf7ff4479
    43ec:	f8dffffe 			; <UNDEFINED> instruction: 0xf8dffffe
    43f0:	46321db4 			; <UNDEFINED> instruction: 0x46321db4
    43f4:	44792001 	ldrbtmi	r2, [r9], #-1
    43f8:	fffef7ff 			; <UNDEFINED> instruction: 0xfffef7ff
    43fc:	1da8f8df 	stcne	8, cr15, [r8, #892]!	; 0x37c
    4400:	3a10ee1a 	bcc	0x43fc70
    4404:	2a10ee1d 	bcs	0x43fc80
    4408:	20014479 	andcs	r4, r1, r9, ror r4
    440c:	fffef7ff 			; <UNDEFINED> instruction: 0xfffef7ff
    4410:	f7ff2001 			; <UNDEFINED> instruction: 0xf7ff2001
    4414:	f8dffffe 			; <UNDEFINED> instruction: 0xf8dffffe
    4418:	20011d94 	mulcs	r1, r4, sp
    441c:	44799a11 	ldrbtmi	r9, [r9], #-2577	; 0xfffff5ef
    4420:	fffef7ff 			; <UNDEFINED> instruction: 0xfffef7ff
    4424:	1d88f8df 	stcne	8, cr15, [r8, #892]	; 0x37c
    4428:	44792001 	ldrbtmi	r2, [r9], #-1
    442c:	fffef7ff 			; <UNDEFINED> instruction: 0xfffef7ff
    4430:	1d80f8df 	stcne	8, cr15, [r0, #892]	; 0x37c
    4434:	3a10ee1a 	bcc	0x43fca4
    4438:	2a10ee1d 	bcs	0x43fcb4
    443c:	20014479 	andcs	r4, r1, r9, ror r4
    4440:	fffef7ff 			; <UNDEFINED> instruction: 0xfffef7ff
    4444:	f7ff2001 			; <UNDEFINED> instruction: 0xf7ff2001
    4448:	f8dffffe 			; <UNDEFINED> instruction: 0xf8dffffe
    444c:	20011d6c 	andcs	r1, r1, ip, ror #26
    4450:	44799a11 	ldrbtmi	r9, [r9], #-2577	; 0xfffff5ef
    4454:	fffef7ff 			; <UNDEFINED> instruction: 0xfffef7ff
    4458:	1d60f8df 	stclne	8, cr15, [r0, #-892]!	; 0xfffffc84
    445c:	44792001 	ldrbtmi	r2, [r9], #-1
    4460:	fffef7ff 			; <UNDEFINED> instruction: 0xfffef7ff
    4464:	1d58f8df 	ldclne	8, cr15, [r8, #-892]	; 0xfffffc84
    4468:	3a10ee1a 	bcc	0x43fcd8
    446c:	2a10ee1d 	bcs	0x43fce8
    4470:	20014479 	andcs	r4, r1, r9, ror r4
    4474:	fffef7ff 			; <UNDEFINED> instruction: 0xfffef7ff
    4478:	f7ff2001 			; <UNDEFINED> instruction: 0xf7ff2001
    447c:	f8dffffe 			; <UNDEFINED> instruction: 0xf8dffffe
    4480:	465a1d44 	ldrbmi	r1, [sl], -r4, asr #26
    4484:	44792001 	ldrbtmi	r2, [r9], #-1
    4488:	fffef7ff 			; <UNDEFINED> instruction: 0xfffef7ff
    448c:	1d38f8df 	ldcne	8, cr15, [r8, #-892]!	; 0xfffffc84
    4490:	44792001 	ldrbtmi	r2, [r9], #-1
    4494:	fffef7ff 			; <UNDEFINED> instruction: 0xfffef7ff
    4498:	1d30f8df 	ldcne	8, cr15, [r0, #-892]!	; 0xfffffc84
    449c:	3a10ee1a 	bcc	0x43fd0c
    44a0:	2a10ee1d 	bcs	0x43fd1c
    44a4:	20014479 	andcs	r4, r1, r9, ror r4
    44a8:	fffef7ff 			; <UNDEFINED> instruction: 0xfffef7ff
    44ac:	f7ff2001 			; <UNDEFINED> instruction: 0xf7ff2001
    44b0:	f8dffffe 			; <UNDEFINED> instruction: 0xf8dffffe
    44b4:	22021d1c 	andcs	r1, r2, #28, 26	; 0x700
    44b8:	44792001 	ldrbtmi	r2, [r9], #-1
    44bc:	fffef7ff 			; <UNDEFINED> instruction: 0xfffef7ff
    44c0:	1d10f8df 	ldcne	8, cr15, [r0, #-892]	; 0xfffffc84
    44c4:	44792001 	ldrbtmi	r2, [r9], #-1
    44c8:	fffef7ff 			; <UNDEFINED> instruction: 0xfffef7ff
    44cc:	1d08f8df 	stcne	8, cr15, [r8, #-892]	; 0xfffffc84
    44d0:	3a10ee1a 	bcc	0x43fd40
    44d4:	2a10ee1d 	bcs	0x43fd50
    44d8:	20014479 	andcs	r4, r1, r9, ror r4
    44dc:	fffef7ff 			; <UNDEFINED> instruction: 0xfffef7ff
    44e0:	f7ff2001 			; <UNDEFINED> instruction: 0xf7ff2001
    44e4:	f8dffffe 			; <UNDEFINED> instruction: 0xf8dffffe
    44e8:	22021cf4 	andcs	r1, r2, #244, 24	; 0xf400
    44ec:	44792001 	ldrbtmi	r2, [r9], #-1
    44f0:	fffef7ff 			; <UNDEFINED> instruction: 0xfffef7ff
    44f4:	1ce8f8df 	stclne	8, cr15, [r8], #892	; 0x37c
    44f8:	44792001 	ldrbtmi	r2, [r9], #-1
    44fc:	fffef7ff 			; <UNDEFINED> instruction: 0xfffef7ff
    4500:	1ce0f8df 	stclne	8, cr15, [r0], #892	; 0x37c
    4504:	3a10ee1a 	bcc	0x43fd74
    4508:	2a10ee1d 	bcs	0x43fd84
    450c:	20014479 	andcs	r4, r1, r9, ror r4
    4510:	fffef7ff 			; <UNDEFINED> instruction: 0xfffef7ff
    4514:	f7ff2001 			; <UNDEFINED> instruction: 0xf7ff2001
    4518:	f8dffffe 			; <UNDEFINED> instruction: 0xf8dffffe
    451c:	46321ccc 	ldrtmi	r1, [r2], -ip, asr #25
    4520:	44792001 	ldrbtmi	r2, [r9], #-1
    4524:	fffef7ff 			; <UNDEFINED> instruction: 0xfffef7ff
    4528:	1cc0f8df 	stclne	8, cr15, [r0], {223}	; 0xdf
    452c:	44792001 	ldrbtmi	r2, [r9], #-1
    4530:	fffef7ff 			; <UNDEFINED> instruction: 0xfffef7ff
    4534:	1cb8f8df 	ldcne	8, cr15, [r8], #892	; 0x37c
    4538:	3a10ee1a 	bcc	0x43fda8
    453c:	2a10ee1d 	bcs	0x43fdb8
    4540:	20014479 	andcs	r4, r1, r9, ror r4
    4544:	fffef7ff 			; <UNDEFINED> instruction: 0xfffef7ff
    4548:	f7ff2001 			; <UNDEFINED> instruction: 0xf7ff2001
    454c:	f8dffffe 			; <UNDEFINED> instruction: 0xf8dffffe
    4550:	46b01ca4 	ldrtmi	r1, [r0], r4, lsr #25
    4554:	46064642 	strmi	r4, [r6], -r2, asr #12
    4558:	20014479 	andcs	r4, r1, r9, ror r4
    455c:	fffef7ff 			; <UNDEFINED> instruction: 0xfffef7ff
    4560:	1c94f8df 	ldcne	8, cr15, [r4], {223}	; 0xdf
    4564:	4632462b 	ldrtmi	r4, [r2], -fp, lsr #12
    4568:	20014479 	andcs	r4, r1, r9, ror r4
    456c:	fffef7ff 			; <UNDEFINED> instruction: 0xfffef7ff
    4570:	1c88f8df 	stcne	8, cr15, [r8], {223}	; 0xdf
    4574:	3a10ee1a 	bcc	0x43fde4
    4578:	2a10ee1d 	bcs	0x43fdf4
    457c:	20014479 	andcs	r4, r1, r9, ror r4
    4580:	fffef7ff 			; <UNDEFINED> instruction: 0xfffef7ff
    4584:	f7ff2001 			; <UNDEFINED> instruction: 0xf7ff2001
    4588:	f8dffffe 			; <UNDEFINED> instruction: 0xf8dffffe
    458c:	46801c74 	sxtab16mi	r1, r0, r4, ror #24
    4590:	20014632 	andcs	r4, r1, r2, lsr r6
    4594:	f7ff4479 			; <UNDEFINED> instruction: 0xf7ff4479
    4598:	f8dffffe 			; <UNDEFINED> instruction: 0xf8dffffe
    459c:	46431c68 	strbmi	r1, [r3], -r8, ror #24
    45a0:	4479462a 	ldrbtmi	r4, [r9], #-1578	; 0xfffff9d6
    45a4:	f7ff2001 			; <UNDEFINED> instruction: 0xf7ff2001
    45a8:	f8dffffe 			; <UNDEFINED> instruction: 0xf8dffffe
    45ac:	ee1a1c5c 	mrc	12, 0, r1, cr10, cr12, {2}
    45b0:	ee1d3a10 	vmov	r3, s26
    45b4:	44792a10 	ldrbtmi	r2, [r9], #-2576	; 0xfffff5f0
    45b8:	f7ff2001 			; <UNDEFINED> instruction: 0xf7ff2001
    45bc:	2001fffe 	strdcs	pc, [r1], -lr
    45c0:	fffef7ff 			; <UNDEFINED> instruction: 0xfffef7ff
    45c4:	3c44f8df 	mcrrcc	8, 13, pc, r4, cr15	; <UNPREDICTABLE>
    45c8:	9c072227 	sfmls	f2, 4, [r7], {39}	; 0x27
    45cc:	f8df2101 			; <UNDEFINED> instruction: 0xf8df2101
    45d0:	58e30c40 	stmiapl	r3!, {r6, sl, fp}^
    45d4:	681b4478 	ldmdavs	fp, {r3, r4, r5, r6, sl, lr}
    45d8:	fffef7ff 			; <UNDEFINED> instruction: 0xfffef7ff
    45dc:	f7ff2001 			; <UNDEFINED> instruction: 0xf7ff2001
    45e0:	f8dffffe 			; <UNDEFINED> instruction: 0xf8dffffe
    45e4:	f2403c30 	vfma.f32	d19, d0, d16
    45e8:	f8df128f 			; <UNDEFINED> instruction: 0xf8df128f
    45ec:	f8df1c2c 			; <UNDEFINED> instruction: 0xf8df1c2c
    45f0:	447b0c2c 	ldrbtmi	r0, [fp], #-3116	; 0xfffff3d4
    45f4:	44784479 	ldrbtmi	r4, [r8], #-1145	; 0xfffffb87
    45f8:	fffef7ff 			; <UNDEFINED> instruction: 0xfffef7ff
    45fc:	1c20f8df 	stcne	8, cr15, [r0], #-892	; 0xfffffc84
    4600:	2001465a 	andcs	r4, r1, sl, asr r6
    4604:	f7ff4479 			; <UNDEFINED> instruction: 0xf7ff4479
    4608:	f8dffffe 			; <UNDEFINED> instruction: 0xf8dffffe
    460c:	20011c18 	andcs	r1, r1, r8, lsl ip
    4610:	f7ff4479 			; <UNDEFINED> instruction: 0xf7ff4479
    4614:	f8dffffe 			; <UNDEFINED> instruction: 0xf8dffffe
    4618:	ee1a1c10 	mrc	12, 0, r1, cr10, cr0, {0}
    461c:	ee1d3a10 	vmov	r3, s26
    4620:	44792a10 	ldrbtmi	r2, [r9], #-2576	; 0xfffff5f0
    4624:	f7ff2001 			; <UNDEFINED> instruction: 0xf7ff2001
    4628:	2001fffe 	strdcs	pc, [r1], -lr
    462c:	fffef7ff 			; <UNDEFINED> instruction: 0xfffef7ff
    4630:	1bf8f8df 	blne	0xffe429b4
    4634:	46102201 	ldrmi	r2, [r0], -r1, lsl #4
    4638:	f7ff4479 			; <UNDEFINED> instruction: 0xf7ff4479
    463c:	f8dffffe 			; <UNDEFINED> instruction: 0xf8dffffe
    4640:	20011bf0 	strdcs	r1, [r1], -r0
    4644:	f7ff4479 			; <UNDEFINED> instruction: 0xf7ff4479
    4648:	f8dffffe 			; <UNDEFINED> instruction: 0xf8dffffe
    464c:	ee1a1be8 	vnmla.f64	d1, d26, d24
    4650:	ee1d3a10 	vmov	r3, s26
    4654:	44792a10 	ldrbtmi	r2, [r9], #-2576	; 0xfffff5f0
    4658:	f7ff2001 			; <UNDEFINED> instruction: 0xf7ff2001
    465c:	2001fffe 	strdcs	pc, [r1], -lr
    4660:	fffef7ff 			; <UNDEFINED> instruction: 0xfffef7ff
    4664:	1bd0f8df 	blne	0xff4429e8
    4668:	46102201 	ldrmi	r2, [r0], -r1, lsl #4
    466c:	f7ff4479 			; <UNDEFINED> instruction: 0xf7ff4479
    4670:	f8dffffe 			; <UNDEFINED> instruction: 0xf8dffffe
    4674:	20011bc8 	andcs	r1, r1, r8, asr #23
    4678:	f7ff4479 			; <UNDEFINED> instruction: 0xf7ff4479
    467c:	f8dffffe 			; <UNDEFINED> instruction: 0xf8dffffe
    4680:	ee1a1bc0 	vnmla.f64	d1, d26, d0
    4684:	ee1d3a10 	vmov	r3, s26
    4688:	44792a10 	ldrbtmi	r2, [r9], #-2576	; 0xfffff5f0
    468c:	f7ff2001 			; <UNDEFINED> instruction: 0xf7ff2001
    4690:	2001fffe 	strdcs	pc, [r1], -lr
    4694:	fffef7ff 			; <UNDEFINED> instruction: 0xfffef7ff
    4698:	1ba8f8df 	blne	0xfea42a1c
    469c:	46102201 	ldrmi	r2, [r0], -r1, lsl #4
    46a0:	f7ff4479 			; <UNDEFINED> instruction: 0xf7ff4479
    46a4:	f8dffffe 			; <UNDEFINED> instruction: 0xf8dffffe
    46a8:	20011ba0 	andcs	r1, r1, r0, lsr #23
    46ac:	f7ff4479 			; <UNDEFINED> instruction: 0xf7ff4479
    46b0:	f8dffffe 			; <UNDEFINED> instruction: 0xf8dffffe
    46b4:	ee1a1b98 	vmov.32	r1, d26[0]
    46b8:	ee1d3a10 	vmov	r3, s26
    46bc:	44792a10 	ldrbtmi	r2, [r9], #-2576	; 0xfffff5f0
    46c0:	f7ff2001 			; <UNDEFINED> instruction: 0xf7ff2001
    46c4:	2001fffe 	strdcs	pc, [r1], -lr
    46c8:	fffef7ff 			; <UNDEFINED> instruction: 0xfffef7ff
    46cc:	1b80f8df 	blne	0xfe042a50
    46d0:	20014632 	andcs	r4, r1, r2, lsr r6
    46d4:	f7ff4479 			; <UNDEFINED> instruction: 0xf7ff4479
    46d8:	f8dffffe 			; <UNDEFINED> instruction: 0xf8dffffe
    46dc:	20011b78 	andcs	r1, r1, r8, ror fp
    46e0:	f7ff4479 			; <UNDEFINED> instruction: 0xf7ff4479
    46e4:	f8dffffe 			; <UNDEFINED> instruction: 0xf8dffffe
    46e8:	ee1a1b70 	vmov.s16	r1, d10[1]
    46ec:	ee1d3a10 	vmov	r3, s26
    46f0:	44792a10 	ldrbtmi	r2, [r9], #-2576	; 0xfffff5f0
    46f4:	f7ff2001 			; <UNDEFINED> instruction: 0xf7ff2001
    46f8:	2001fffe 	strdcs	pc, [r1], -lr
    46fc:	fffef7ff 			; <UNDEFINED> instruction: 0xfffef7ff
    4700:	1b58f8df 	blne	0x1642a84
    4704:	20014632 	andcs	r4, r1, r2, lsr r6
    4708:	f7ff4479 			; <UNDEFINED> instruction: 0xf7ff4479
    470c:	f8dffffe 			; <UNDEFINED> instruction: 0xf8dffffe
    4710:	20011b50 	andcs	r1, r1, r0, asr fp
    4714:	f7ff4479 			; <UNDEFINED> instruction: 0xf7ff4479
    4718:	f8dffffe 			; <UNDEFINED> instruction: 0xf8dffffe
    471c:	ee1a1b48 	vnmla.f64	d1, d10, d8
    4720:	ee1d3a10 	vmov	r3, s26
    4724:	44792a10 	ldrbtmi	r2, [r9], #-2576	; 0xfffff5f0
    4728:	f7ff2001 			; <UNDEFINED> instruction: 0xf7ff2001
    472c:	2001fffe 	strdcs	pc, [r1], -lr
    4730:	fffef7ff 			; <UNDEFINED> instruction: 0xfffef7ff
    4734:	1b30f8df 	blne	0xc42ab8
    4738:	20014622 	andcs	r4, r1, r2, lsr #12
    473c:	f7ff4479 			; <UNDEFINED> instruction: 0xf7ff4479
    4740:	f8dffffe 			; <UNDEFINED> instruction: 0xf8dffffe
    4744:	20011b28 	andcs	r1, r1, r8, lsr #22
    4748:	f7ff4479 			; <UNDEFINED> instruction: 0xf7ff4479
    474c:	f8dffffe 			; <UNDEFINED> instruction: 0xf8dffffe
    4750:	ee1a1b20 	vnmls.f64	d1, d10, d16
    4754:	ee1d3a10 	vmov	r3, s26
    4758:	44792a10 	ldrbtmi	r2, [r9], #-2576	; 0xfffff5f0
    475c:	f7ff2001 			; <UNDEFINED> instruction: 0xf7ff2001
    4760:	2001fffe 	strdcs	pc, [r1], -lr
    4764:	fffef7ff 			; <UNDEFINED> instruction: 0xfffef7ff
    4768:	1b08f8df 	blne	0x242aec
    476c:	20014622 	andcs	r4, r1, r2, lsr #12
    4770:	f7ff4479 			; <UNDEFINED> instruction: 0xf7ff4479
    4774:	f8dffffe 			; <UNDEFINED> instruction: 0xf8dffffe
    4778:	20011b00 	andcs	r1, r1, r0, lsl #22
    477c:	f7ff4479 			; <UNDEFINED> instruction: 0xf7ff4479
    4780:	f8dffffe 			; <UNDEFINED> instruction: 0xf8dffffe
    4784:	ee1a1af8 			; <UNDEFINED> instruction: 0xee1a1af8
    4788:	ee1d3a10 	vmov	r3, s26
    478c:	44792a10 	ldrbtmi	r2, [r9], #-2576	; 0xfffff5f0
    4790:	f7ff2001 			; <UNDEFINED> instruction: 0xf7ff2001
    4794:	2001fffe 	strdcs	pc, [r1], -lr
    4798:	fffef7ff 			; <UNDEFINED> instruction: 0xfffef7ff
    479c:	1ae0f8df 	bne	0xff842b20
    47a0:	20014622 	andcs	r4, r1, r2, lsr #12
    47a4:	f7ff4479 			; <UNDEFINED> instruction: 0xf7ff4479
    47a8:	f8dffffe 			; <UNDEFINED> instruction: 0xf8dffffe
    47ac:	20011ad8 	ldrdcs	r1, [r1], -r8
    47b0:	f7ff4479 			; <UNDEFINED> instruction: 0xf7ff4479
    47b4:	f8dffffe 			; <UNDEFINED> instruction: 0xf8dffffe
    47b8:	ee1a1ad0 			; <UNDEFINED> instruction: 0xee1a1ad0
    47bc:	ee1d3a10 	vmov	r3, s26
    47c0:	44792a10 	ldrbtmi	r2, [r9], #-2576	; 0xfffff5f0
    47c4:	f7ff2001 			; <UNDEFINED> instruction: 0xf7ff2001
    47c8:	2001fffe 	strdcs	pc, [r1], -lr
    47cc:	fffef7ff 			; <UNDEFINED> instruction: 0xfffef7ff
    47d0:	1ab8f8df 	bne	0xfee42b54
    47d4:	2001465a 	andcs	r4, r1, sl, asr r6
    47d8:	f7ff4479 			; <UNDEFINED> instruction: 0xf7ff4479
    47dc:	f8dffffe 			; <UNDEFINED> instruction: 0xf8dffffe
    47e0:	20011ab0 			; <UNDEFINED> instruction: 0x20011ab0
    47e4:	f7ff4479 			; <UNDEFINED> instruction: 0xf7ff4479
    47e8:	f8dffffe 			; <UNDEFINED> instruction: 0xf8dffffe
    47ec:	ee1a1aa8 	vnmls.f32	s2, s21, s17
    47f0:	ee1d3a10 	vmov	r3, s26
    47f4:	44792a10 	ldrbtmi	r2, [r9], #-2576	; 0xfffff5f0
    47f8:	f7ff2001 			; <UNDEFINED> instruction: 0xf7ff2001
    47fc:	2001fffe 	strdcs	pc, [r1], -lr
    4800:	fffef7ff 			; <UNDEFINED> instruction: 0xfffef7ff
    4804:	1a90f8df 	bne	0xfe442b88
    4808:	2001465a 	andcs	r4, r1, sl, asr r6
    480c:	f7ff4479 			; <UNDEFINED> instruction: 0xf7ff4479
    4810:	f8dffffe 			; <UNDEFINED> instruction: 0xf8dffffe
    4814:	20011a88 	andcs	r1, r1, r8, lsl #21
    4818:	f7ff4479 			; <UNDEFINED> instruction: 0xf7ff4479
    481c:	f8dffffe 			; <UNDEFINED> instruction: 0xf8dffffe
    4820:	ee1a1a80 	vnmls.f32	s2, s21, s0
    4824:	ee1d3a10 	vmov	r3, s26
    4828:	44792a10 	ldrbtmi	r2, [r9], #-2576	; 0xfffff5f0
    482c:	f7ff2001 			; <UNDEFINED> instruction: 0xf7ff2001
    4830:	2001fffe 	strdcs	pc, [r1], -lr
    4834:	fffef7ff 			; <UNDEFINED> instruction: 0xfffef7ff
    4838:	1a68f8df 	bne	0x1a42bbc
    483c:	2001465a 	andcs	r4, r1, sl, asr r6
    4840:	f7ff4479 			; <UNDEFINED> instruction: 0xf7ff4479
    4844:	f8dffffe 			; <UNDEFINED> instruction: 0xf8dffffe
    4848:	20011a60 	andcs	r1, r1, r0, ror #20
    484c:	f7ff4479 			; <UNDEFINED> instruction: 0xf7ff4479
    4850:	f8dffffe 			; <UNDEFINED> instruction: 0xf8dffffe
    4854:	ee1a1a58 			; <UNDEFINED> instruction: 0xee1a1a58
    4858:	ee1d3a10 	vmov	r3, s26
    485c:	44792a10 	ldrbtmi	r2, [r9], #-2576	; 0xfffff5f0
    4860:	f7ff2001 			; <UNDEFINED> instruction: 0xf7ff2001
    4864:	2001fffe 	strdcs	pc, [r1], -lr
    4868:	fffef7ff 			; <UNDEFINED> instruction: 0xfffef7ff
    486c:	1a40f8df 	bne	0x1042bf0
    4870:	2001462a 	andcs	r4, r1, sl, lsr #12
    4874:	f7ff4479 			; <UNDEFINED> instruction: 0xf7ff4479
    4878:	f8dffffe 			; <UNDEFINED> instruction: 0xf8dffffe
    487c:	20011a38 	andcs	r1, r1, r8, lsr sl
    4880:	f7ff4479 			; <UNDEFINED> instruction: 0xf7ff4479
    4884:	f8dffffe 			; <UNDEFINED> instruction: 0xf8dffffe
    4888:	ee1a1a30 			; <UNDEFINED> instruction: 0xee1a1a30
    488c:	ee1d3a10 	vmov	r3, s26
    4890:	44792a10 	ldrbtmi	r2, [r9], #-2576	; 0xfffff5f0
    4894:	f7ff2001 			; <UNDEFINED> instruction: 0xf7ff2001
    4898:	2001fffe 	strdcs	pc, [r1], -lr
    489c:	fffef7ff 			; <UNDEFINED> instruction: 0xfffef7ff
    48a0:	1a18f8df 	bne	0x642c24
    48a4:	2001462a 	andcs	r4, r1, sl, lsr #12
    48a8:	f7ff4479 			; <UNDEFINED> instruction: 0xf7ff4479
    48ac:	f8dffffe 			; <UNDEFINED> instruction: 0xf8dffffe
    48b0:	20011a10 	andcs	r1, r1, r0, lsl sl
    48b4:	f7ff4479 			; <UNDEFINED> instruction: 0xf7ff4479
    48b8:	f8dffffe 			; <UNDEFINED> instruction: 0xf8dffffe
    48bc:	ee1a1a08 	vnmls.f32	s2, s20, s16
    48c0:	ee1d3a10 	vmov	r3, s26
    48c4:	44792a10 	ldrbtmi	r2, [r9], #-2576	; 0xfffff5f0
    48c8:	f7ff2001 			; <UNDEFINED> instruction: 0xf7ff2001
    48cc:	2001fffe 	strdcs	pc, [r1], -lr
    48d0:	fffef7ff 			; <UNDEFINED> instruction: 0xfffef7ff
    48d4:	19f0f8df 	ldmibne	r0!, {r0, r1, r2, r3, r4, r6, r7, fp, ip, sp, lr, pc}^
    48d8:	2001462a 	andcs	r4, r1, sl, lsr #12
    48dc:	f7ff4479 			; <UNDEFINED> instruction: 0xf7ff4479
    48e0:	f8dffffe 			; <UNDEFINED> instruction: 0xf8dffffe
    48e4:	200119e8 	andcs	r1, r1, r8, ror #19
    48e8:	f7ff4479 			; <UNDEFINED> instruction: 0xf7ff4479
    48ec:	f8dffffe 			; <UNDEFINED> instruction: 0xf8dffffe
    48f0:	ee1a19e0 	vnmla.f16	s2, s21, s1
    48f4:	ee1d3a10 	vmov	r3, s26
    48f8:	44792a10 	ldrbtmi	r2, [r9], #-2576	; 0xfffff5f0
    48fc:	f7ff2001 			; <UNDEFINED> instruction: 0xf7ff2001
    4900:	2001fffe 	strdcs	pc, [r1], -lr
    4904:	fffef7ff 			; <UNDEFINED> instruction: 0xfffef7ff
    4908:	19c8f8df 	stmibne	r8, {r0, r1, r2, r3, r4, r6, r7, fp, ip, sp, lr, pc}^
    490c:	2001462a 	andcs	r4, r1, sl, lsr #12
    4910:	f7ff4479 			; <UNDEFINED> instruction: 0xf7ff4479
    4914:	f8dffffe 			; <UNDEFINED> instruction: 0xf8dffffe
    4918:	200119c0 	andcs	r1, r1, r0, asr #19
    491c:	f7ff4479 			; <UNDEFINED> instruction: 0xf7ff4479
    4920:	f8dffffe 			; <UNDEFINED> instruction: 0xf8dffffe
    4924:	ee1a19b8 			; <UNDEFINED> instruction: 0xee1a19b8
    4928:	ee1d3a10 	vmov	r3, s26
    492c:	44792a10 	ldrbtmi	r2, [r9], #-2576	; 0xfffff5f0
    4930:	f7ff2001 			; <UNDEFINED> instruction: 0xf7ff2001
    4934:	2001fffe 	strdcs	pc, [r1], -lr
    4938:	fffef7ff 			; <UNDEFINED> instruction: 0xfffef7ff
    493c:	19a0f8df 	stmibne	r0!, {r0, r1, r2, r3, r4, r6, r7, fp, ip, sp, lr, pc}
    4940:	20014632 	andcs	r4, r1, r2, lsr r6
    4944:	f7ff4479 			; <UNDEFINED> instruction: 0xf7ff4479
    4948:	f8dffffe 			; <UNDEFINED> instruction: 0xf8dffffe
    494c:	20011998 	mulcs	r1, r8, r9
    4950:	f7ff4479 			; <UNDEFINED> instruction: 0xf7ff4479
    4954:	f8dffffe 			; <UNDEFINED> instruction: 0xf8dffffe
    4958:	ee1a1990 	vmov.f16	r1, s21
    495c:	ee1d3a10 	vmov	r3, s26
    4960:	44792a10 	ldrbtmi	r2, [r9], #-2576	; 0xfffff5f0
    4964:	f7ff2001 			; <UNDEFINED> instruction: 0xf7ff2001
    4968:	2001fffe 	strdcs	pc, [r1], -lr
    496c:	fffef7ff 			; <UNDEFINED> instruction: 0xfffef7ff
    4970:	1978f8df 	ldmdbne	r8!, {r0, r1, r2, r3, r4, r6, r7, fp, ip, sp, lr, pc}^
    4974:	20014622 	andcs	r4, r1, r2, lsr #12
    4978:	f7ff4479 			; <UNDEFINED> instruction: 0xf7ff4479
    497c:	f8dffffe 			; <UNDEFINED> instruction: 0xf8dffffe
    4980:	20011970 	andcs	r1, r1, r0, ror r9
    4984:	f7ff4479 			; <UNDEFINED> instruction: 0xf7ff4479
    4988:	f8dffffe 			; <UNDEFINED> instruction: 0xf8dffffe
    498c:	ee1a1968 	vnmla.f16	s2, s20, s17
    4990:	ee1d3a10 	vmov	r3, s26
    4994:	44792a10 	ldrbtmi	r2, [r9], #-2576	; 0xfffff5f0
    4998:	f7ff2001 			; <UNDEFINED> instruction: 0xf7ff2001
    499c:	2001fffe 	strdcs	pc, [r1], -lr
    49a0:	fffef7ff 			; <UNDEFINED> instruction: 0xfffef7ff
    49a4:	1950f8df 	ldmdbne	r0, {r0, r1, r2, r3, r4, r6, r7, fp, ip, sp, lr, pc}^
    49a8:	20014622 	andcs	r4, r1, r2, lsr #12
    49ac:	f7ff4479 			; <UNDEFINED> instruction: 0xf7ff4479
    49b0:	f8dffffe 			; <UNDEFINED> instruction: 0xf8dffffe
    49b4:	20011948 	andcs	r1, r1, r8, asr #18
    49b8:	f7ff4479 			; <UNDEFINED> instruction: 0xf7ff4479
    49bc:	f8dffffe 			; <UNDEFINED> instruction: 0xf8dffffe
    49c0:	ee1a1940 	vnmla.f16	s2, s20, s0
    49c4:	ee1d3a10 	vmov	r3, s26
    49c8:	44792a10 	ldrbtmi	r2, [r9], #-2576	; 0xfffff5f0
    49cc:	f7ff2001 			; <UNDEFINED> instruction: 0xf7ff2001
    49d0:	2001fffe 	strdcs	pc, [r1], -lr
    49d4:	fffef7ff 			; <UNDEFINED> instruction: 0xfffef7ff
    49d8:	1928f8df 	stmdbne	r8!, {r0, r1, r2, r3, r4, r6, r7, fp, ip, sp, lr, pc}
    49dc:	20014622 	andcs	r4, r1, r2, lsr #12
    49e0:	f7ff4479 			; <UNDEFINED> instruction: 0xf7ff4479
    49e4:	f8dffffe 			; <UNDEFINED> instruction: 0xf8dffffe
    49e8:	20011920 	andcs	r1, r1, r0, lsr #18
    49ec:	f7ff4479 			; <UNDEFINED> instruction: 0xf7ff4479
    49f0:	f8dffffe 			; <UNDEFINED> instruction: 0xf8dffffe
    49f4:	ee1a1918 			; <UNDEFINED> instruction: 0xee1a1918
    49f8:	ee1d3a10 	vmov	r3, s26
    49fc:	44792a10 	ldrbtmi	r2, [r9], #-2576	; 0xfffff5f0
    4a00:	f7ff2001 			; <UNDEFINED> instruction: 0xf7ff2001
    4a04:	2001fffe 	strdcs	pc, [r1], -lr
    4a08:	fffef7ff 			; <UNDEFINED> instruction: 0xfffef7ff
    4a0c:	1900f8df 	stmdbne	r0, {r0, r1, r2, r3, r4, r6, r7, fp, ip, sp, lr, pc}
    4a10:	20014622 	andcs	r4, r1, r2, lsr #12
    4a14:	f7ff4479 			; <UNDEFINED> instruction: 0xf7ff4479
    4a18:	f8dffffe 			; <UNDEFINED> instruction: 0xf8dffffe
    4a1c:	200118f8 	strdcs	r1, [r1], -r8
    4a20:	f7ff4479 			; <UNDEFINED> instruction: 0xf7ff4479
    4a24:	f8dffffe 			; <UNDEFINED> instruction: 0xf8dffffe
    4a28:	ee1a18f0 	mrc	8, 0, r1, cr10, cr0, {7}
    4a2c:	ee1d3a10 	vmov	r3, s26
    4a30:	44792a10 	ldrbtmi	r2, [r9], #-2576	; 0xfffff5f0
    4a34:	f7ff2001 			; <UNDEFINED> instruction: 0xf7ff2001
    4a38:	2001fffe 	strdcs	pc, [r1], -lr
    4a3c:	fffef7ff 			; <UNDEFINED> instruction: 0xfffef7ff
    4a40:	18d8f8df 	ldmne	r8, {r0, r1, r2, r3, r4, r6, r7, fp, ip, sp, lr, pc}^
    4a44:	20014622 	andcs	r4, r1, r2, lsr #12
    4a48:	f7ff4479 			; <UNDEFINED> instruction: 0xf7ff4479
    4a4c:	f8dffffe 			; <UNDEFINED> instruction: 0xf8dffffe
    4a50:	200118d0 	ldrdcs	r1, [r1], -r0
    4a54:	f7ff4479 			; <UNDEFINED> instruction: 0xf7ff4479
    4a58:	f8dffffe 			; <UNDEFINED> instruction: 0xf8dffffe
    4a5c:	ee1a18c8 	cdp	8, 1, cr1, cr10, cr8, {6}
    4a60:	ee1d3a10 	vmov	r3, s26
    4a64:	44792a10 	ldrbtmi	r2, [r9], #-2576	; 0xfffff5f0
    4a68:	f7ff2001 			; <UNDEFINED> instruction: 0xf7ff2001
    4a6c:	2001fffe 	strdcs	pc, [r1], -lr
    4a70:	fffef7ff 			; <UNDEFINED> instruction: 0xfffef7ff
    4a74:	38b0f8df 	ldmcc	r0!, {r0, r1, r2, r3, r4, r6, r7, fp, ip, sp, lr, pc}
    4a78:	2207f240 	andcs	pc, r7, #64, 4
    4a7c:	18acf8df 	stmiane	ip!, {r0, r1, r2, r3, r4, r6, r7, fp, ip, sp, lr, pc}
    4a80:	08acf8df 	stmiaeq	ip!, {r0, r1, r2, r3, r4, r6, r7, fp, ip, sp, lr, pc}
    4a84:	4479447b 	ldrbtmi	r4, [r9], #-1147	; 0xfffffb85
    4a88:	f7ff4478 			; <UNDEFINED> instruction: 0xf7ff4478
    4a8c:	f8dffffe 			; <UNDEFINED> instruction: 0xf8dffffe
    4a90:	f24038a4 	vadd.i8	d19, d16, d20
    4a94:	f8df2206 			; <UNDEFINED> instruction: 0xf8df2206
    4a98:	f8df18a0 			; <UNDEFINED> instruction: 0xf8df18a0
    4a9c:	447b08a0 	ldrbtmi	r0, [fp], #-2208	; 0xfffff760
    4aa0:	44784479 	ldrbtmi	r4, [r8], #-1145	; 0xfffffb87
    4aa4:	fffef7ff 			; <UNDEFINED> instruction: 0xfffef7ff
    4aa8:	1894f8df 	ldmne	r4, {r0, r1, r2, r3, r4, r6, r7, fp, ip, sp, lr, pc}
    4aac:	20014622 	andcs	r4, r1, r2, lsr #12
    4ab0:	f7ff4479 			; <UNDEFINED> instruction: 0xf7ff4479
    4ab4:	f8dffffe 			; <UNDEFINED> instruction: 0xf8dffffe
    4ab8:	2001188c 	andcs	r1, r1, ip, lsl #17
    4abc:	f7ff4479 			; <UNDEFINED> instruction: 0xf7ff4479
    4ac0:	f8dffffe 			; <UNDEFINED> instruction: 0xf8dffffe
    4ac4:	ee1a1884 	cdp	8, 1, cr1, cr10, cr4, {4}
    4ac8:	ee1d3a10 	vmov	r3, s26
    4acc:	44792a10 	ldrbtmi	r2, [r9], #-2576	; 0xfffff5f0
    4ad0:	f7ff2001 			; <UNDEFINED> instruction: 0xf7ff2001
    4ad4:	2001fffe 	strdcs	pc, [r1], -lr
    4ad8:	fffef7ff 			; <UNDEFINED> instruction: 0xfffef7ff
    4adc:	186cf8df 	stmdane	ip!, {r0, r1, r2, r3, r4, r6, r7, fp, ip, sp, lr, pc}^
    4ae0:	20014622 	andcs	r4, r1, r2, lsr #12
    4ae4:	f7ff4479 			; <UNDEFINED> instruction: 0xf7ff4479
    4ae8:	f8dffffe 			; <UNDEFINED> instruction: 0xf8dffffe
    4aec:	20011864 	andcs	r1, r1, r4, ror #16
    4af0:	f7ff4479 			; <UNDEFINED> instruction: 0xf7ff4479
    4af4:	f8dffffe 			; <UNDEFINED> instruction: 0xf8dffffe
    4af8:	ee1a185c 	mrc	8, 0, r1, cr10, cr12, {2}
    4afc:	ee1d3a10 	vmov	r3, s26
    4b00:	44792a10 	ldrbtmi	r2, [r9], #-2576	; 0xfffff5f0
    4b04:	f7ff2001 			; <UNDEFINED> instruction: 0xf7ff2001
    4b08:	2001fffe 	strdcs	pc, [r1], -lr
    4b0c:	fffef7ff 			; <UNDEFINED> instruction: 0xfffef7ff
    4b10:	1844f8df 	stmdane	r4, {r0, r1, r2, r3, r4, r6, r7, fp, ip, sp, lr, pc}^
    4b14:	20014642 	andcs	r4, r1, r2, asr #12
    4b18:	f7ff4479 			; <UNDEFINED> instruction: 0xf7ff4479
    4b1c:	f8dffffe 			; <UNDEFINED> instruction: 0xf8dffffe
    4b20:	2001183c 	andcs	r1, r1, ip, lsr r8
    4b24:	f7ff4479 			; <UNDEFINED> instruction: 0xf7ff4479
    4b28:	f8dffffe 			; <UNDEFINED> instruction: 0xf8dffffe
    4b2c:	ee1a1834 	mrc	8, 0, r1, cr10, cr4, {1}
    4b30:	ee1d3a10 	vmov	r3, s26
    4b34:	44792a10 	ldrbtmi	r2, [r9], #-2576	; 0xfffff5f0
