
/root/projects/compiled/non_crypto/unstripped/bminor_binutils-gdb.git_funcargs_da8c29b1.o:     file format elf32-littlearm


Disassembly of section .text:

00000000 <call0a>:
   0:	4770      	bx	lr
   2:	bf00      	nop

00000004 <call0b>:
   4:	4770      	bx	lr
   6:	bf00      	nop

00000008 <call0c>:
   8:	4770      	bx	lr
   a:	bf00      	nop

0000000c <call0d>:
   c:	4770      	bx	lr
   e:	bf00      	nop

00000010 <call0e>:
  10:	4770      	bx	lr
  12:	bf00      	nop

00000014 <call1a>:
  14:	4770      	bx	lr
  16:	bf00      	nop

00000018 <call1b>:
  18:	4770      	bx	lr
  1a:	bf00      	nop

0000001c <call1c>:
  1c:	4770      	bx	lr
  1e:	bf00      	nop

00000020 <call1d>:
  20:	4770      	bx	lr
  22:	bf00      	nop

00000024 <call1e>:
  24:	4770      	bx	lr
  26:	bf00      	nop

00000028 <call2a>:
  28:	4770      	bx	lr
  2a:	bf00      	nop

0000002c <call2b>:
  2c:	4770      	bx	lr
  2e:	bf00      	nop

00000030 <call2c>:
  30:	4770      	bx	lr
  32:	bf00      	nop

00000034 <call2d>:
  34:	4770      	bx	lr
  36:	bf00      	nop

00000038 <call2e>:
  38:	4770      	bx	lr
  3a:	bf00      	nop

0000003c <call2f>:
  3c:	4770      	bx	lr
  3e:	bf00      	nop

00000040 <call2g>:
  40:	4770      	bx	lr
  42:	bf00      	nop

00000044 <call2h>:
  44:	4770      	bx	lr
  46:	bf00      	nop

00000048 <call2i>:
  48:	4770      	bx	lr
  4a:	bf00      	nop

0000004c <call3a>:
  4c:	4770      	bx	lr
  4e:	bf00      	nop

00000050 <call3b>:
  50:	4770      	bx	lr
  52:	bf00      	nop

00000054 <call3c>:
  54:	4770      	bx	lr
  56:	bf00      	nop

00000058 <call4a>:
  58:	4770      	bx	lr
  5a:	bf00      	nop

0000005c <call4b>:
  5c:	4770      	bx	lr
  5e:	bf00      	nop

00000060 <call5a>:
  60:	b082      	sub	sp, #8
  62:	ab02      	add	r3, sp, #8
  64:	e903 0003 	stmdb	r3, {r0, r1}
  68:	b002      	add	sp, #8
  6a:	4770      	bx	lr

0000006c <call5b>:
  6c:	4770      	bx	lr
  6e:	bf00      	nop

00000070 <call6k>:
  70:	4770      	bx	lr
  72:	bf00      	nop

00000074 <call6j>:
  74:	4770      	bx	lr
  76:	bf00      	nop

00000078 <call6i>:
  78:	4770      	bx	lr
  7a:	bf00      	nop

0000007c <call6h>:
  7c:	4770      	bx	lr
  7e:	bf00      	nop

00000080 <call6g>:
  80:	4770      	bx	lr
  82:	bf00      	nop

00000084 <call6f>:
  84:	4770      	bx	lr
  86:	bf00      	nop

00000088 <call6e>:
  88:	4770      	bx	lr
  8a:	bf00      	nop

0000008c <call6d>:
  8c:	4770      	bx	lr
  8e:	bf00      	nop

00000090 <call6c>:
  90:	4770      	bx	lr
  92:	bf00      	nop

00000094 <call6b>:
  94:	4770      	bx	lr
  96:	bf00      	nop

00000098 <call6a>:
  98:	4770      	bx	lr
  9a:	bf00      	nop

0000009c <call7k>:
  9c:	4770      	bx	lr
  9e:	bf00      	nop

000000a0 <call7j>:
  a0:	4770      	bx	lr
  a2:	bf00      	nop

000000a4 <call7i>:
  a4:	4770      	bx	lr
  a6:	bf00      	nop

000000a8 <call7h>:
  a8:	4770      	bx	lr
  aa:	bf00      	nop

000000ac <call7g>:
  ac:	4770      	bx	lr
  ae:	bf00      	nop

000000b0 <call7f>:
  b0:	4770      	bx	lr
  b2:	bf00      	nop

000000b4 <call7e>:
  b4:	4770      	bx	lr
  b6:	bf00      	nop

000000b8 <call7d>:
  b8:	4770      	bx	lr
  ba:	bf00      	nop

000000bc <call7c>:
  bc:	4770      	bx	lr
  be:	bf00      	nop

000000c0 <call7b>:
  c0:	4770      	bx	lr
  c2:	bf00      	nop

000000c4 <call7a>:
  c4:	4770      	bx	lr
  c6:	bf00      	nop

000000c8 <hitbottom>:
  c8:	4770      	bx	lr
  ca:	bf00      	nop

000000cc <use_a>:
  cc:	b088      	sub	sp, #32
  ce:	ab01      	add	r3, sp, #4
  d0:	e883 0007 	stmia.w	r3, {r0, r1, r2}
  d4:	e893 0007 	ldmia.w	r3, {r0, r1, r2}
  d8:	ab08      	add	r3, sp, #32
  da:	e903 0007 	stmdb	r3, {r0, r1, r2}
  de:	b008      	add	sp, #32
  e0:	4770      	bx	lr
  e2:	bf00      	nop

000000e4 <recurse>:
  e4:	e92d 4ff0 	stmdb	sp!, {r4, r5, r6, r7, r8, r9, sl, fp, lr}
  e8:	1e5f      	subs	r7, r3, #1
  ea:	b091      	sub	sp, #68	; 0x44
  ec:	fa0f f887 	sxth.w	r8, r7
  f0:	ad01      	add	r5, sp, #4
  f2:	ac04      	add	r4, sp, #16
  f4:	ae07      	add	r6, sp, #28
  f6:	e885 0007 	stmia.w	r5, {r0, r1, r2}
  fa:	b967      	cbnz	r7, 116 <recurse+0x32>
  fc:	f8ad 8004 	strh.w	r8, [sp, #4]
 100:	e9cd 7702 	strd	r7, r7, [sp, #8]
 104:	e895 0007 	ldmia.w	r5, {r0, r1, r2}
 108:	e884 0007 	stmia.w	r4, {r0, r1, r2}
 10c:	e886 0007 	stmia.w	r6, {r0, r1, r2}
 110:	b011      	add	sp, #68	; 0x44
 112:	e8bd 8ff0 	ldmia.w	sp!, {r4, r5, r6, r7, r8, r9, sl, fp, pc}
 116:	f8ad 8004 	strh.w	r8, [sp, #4]
 11a:	f1a3 0902 	sub.w	r9, r3, #2
 11e:	e9cd 7702 	strd	r7, r7, [sp, #8]
 122:	fa0f fa89 	sxth.w	sl, r9
 126:	e895 0007 	ldmia.w	r5, {r0, r1, r2}
 12a:	e884 0007 	stmia.w	r4, {r0, r1, r2}
 12e:	f1b9 0f00 	cmp.w	r9, #0
 132:	d10c      	bne.n	14e <recurse+0x6a>
 134:	ae07      	add	r6, sp, #28
 136:	ab0a      	add	r3, sp, #40	; 0x28
 138:	f8ad a010 	strh.w	sl, [sp, #16]
 13c:	e9cd 9905 	strd	r9, r9, [sp, #20]
 140:	e894 0007 	ldmia.w	r4, {r0, r1, r2}
 144:	e886 0007 	stmia.w	r6, {r0, r1, r2}
 148:	e883 0007 	stmia.w	r3, {r0, r1, r2}
 14c:	e7d6      	b.n	fc <recurse+0x18>
 14e:	ae07      	add	r6, sp, #28
 150:	f8ad a010 	strh.w	sl, [sp, #16]
 154:	e9cd 9905 	strd	r9, r9, [sp, #20]
 158:	3b03      	subs	r3, #3
 15a:	e894 0007 	ldmia.w	r4, {r0, r1, r2}
 15e:	fa0f fb83 	sxth.w	fp, r3
 162:	e886 0007 	stmia.w	r6, {r0, r1, r2}
 166:	b96b      	cbnz	r3, 184 <recurse+0xa0>
 168:	f10d 0c40 	add.w	ip, sp, #64	; 0x40
 16c:	e9cd 3308 	strd	r3, r3, [sp, #32]
 170:	ab0a      	add	r3, sp, #40	; 0x28
 172:	f8ad b01c 	strh.w	fp, [sp, #28]
 176:	e896 0007 	ldmia.w	r6, {r0, r1, r2}
 17a:	e883 0007 	stmia.w	r3, {r0, r1, r2}
 17e:	e90c 0007 	stmdb	ip, {r0, r1, r2}
 182:	e7d9      	b.n	138 <recurse+0x54>
 184:	e9cd 3308 	strd	r3, r3, [sp, #32]
 188:	f8ad b01c 	strh.w	fp, [sp, #28]
 18c:	9300      	str	r3, [sp, #0]
 18e:	e896 0007 	ldmia.w	r6, {r0, r1, r2}
 192:	f7ff fffe 	bl	e4 <recurse>
 196:	9b00      	ldr	r3, [sp, #0]
 198:	e7e6      	b.n	168 <recurse+0x84>
 19a:	bf00      	nop

0000019c <test_struct_args>:
 19c:	b530      	push	{r4, r5, lr}
 19e:	2501      	movs	r5, #1
 1a0:	462b      	mov	r3, r5
 1a2:	b091      	sub	sp, #68	; 0x44
 1a4:	ac07      	add	r4, sp, #28
 1a6:	f8ad 501c 	strh.w	r5, [sp, #28]
 1aa:	e9cd 5508 	strd	r5, r5, [sp, #32]
 1ae:	e894 0007 	ldmia.w	r4, {r0, r1, r2}
 1b2:	f7ff fffe 	bl	e4 <recurse>
 1b6:	2302      	movs	r3, #2
 1b8:	f8ad 301c 	strh.w	r3, [sp, #28]
 1bc:	e9cd 3308 	strd	r3, r3, [sp, #32]
 1c0:	ab0a      	add	r3, sp, #40	; 0x28
 1c2:	f8ad 5028 	strh.w	r5, [sp, #40]	; 0x28
 1c6:	e9cd 550b 	strd	r5, r5, [sp, #44]	; 0x2c
 1ca:	ad10      	add	r5, sp, #64	; 0x40
 1cc:	e893 0007 	ldmia.w	r3, {r0, r1, r2}
 1d0:	e905 0007 	stmdb	r5, {r0, r1, r2}
 1d4:	2203      	movs	r2, #3
 1d6:	f8ad 2010 	strh.w	r2, [sp, #16]
 1da:	e9cd 2205 	strd	r2, r2, [sp, #20]
 1de:	2204      	movs	r2, #4
 1e0:	f8ad 2004 	strh.w	r2, [sp, #4]
 1e4:	e9cd 2202 	strd	r2, r2, [sp, #8]
 1e8:	e894 0007 	ldmia.w	r4, {r0, r1, r2}
 1ec:	e883 0007 	stmia.w	r3, {r0, r1, r2}
 1f0:	ab04      	add	r3, sp, #16
 1f2:	e893 0007 	ldmia.w	r3, {r0, r1, r2}
 1f6:	e884 0007 	stmia.w	r4, {r0, r1, r2}
 1fa:	aa01      	add	r2, sp, #4
 1fc:	ca07      	ldmia	r2, {r0, r1, r2}
 1fe:	e883 0007 	stmia.w	r3, {r0, r1, r2}
 202:	b011      	add	sp, #68	; 0x44
 204:	bd30      	pop	{r4, r5, pc}
 206:	bf00      	nop

00000208 <localvars_after_alloca>:
 208:	4770      	bx	lr
 20a:	bf00      	nop

0000020c <call_after_alloca_subr>:
 20c:	4770      	bx	lr
 20e:	bf00      	nop

00000210 <call_after_alloca>:
 210:	4770      	bx	lr
 212:	bf00      	nop

00000214 <call_with_trampolines>:
 214:	4770      	bx	lr
 216:	bf00      	nop

00000218 <marker_indirect_call>:
 218:	4770      	bx	lr
 21a:	bf00      	nop

0000021c <marker_call_with_trampolines>:
 21c:	4770      	bx	lr
 21e:	bf00      	nop

Disassembly of section .text.startup:

00000000 <main>:
   0:	b508      	push	{r3, lr}
   2:	2202      	movs	r2, #2
   4:	4b03      	ldr	r3, [pc, #12]	; (14 <main+0x14>)
   6:	447b      	add	r3, pc
   8:	601a      	str	r2, [r3, #0]
   a:	f7ff fffe 	bl	19c <test_struct_args>
   e:	2000      	movs	r0, #0
  10:	bd08      	pop	{r3, pc}
  12:	bf00      	nop
  14:	0000000a 	.word	0x0000000a
