
/root/projects/compiled/non_crypto/unstripped/embecosm_mibench.git_wrjpgcom_870372a5.o:     file format elf32-littlearm


Disassembly of section .text:

00000000 <usage>:
   0:	b508      	push	{r3, lr}
   2:	2233      	movs	r2, #51	; 0x33
   4:	4b38      	ldr	r3, [pc, #224]	; (e8 <usage+0xe8>)
   6:	4c39      	ldr	r4, [pc, #228]	; (ec <usage+0xec>)
   8:	2101      	movs	r1, #1
   a:	447b      	add	r3, pc
   c:	4838      	ldr	r0, [pc, #224]	; (f0 <usage+0xf0>)
   e:	4478      	add	r0, pc
  10:	591c      	ldr	r4, [r3, r4]
  12:	6823      	ldr	r3, [r4, #0]
  14:	f7ff fffe 	bl	0 <fwrite>
  18:	4836      	ldr	r0, [pc, #216]	; (f4 <usage+0xf4>)
  1a:	6823      	ldr	r3, [r4, #0]
  1c:	2233      	movs	r2, #51	; 0x33
  1e:	2101      	movs	r1, #1
  20:	4478      	add	r0, pc
  22:	f7ff fffe 	bl	0 <fwrite>
  26:	4b34      	ldr	r3, [pc, #208]	; (f8 <usage+0xf8>)
  28:	4a34      	ldr	r2, [pc, #208]	; (fc <usage+0xfc>)
  2a:	2101      	movs	r1, #1
  2c:	447b      	add	r3, pc
  2e:	6820      	ldr	r0, [r4, #0]
  30:	447a      	add	r2, pc
  32:	681b      	ldr	r3, [r3, #0]
  34:	f7ff fffe 	bl	0 <__fprintf_chk>
  38:	4831      	ldr	r0, [pc, #196]	; (100 <usage+0x100>)
  3a:	6823      	ldr	r3, [r4, #0]
  3c:	220c      	movs	r2, #12
  3e:	2101      	movs	r1, #1
  40:	4478      	add	r0, pc
  42:	f7ff fffe 	bl	0 <fwrite>
  46:	482f      	ldr	r0, [pc, #188]	; (104 <usage+0x104>)
  48:	6823      	ldr	r3, [r4, #0]
  4a:	2225      	movs	r2, #37	; 0x25
  4c:	2101      	movs	r1, #1
  4e:	4478      	add	r0, pc
  50:	f7ff fffe 	bl	0 <fwrite>
  54:	482c      	ldr	r0, [pc, #176]	; (108 <usage+0x108>)
  56:	6823      	ldr	r3, [r4, #0]
  58:	2230      	movs	r2, #48	; 0x30
  5a:	2101      	movs	r1, #1
  5c:	4478      	add	r0, pc
  5e:	f7ff fffe 	bl	0 <fwrite>
  62:	482a      	ldr	r0, [pc, #168]	; (10c <usage+0x10c>)
  64:	6823      	ldr	r3, [r4, #0]
  66:	2232      	movs	r2, #50	; 0x32
  68:	2101      	movs	r1, #1
  6a:	4478      	add	r0, pc
  6c:	f7ff fffe 	bl	0 <fwrite>
  70:	4827      	ldr	r0, [pc, #156]	; (110 <usage+0x110>)
  72:	6823      	ldr	r3, [r4, #0]
  74:	2230      	movs	r2, #48	; 0x30
  76:	2101      	movs	r1, #1
  78:	4478      	add	r0, pc
  7a:	f7ff fffe 	bl	0 <fwrite>
  7e:	4825      	ldr	r0, [pc, #148]	; (114 <usage+0x114>)
  80:	6823      	ldr	r3, [r4, #0]
  82:	2238      	movs	r2, #56	; 0x38
  84:	2101      	movs	r1, #1
  86:	4478      	add	r0, pc
  88:	f7ff fffe 	bl	0 <fwrite>
  8c:	4822      	ldr	r0, [pc, #136]	; (118 <usage+0x118>)
  8e:	6823      	ldr	r3, [r4, #0]
  90:	2217      	movs	r2, #23
  92:	2101      	movs	r1, #1
  94:	4478      	add	r0, pc
  96:	f7ff fffe 	bl	0 <fwrite>
  9a:	4820      	ldr	r0, [pc, #128]	; (11c <usage+0x11c>)
  9c:	6823      	ldr	r3, [r4, #0]
  9e:	2242      	movs	r2, #66	; 0x42
  a0:	2101      	movs	r1, #1
  a2:	4478      	add	r0, pc
  a4:	f7ff fffe 	bl	0 <fwrite>
  a8:	481d      	ldr	r0, [pc, #116]	; (120 <usage+0x120>)
  aa:	6823      	ldr	r3, [r4, #0]
  ac:	2233      	movs	r2, #51	; 0x33
  ae:	2101      	movs	r1, #1
  b0:	4478      	add	r0, pc
  b2:	f7ff fffe 	bl	0 <fwrite>
  b6:	4a1b      	ldr	r2, [pc, #108]	; (124 <usage+0x124>)
  b8:	2101      	movs	r1, #1
  ba:	f64f 53e8 	movw	r3, #65000	; 0xfde8
  be:	447a      	add	r2, pc
  c0:	6820      	ldr	r0, [r4, #0]
  c2:	f7ff fffe 	bl	0 <__fprintf_chk>
  c6:	4818      	ldr	r0, [pc, #96]	; (128 <usage+0x128>)
  c8:	6823      	ldr	r3, [r4, #0]
  ca:	2238      	movs	r2, #56	; 0x38
  cc:	2101      	movs	r1, #1
  ce:	4478      	add	r0, pc
  d0:	f7ff fffe 	bl	0 <fwrite>
  d4:	4815      	ldr	r0, [pc, #84]	; (12c <usage+0x12c>)
  d6:	6823      	ldr	r3, [r4, #0]
  d8:	2222      	movs	r2, #34	; 0x22
  da:	4478      	add	r0, pc
  dc:	2101      	movs	r1, #1
  de:	f7ff fffe 	bl	0 <fwrite>
  e2:	2001      	movs	r0, #1
  e4:	f7ff fffe 	bl	0 <exit>
  e8:	000000da 	.word	0x000000da
  ec:	00000000 	.word	0x00000000
  f0:	000000de 	.word	0x000000de
  f4:	000000d0 	.word	0x000000d0
  f8:	000000c8 	.word	0x000000c8
  fc:	000000c8 	.word	0x000000c8
 100:	000000bc 	.word	0x000000bc
 104:	000000b2 	.word	0x000000b2
 108:	000000a8 	.word	0x000000a8
 10c:	0000009e 	.word	0x0000009e
 110:	00000094 	.word	0x00000094
 114:	0000008a 	.word	0x0000008a
 118:	00000080 	.word	0x00000080
 11c:	00000076 	.word	0x00000076
 120:	0000006c 	.word	0x0000006c
 124:	00000062 	.word	0x00000062
 128:	00000056 	.word	0x00000056
 12c:	0000004e 	.word	0x0000004e

00000130 <write_marker>:
 130:	b538      	push	{r3, r4, r5, lr}
 132:	4605      	mov	r5, r0
 134:	4c05      	ldr	r4, [pc, #20]	; (14c <write_marker+0x1c>)
 136:	20ff      	movs	r0, #255	; 0xff
 138:	447c      	add	r4, pc
 13a:	6861      	ldr	r1, [r4, #4]
 13c:	f7ff fffe 	bl	0 <putc>
 140:	6861      	ldr	r1, [r4, #4]
 142:	4628      	mov	r0, r5
 144:	e8bd 4038 	ldmia.w	sp!, {r3, r4, r5, lr}
 148:	f7ff bffe 	b.w	0 <putc>
 14c:	00000010 	.word	0x00000010

00000150 <read_1_byte.part.0>:
 150:	4808      	ldr	r0, [pc, #32]	; (174 <read_1_byte.part.0+0x24>)
 152:	2101      	movs	r1, #1
 154:	f8df c020 	ldr.w	ip, [pc, #32]	; 178 <read_1_byte.part.0+0x28>
 158:	4478      	add	r0, pc
 15a:	b508      	push	{r3, lr}
 15c:	4b07      	ldr	r3, [pc, #28]	; (17c <read_1_byte.part.0+0x2c>)
 15e:	4a08      	ldr	r2, [pc, #32]	; (180 <read_1_byte.part.0+0x30>)
 160:	f850 000c 	ldr.w	r0, [r0, ip]
 164:	447b      	add	r3, pc
 166:	447a      	add	r2, pc
 168:	6800      	ldr	r0, [r0, #0]
 16a:	f7ff fffe 	bl	0 <__fprintf_chk>
 16e:	2001      	movs	r0, #1
 170:	f7ff fffe 	bl	0 <exit>
 174:	00000018 	.word	0x00000018
 178:	00000000 	.word	0x00000000
 17c:	00000014 	.word	0x00000014
 180:	00000016 	.word	0x00000016

00000184 <read_1_byte>:
 184:	b508      	push	{r3, lr}
 186:	4b05      	ldr	r3, [pc, #20]	; (19c <read_1_byte+0x18>)
 188:	447b      	add	r3, pc
 18a:	6898      	ldr	r0, [r3, #8]
 18c:	f7ff fffe 	bl	0 <getc>
 190:	1c43      	adds	r3, r0, #1
 192:	d000      	beq.n	196 <read_1_byte+0x12>
 194:	bd08      	pop	{r3, pc}
 196:	f7ff ffdb 	bl	150 <read_1_byte.part.0>
 19a:	bf00      	nop
 19c:	00000010 	.word	0x00000010

000001a0 <copy_variable>:
 1a0:	b5f8      	push	{r3, r4, r5, r6, r7, lr}
 1a2:	4d22      	ldr	r5, [pc, #136]	; (22c <copy_variable+0x8c>)
 1a4:	4f22      	ldr	r7, [pc, #136]	; (230 <copy_variable+0x90>)
 1a6:	447d      	add	r5, pc
 1a8:	447f      	add	r7, pc
 1aa:	68a8      	ldr	r0, [r5, #8]
 1ac:	f7ff fffe 	bl	0 <getc>
 1b0:	1c41      	adds	r1, r0, #1
 1b2:	d034      	beq.n	21e <copy_variable+0x7e>
 1b4:	4606      	mov	r6, r0
 1b6:	68a8      	ldr	r0, [r5, #8]
 1b8:	f7ff fffe 	bl	0 <getc>
 1bc:	1c42      	adds	r2, r0, #1
 1be:	d02c      	beq.n	21a <copy_variable+0x7a>
 1c0:	eb00 2406 	add.w	r4, r0, r6, lsl #8
 1c4:	6869      	ldr	r1, [r5, #4]
 1c6:	f3c4 2007 	ubfx	r0, r4, #8, #8
 1ca:	f7ff fffe 	bl	0 <putc>
 1ce:	6869      	ldr	r1, [r5, #4]
 1d0:	b2e0      	uxtb	r0, r4
 1d2:	f7ff fffe 	bl	0 <putc>
 1d6:	2c01      	cmp	r4, #1
 1d8:	d919      	bls.n	20e <copy_variable+0x6e>
 1da:	3c02      	subs	r4, #2
 1dc:	d009      	beq.n	1f2 <copy_variable+0x52>
 1de:	68a8      	ldr	r0, [r5, #8]
 1e0:	f7ff fffe 	bl	0 <getc>
 1e4:	1c43      	adds	r3, r0, #1
 1e6:	d005      	beq.n	1f4 <copy_variable+0x54>
 1e8:	6869      	ldr	r1, [r5, #4]
 1ea:	f7ff fffe 	bl	0 <putc>
 1ee:	3c01      	subs	r4, #1
 1f0:	d1f5      	bne.n	1de <copy_variable+0x3e>
 1f2:	bdf8      	pop	{r3, r4, r5, r6, r7, pc}
 1f4:	4b0f      	ldr	r3, [pc, #60]	; (234 <copy_variable+0x94>)
 1f6:	4a10      	ldr	r2, [pc, #64]	; (238 <copy_variable+0x98>)
 1f8:	4810      	ldr	r0, [pc, #64]	; (23c <copy_variable+0x9c>)
 1fa:	447b      	add	r3, pc
 1fc:	447a      	add	r2, pc
 1fe:	5838      	ldr	r0, [r7, r0]
 200:	2101      	movs	r1, #1
 202:	6800      	ldr	r0, [r0, #0]
 204:	f7ff fffe 	bl	0 <__fprintf_chk>
 208:	2001      	movs	r0, #1
 20a:	f7ff fffe 	bl	0 <exit>
 20e:	4b0c      	ldr	r3, [pc, #48]	; (240 <copy_variable+0xa0>)
 210:	4a0c      	ldr	r2, [pc, #48]	; (244 <copy_variable+0xa4>)
 212:	480a      	ldr	r0, [pc, #40]	; (23c <copy_variable+0x9c>)
 214:	447b      	add	r3, pc
 216:	447a      	add	r2, pc
 218:	e7f1      	b.n	1fe <copy_variable+0x5e>
 21a:	f7ff ff99 	bl	150 <read_1_byte.part.0>
 21e:	4b0a      	ldr	r3, [pc, #40]	; (248 <copy_variable+0xa8>)
 220:	4a0a      	ldr	r2, [pc, #40]	; (24c <copy_variable+0xac>)
 222:	4806      	ldr	r0, [pc, #24]	; (23c <copy_variable+0x9c>)
 224:	447b      	add	r3, pc
 226:	447a      	add	r2, pc
 228:	e7e9      	b.n	1fe <copy_variable+0x5e>
 22a:	bf00      	nop
 22c:	00000082 	.word	0x00000082
 230:	00000084 	.word	0x00000084
 234:	00000036 	.word	0x00000036
 238:	00000038 	.word	0x00000038
 23c:	00000000 	.word	0x00000000
 240:	00000028 	.word	0x00000028
 244:	0000002a 	.word	0x0000002a
 248:	00000020 	.word	0x00000020
 24c:	00000022 	.word	0x00000022

Disassembly of section .text.startup:

00000000 <main>:
   0:	e92d 4ff0 	stmdb	sp!, {r4, r5, r6, r7, r8, r9, sl, fp, lr}
   4:	f8df 24f8 	ldr.w	r2, [pc, #1272]	; 500 <main+0x500>
   8:	b091      	sub	sp, #68	; 0x44
   a:	f8df 34f8 	ldr.w	r3, [pc, #1272]	; 504 <main+0x504>
   e:	447a      	add	r2, pc
  10:	447b      	add	r3, pc
  12:	920e      	str	r2, [sp, #56]	; 0x38
  14:	680a      	ldr	r2, [r1, #0]
  16:	9106      	str	r1, [sp, #24]
  18:	9004      	str	r0, [sp, #16]
  1a:	601a      	str	r2, [r3, #0]
  1c:	2a00      	cmp	r2, #0
  1e:	f000 8093 	beq.w	148 <main+0x148>
  22:	7813      	ldrb	r3, [r2, #0]
  24:	2b00      	cmp	r3, #0
  26:	f000 808f 	beq.w	148 <main+0x148>
  2a:	9b04      	ldr	r3, [sp, #16]
  2c:	2b01      	cmp	r3, #1
  2e:	f340 8089 	ble.w	144 <main+0x144>
  32:	f8df 14d4 	ldr.w	r1, [pc, #1236]	; 508 <main+0x508>
  36:	2201      	movs	r2, #1
  38:	4692      	mov	sl, r2
  3a:	2300      	movs	r3, #0
  3c:	4479      	add	r1, pc
  3e:	9109      	str	r1, [sp, #36]	; 0x24
  40:	f8df 14c8 	ldr.w	r1, [pc, #1224]	; 50c <main+0x50c>
  44:	e9cd 330c 	strd	r3, r3, [sp, #48]	; 0x30
  48:	4479      	add	r1, pc
  4a:	920b      	str	r2, [sp, #44]	; 0x2c
  4c:	910f      	str	r1, [sp, #60]	; 0x3c
  4e:	930a      	str	r3, [sp, #40]	; 0x28
  50:	9b06      	ldr	r3, [sp, #24]
  52:	f8cd a020 	str.w	sl, [sp, #32]
  56:	f853 702a 	ldr.w	r7, [r3, sl, lsl #2]
  5a:	ea4f 038a 	mov.w	r3, sl, lsl #2
  5e:	9307      	str	r3, [sp, #28]
  60:	783b      	ldrb	r3, [r7, #0]
  62:	2b2d      	cmp	r3, #45	; 0x2d
  64:	f040 8082 	bne.w	16c <main+0x16c>
  68:	f897 8001 	ldrb.w	r8, [r7, #1]
  6c:	1cbe      	adds	r6, r7, #2
  6e:	9603      	str	r6, [sp, #12]
  70:	46c1      	mov	r9, r8
  72:	f1b8 0f00 	cmp.w	r8, #0
  76:	d065      	beq.n	144 <main+0x144>
  78:	f7ff fffe 	bl	0 <__ctype_b_loc>
  7c:	9b09      	ldr	r3, [sp, #36]	; 0x24
  7e:	f8d0 b000 	ldr.w	fp, [r0]
  82:	4644      	mov	r4, r8
  84:	1c59      	adds	r1, r3, #1
  86:	9705      	str	r7, [sp, #20]
  88:	4640      	mov	r0, r8
  8a:	465f      	mov	r7, fp
  8c:	2572      	movs	r5, #114	; 0x72
  8e:	468b      	mov	fp, r1
  90:	b224      	sxth	r4, r4
  92:	f837 2014 	ldrh.w	r2, [r7, r4, lsl #1]
  96:	05d3      	lsls	r3, r2, #23
  98:	d504      	bpl.n	a4 <main+0xa4>
  9a:	f7ff fffe 	bl	0 <__ctype_tolower_loc>
  9e:	6802      	ldr	r2, [r0, #0]
  a0:	f852 0024 	ldr.w	r0, [r2, r4, lsl #2]
  a4:	42a8      	cmp	r0, r5
  a6:	d155      	bne.n	154 <main+0x154>
  a8:	f816 0b01 	ldrb.w	r0, [r6], #1
  ac:	4604      	mov	r4, r0
  ae:	2800      	cmp	r0, #0
  b0:	d055      	beq.n	15e <main+0x15e>
  b2:	f81b 5b01 	ldrb.w	r5, [fp], #1
  b6:	2d00      	cmp	r5, #0
  b8:	d1ea      	bne.n	90 <main+0x90>
  ba:	f8df 1454 	ldr.w	r1, [pc, #1108]	; 510 <main+0x510>
  be:	46bb      	mov	fp, r7
  c0:	9f05      	ldr	r7, [sp, #20]
  c2:	4479      	add	r1, pc
  c4:	3101      	adds	r1, #1
  c6:	9d03      	ldr	r5, [sp, #12]
  c8:	4644      	mov	r4, r8
  ca:	4640      	mov	r0, r8
  cc:	f8cd 8014 	str.w	r8, [sp, #20]
  d0:	2663      	movs	r6, #99	; 0x63
  d2:	46b8      	mov	r8, r7
  d4:	460f      	mov	r7, r1
  d6:	b224      	sxth	r4, r4
  d8:	f83b 2014 	ldrh.w	r2, [fp, r4, lsl #1]
  dc:	05d1      	lsls	r1, r2, #23
  de:	d504      	bpl.n	ea <main+0xea>
  e0:	f7ff fffe 	bl	0 <__ctype_tolower_loc>
  e4:	6802      	ldr	r2, [r0, #0]
  e6:	f852 0024 	ldr.w	r0, [r2, r4, lsl #2]
  ea:	4286      	cmp	r6, r0
  ec:	d10b      	bne.n	106 <main+0x106>
  ee:	eba5 0608 	sub.w	r6, r5, r8
  f2:	f815 0b01 	ldrb.w	r0, [r5], #1
  f6:	4604      	mov	r4, r0
  f8:	2800      	cmp	r0, #0
  fa:	f000 80aa 	beq.w	252 <main+0x252>
  fe:	f817 6b01 	ldrb.w	r6, [r7], #1
 102:	2e00      	cmp	r6, #0
 104:	d1e7      	bne.n	d6 <main+0xd6>
 106:	f8dd 8014 	ldr.w	r8, [sp, #20]
 10a:	f8df 5408 	ldr.w	r5, [pc, #1032]	; 514 <main+0x514>
 10e:	2463      	movs	r4, #99	; 0x63
 110:	9e03      	ldr	r6, [sp, #12]
 112:	464b      	mov	r3, r9
 114:	447d      	add	r5, pc
 116:	3501      	adds	r5, #1
 118:	fa0f f888 	sxth.w	r8, r8
 11c:	f83b 2018 	ldrh.w	r2, [fp, r8, lsl #1]
 120:	05d2      	lsls	r2, r2, #23
 122:	d504      	bpl.n	12e <main+0x12e>
 124:	f7ff fffe 	bl	0 <__ctype_tolower_loc>
 128:	6803      	ldr	r3, [r0, #0]
 12a:	f853 3028 	ldr.w	r3, [r3, r8, lsl #2]
 12e:	429c      	cmp	r4, r3
 130:	d108      	bne.n	144 <main+0x144>
 132:	f816 3b01 	ldrb.w	r3, [r6], #1
 136:	4698      	mov	r8, r3
 138:	2b00      	cmp	r3, #0
 13a:	d078      	beq.n	22e <main+0x22e>
 13c:	f815 4b01 	ldrb.w	r4, [r5], #1
 140:	2c00      	cmp	r4, #0
 142:	d1e9      	bne.n	118 <main+0x118>
 144:	f7ff fffe 	bl	0 <main>
 148:	4bf3      	ldr	r3, [pc, #972]	; (518 <main+0x518>)
 14a:	4af4      	ldr	r2, [pc, #976]	; (51c <main+0x51c>)
 14c:	447b      	add	r3, pc
 14e:	447a      	add	r2, pc
 150:	601a      	str	r2, [r3, #0]
 152:	e76a      	b.n	2a <main+0x2a>
 154:	49f2      	ldr	r1, [pc, #968]	; (520 <main+0x520>)
 156:	46bb      	mov	fp, r7
 158:	9f05      	ldr	r7, [sp, #20]
 15a:	4479      	add	r1, pc
 15c:	e7b2      	b.n	c4 <main+0xc4>
 15e:	900b      	str	r0, [sp, #44]	; 0x2c
 160:	9b04      	ldr	r3, [sp, #16]
 162:	f10a 0a01 	add.w	sl, sl, #1
 166:	4553      	cmp	r3, sl
 168:	f73f af72 	bgt.w	50 <main+0x50>
 16c:	9b0a      	ldr	r3, [sp, #40]	; 0x28
 16e:	b113      	cbz	r3, 176 <main+0x176>
 170:	9b0c      	ldr	r3, [sp, #48]	; 0x30
 172:	2b00      	cmp	r3, #0
 174:	d1e6      	bne.n	144 <main+0x144>
 176:	9b0c      	ldr	r3, [sp, #48]	; 0x30
 178:	9a0a      	ldr	r2, [sp, #40]	; 0x28
 17a:	4313      	orrs	r3, r2
 17c:	9b04      	ldr	r3, [sp, #16]
 17e:	f000 811d 	beq.w	3bc <main+0x3bc>
 182:	4553      	cmp	r3, sl
 184:	f300 811d 	bgt.w	3c2 <main+0x3c2>
 188:	4be6      	ldr	r3, [pc, #920]	; (524 <main+0x524>)
 18a:	9a0e      	ldr	r2, [sp, #56]	; 0x38
 18c:	58d3      	ldr	r3, [r2, r3]
 18e:	681a      	ldr	r2, [r3, #0]
 190:	4be5      	ldr	r3, [pc, #916]	; (528 <main+0x528>)
 192:	447b      	add	r3, pc
 194:	609a      	str	r2, [r3, #8]
 196:	9b04      	ldr	r3, [sp, #16]
 198:	3b01      	subs	r3, #1
 19a:	4553      	cmp	r3, sl
 19c:	f300 8173 	bgt.w	486 <main+0x486>
 1a0:	4be2      	ldr	r3, [pc, #904]	; (52c <main+0x52c>)
 1a2:	9a0e      	ldr	r2, [sp, #56]	; 0x38
 1a4:	58d3      	ldr	r3, [r2, r3]
 1a6:	681a      	ldr	r2, [r3, #0]
 1a8:	4be1      	ldr	r3, [pc, #900]	; (530 <main+0x530>)
 1aa:	447b      	add	r3, pc
 1ac:	605a      	str	r2, [r3, #4]
 1ae:	9b0a      	ldr	r3, [sp, #40]	; 0x28
 1b0:	2b00      	cmp	r3, #0
 1b2:	f000 8138 	beq.w	426 <main+0x426>
 1b6:	4edf      	ldr	r6, [pc, #892]	; (534 <main+0x534>)
 1b8:	447e      	add	r6, pc
 1ba:	68b0      	ldr	r0, [r6, #8]
 1bc:	f7ff fffe 	bl	0 <getc>
 1c0:	4604      	mov	r4, r0
 1c2:	68b0      	ldr	r0, [r6, #8]
 1c4:	f7ff fffe 	bl	0 <getc>
 1c8:	2cff      	cmp	r4, #255	; 0xff
 1ca:	f040 8190 	bne.w	4ee <main+0x4ee>
 1ce:	28d8      	cmp	r0, #216	; 0xd8
 1d0:	f040 818d 	bne.w	4ee <main+0x4ee>
 1d4:	4fd8      	ldr	r7, [pc, #864]	; (538 <main+0x538>)
 1d6:	20d8      	movs	r0, #216	; 0xd8
 1d8:	f64e 68ef 	movw	r8, #61167	; 0xeeef
 1dc:	f2c0 2800 	movt	r8, #512	; 0x200
 1e0:	447f      	add	r7, pc
 1e2:	f7ff fffe 	bl	130 <main+0x130>
 1e6:	2500      	movs	r5, #0
 1e8:	f7ff fffe 	bl	184 <main+0x184>
 1ec:	e006      	b.n	1fc <main+0x1fc>
 1ee:	4618      	mov	r0, r3
 1f0:	3501      	adds	r5, #1
 1f2:	f7ff fffe 	bl	0 <getc>
 1f6:	1c44      	adds	r4, r0, #1
 1f8:	f000 817f 	beq.w	4fa <main+0x4fa>
 1fc:	68b3      	ldr	r3, [r6, #8]
 1fe:	28ff      	cmp	r0, #255	; 0xff
 200:	d1f5      	bne.n	1ee <main+0x1ee>
 202:	68b8      	ldr	r0, [r7, #8]
 204:	f7ff fffe 	bl	0 <getc>
 208:	4604      	mov	r4, r0
 20a:	1c60      	adds	r0, r4, #1
 20c:	f000 8175 	beq.w	4fa <main+0x4fa>
 210:	2cff      	cmp	r4, #255	; 0xff
 212:	d0f6      	beq.n	202 <main+0x202>
 214:	2d00      	cmp	r5, #0
 216:	f040 812b 	bne.w	470 <main+0x470>
 21a:	2cda      	cmp	r4, #218	; 0xda
 21c:	dc46      	bgt.n	2ac <main+0x2ac>
 21e:	2cbf      	cmp	r4, #191	; 0xbf
 220:	dc64      	bgt.n	2ec <main+0x2ec>
 222:	4620      	mov	r0, r4
 224:	f7ff fffe 	bl	130 <main+0x130>
 228:	f7ff fffe 	bl	1a0 <main+0x1a0>
 22c:	e7db      	b.n	1e6 <main+0x1e6>
 22e:	9b04      	ldr	r3, [sp, #16]
 230:	f10a 0a01 	add.w	sl, sl, #1
 234:	4553      	cmp	r3, sl
 236:	dd85      	ble.n	144 <main+0x144>
 238:	9c07      	ldr	r4, [sp, #28]
 23a:	9b06      	ldr	r3, [sp, #24]
 23c:	3404      	adds	r4, #4
 23e:	591b      	ldr	r3, [r3, r4]
 240:	930a      	str	r3, [sp, #40]	; 0x28
 242:	781b      	ldrb	r3, [r3, #0]
 244:	2b22      	cmp	r3, #34	; 0x22
 246:	d06d      	beq.n	324 <main+0x324>
 248:	980a      	ldr	r0, [sp, #40]	; 0x28
 24a:	f7ff fffe 	bl	0 <strlen>
 24e:	900d      	str	r0, [sp, #52]	; 0x34
 250:	e786      	b.n	160 <main+0x160>
 252:	f8dd 8014 	ldr.w	r8, [sp, #20]
 256:	2e02      	cmp	r6, #2
 258:	d023      	beq.n	2a2 <main+0x2a2>
 25a:	9b04      	ldr	r3, [sp, #16]
 25c:	f10a 0a01 	add.w	sl, sl, #1
 260:	4553      	cmp	r3, sl
 262:	f77f af6f 	ble.w	144 <main+0x144>
 266:	9b07      	ldr	r3, [sp, #28]
 268:	9a06      	ldr	r2, [sp, #24]
 26a:	3304      	adds	r3, #4
 26c:	49b3      	ldr	r1, [pc, #716]	; (53c <main+0x53c>)
 26e:	18d4      	adds	r4, r2, r3
 270:	4479      	add	r1, pc
 272:	58d0      	ldr	r0, [r2, r3]
 274:	f7ff fffe 	bl	0 <fopen>
 278:	900c      	str	r0, [sp, #48]	; 0x30
 27a:	2800      	cmp	r0, #0
 27c:	f47f af70 	bne.w	160 <main+0x160>
 280:	4baf      	ldr	r3, [pc, #700]	; (540 <main+0x540>)
 282:	49b0      	ldr	r1, [pc, #704]	; (544 <main+0x544>)
 284:	980e      	ldr	r0, [sp, #56]	; 0x38
 286:	447b      	add	r3, pc
 288:	4aaf      	ldr	r2, [pc, #700]	; (548 <main+0x548>)
 28a:	6824      	ldr	r4, [r4, #0]
 28c:	5840      	ldr	r0, [r0, r1]
 28e:	447a      	add	r2, pc
 290:	681b      	ldr	r3, [r3, #0]
 292:	9400      	str	r4, [sp, #0]
 294:	2101      	movs	r1, #1
 296:	6800      	ldr	r0, [r0, #0]
 298:	f7ff fffe 	bl	0 <__fprintf_chk>
 29c:	2001      	movs	r0, #1
 29e:	f7ff fffe 	bl	0 <exit>
 2a2:	f7ff fffe 	bl	0 <__ctype_b_loc>
 2a6:	f8d0 b000 	ldr.w	fp, [r0]
 2aa:	e72e      	b.n	10a <main+0x10a>
 2ac:	2cfe      	cmp	r4, #254	; 0xfe
 2ae:	d1b8      	bne.n	222 <main+0x222>
 2b0:	9b0b      	ldr	r3, [sp, #44]	; 0x2c
 2b2:	2b00      	cmp	r3, #0
 2b4:	d1b5      	bne.n	222 <main+0x222>
 2b6:	4ca5      	ldr	r4, [pc, #660]	; (54c <main+0x54c>)
 2b8:	447c      	add	r4, pc
 2ba:	68a0      	ldr	r0, [r4, #8]
 2bc:	f7ff fffe 	bl	0 <getc>
 2c0:	4605      	mov	r5, r0
 2c2:	1c41      	adds	r1, r0, #1
 2c4:	f000 810d 	beq.w	4e2 <main+0x4e2>
 2c8:	68a0      	ldr	r0, [r4, #8]
 2ca:	f7ff fffe 	bl	0 <getc>
 2ce:	1c42      	adds	r2, r0, #1
 2d0:	f000 8105 	beq.w	4de <main+0x4de>
 2d4:	eb00 2405 	add.w	r4, r0, r5, lsl #8
 2d8:	2c01      	cmp	r4, #1
 2da:	f240 80fa 	bls.w	4d2 <main+0x4d2>
 2de:	3c02      	subs	r4, #2
 2e0:	d081      	beq.n	1e6 <main+0x1e6>
 2e2:	f7ff fffe 	bl	184 <main+0x184>
 2e6:	3c01      	subs	r4, #1
 2e8:	d1fb      	bne.n	2e2 <main+0x2e2>
 2ea:	e77c      	b.n	1e6 <main+0x1e6>
 2ec:	f1a4 03c0 	sub.w	r3, r4, #192	; 0xc0
 2f0:	2501      	movs	r5, #1
 2f2:	fa05 f303 	lsl.w	r3, r5, r3
 2f6:	ea13 0f08 	tst.w	r3, r8
 2fa:	d04e      	beq.n	39a <main+0x39a>
 2fc:	9b0d      	ldr	r3, [sp, #52]	; 0x34
 2fe:	2b00      	cmp	r3, #0
 300:	d176      	bne.n	3f0 <main+0x3f0>
 302:	4620      	mov	r0, r4
 304:	4c92      	ldr	r4, [pc, #584]	; (550 <main+0x550>)
 306:	447c      	add	r4, pc
 308:	f7ff fffe 	bl	130 <main+0x130>
 30c:	e002      	b.n	314 <main+0x314>
 30e:	6861      	ldr	r1, [r4, #4]
 310:	f7ff fffe 	bl	0 <putc>
 314:	68a0      	ldr	r0, [r4, #8]
 316:	f7ff fffe 	bl	0 <getc>
 31a:	1c43      	adds	r3, r0, #1
 31c:	d1f7      	bne.n	30e <main+0x30e>
 31e:	2000      	movs	r0, #0
 320:	f7ff fffe 	bl	0 <exit>
 324:	f64f 50e8 	movw	r0, #65000	; 0xfde8
 328:	f7ff fffe 	bl	0 <malloc>
 32c:	900a      	str	r0, [sp, #40]	; 0x28
 32e:	2800      	cmp	r0, #0
 330:	f000 80c9 	beq.w	4c6 <main+0x4c6>
 334:	9d06      	ldr	r5, [sp, #24]
 336:	5929      	ldr	r1, [r5, r4]
 338:	3101      	adds	r1, #1
 33a:	f7ff fffe 	bl	0 <strcpy>
 33e:	9b08      	ldr	r3, [sp, #32]
 340:	9e04      	ldr	r6, [sp, #16]
 342:	f103 4480 	add.w	r4, r3, #1073741824	; 0x40000000
 346:	9f0f      	ldr	r7, [sp, #60]	; 0x3c
 348:	3401      	adds	r4, #1
 34a:	eb05 0484 	add.w	r4, r5, r4, lsl #2
 34e:	9d0a      	ldr	r5, [sp, #40]	; 0x28
 350:	e007      	b.n	362 <main+0x362>
 352:	883b      	ldrh	r3, [r7, #0]
 354:	522b      	strh	r3, [r5, r0]
 356:	3001      	adds	r0, #1
 358:	4428      	add	r0, r5
 35a:	f854 1f04 	ldr.w	r1, [r4, #4]!
 35e:	f7ff fffe 	bl	0 <strcpy>
 362:	4628      	mov	r0, r5
 364:	f7ff fffe 	bl	0 <strlen>
 368:	b128      	cbz	r0, 376 <main+0x376>
 36a:	1e43      	subs	r3, r0, #1
 36c:	18ea      	adds	r2, r5, r3
 36e:	5ceb      	ldrb	r3, [r5, r3]
 370:	2b22      	cmp	r3, #34	; 0x22
 372:	f000 8095 	beq.w	4a0 <main+0x4a0>
 376:	f10a 0a01 	add.w	sl, sl, #1
 37a:	4556      	cmp	r6, sl
 37c:	d1e9      	bne.n	352 <main+0x352>
 37e:	4b75      	ldr	r3, [pc, #468]	; (554 <main+0x554>)
 380:	4a75      	ldr	r2, [pc, #468]	; (558 <main+0x558>)
 382:	4870      	ldr	r0, [pc, #448]	; (544 <main+0x544>)
 384:	447b      	add	r3, pc
 386:	447a      	add	r2, pc
 388:	9c0e      	ldr	r4, [sp, #56]	; 0x38
 38a:	2101      	movs	r1, #1
 38c:	5820      	ldr	r0, [r4, r0]
 38e:	6800      	ldr	r0, [r0, #0]
 390:	f7ff fffe 	bl	0 <__fprintf_chk>
 394:	2001      	movs	r0, #1
 396:	f7ff fffe 	bl	0 <exit>
 39a:	2cda      	cmp	r4, #218	; 0xda
 39c:	f47f af41 	bne.w	222 <main+0x222>
 3a0:	4968      	ldr	r1, [pc, #416]	; (544 <main+0x544>)
 3a2:	980e      	ldr	r0, [sp, #56]	; 0x38
 3a4:	4b6d      	ldr	r3, [pc, #436]	; (55c <main+0x55c>)
 3a6:	4a6e      	ldr	r2, [pc, #440]	; (560 <main+0x560>)
 3a8:	5841      	ldr	r1, [r0, r1]
 3aa:	447b      	add	r3, pc
 3ac:	447a      	add	r2, pc
 3ae:	6808      	ldr	r0, [r1, #0]
 3b0:	4629      	mov	r1, r5
 3b2:	f7ff fffe 	bl	0 <__fprintf_chk>
 3b6:	4628      	mov	r0, r5
 3b8:	f7ff fffe 	bl	0 <exit>
 3bc:	4553      	cmp	r3, sl
 3be:	f77f aec1 	ble.w	144 <main+0x144>
 3c2:	9b06      	ldr	r3, [sp, #24]
 3c4:	4967      	ldr	r1, [pc, #412]	; (564 <main+0x564>)
 3c6:	f853 002a 	ldr.w	r0, [r3, sl, lsl #2]
 3ca:	4479      	add	r1, pc
 3cc:	f7ff fffe 	bl	0 <fopen>
 3d0:	4b65      	ldr	r3, [pc, #404]	; (568 <main+0x568>)
 3d2:	447b      	add	r3, pc
 3d4:	6098      	str	r0, [r3, #8]
 3d6:	2800      	cmp	r0, #0
 3d8:	f47f aedd 	bne.w	196 <main+0x196>
 3dc:	9a06      	ldr	r2, [sp, #24]
 3de:	4959      	ldr	r1, [pc, #356]	; (544 <main+0x544>)
 3e0:	980e      	ldr	r0, [sp, #56]	; 0x38
 3e2:	f852 402a 	ldr.w	r4, [r2, sl, lsl #2]
 3e6:	4a61      	ldr	r2, [pc, #388]	; (56c <main+0x56c>)
 3e8:	681b      	ldr	r3, [r3, #0]
 3ea:	5840      	ldr	r0, [r0, r1]
 3ec:	447a      	add	r2, pc
 3ee:	e750      	b.n	292 <main+0x292>
 3f0:	4e5f      	ldr	r6, [pc, #380]	; (570 <main+0x570>)
 3f2:	20fe      	movs	r0, #254	; 0xfe
 3f4:	9d0d      	ldr	r5, [sp, #52]	; 0x34
 3f6:	f7ff fffe 	bl	130 <main+0x130>
 3fa:	447e      	add	r6, pc
 3fc:	9b0a      	ldr	r3, [sp, #40]	; 0x28
 3fe:	1caf      	adds	r7, r5, #2
 400:	195d      	adds	r5, r3, r5
 402:	6871      	ldr	r1, [r6, #4]
 404:	f3c7 2007 	ubfx	r0, r7, #8, #8
 408:	f7ff fffe 	bl	0 <putc>
 40c:	b2f8      	uxtb	r0, r7
 40e:	6871      	ldr	r1, [r6, #4]
 410:	f7ff fffe 	bl	0 <putc>
 414:	9f0a      	ldr	r7, [sp, #40]	; 0x28
 416:	f817 0b01 	ldrb.w	r0, [r7], #1
 41a:	6871      	ldr	r1, [r6, #4]
 41c:	f7ff fffe 	bl	0 <putc>
 420:	42af      	cmp	r7, r5
 422:	d1f8      	bne.n	416 <main+0x416>
 424:	e76d      	b.n	302 <main+0x302>
 426:	f64f 50e8 	movw	r0, #65000	; 0xfde8
 42a:	f7ff fffe 	bl	0 <malloc>
 42e:	900a      	str	r0, [sp, #40]	; 0x28
 430:	2800      	cmp	r0, #0
 432:	d03d      	beq.n	4b0 <main+0x4b0>
 434:	9b0c      	ldr	r3, [sp, #48]	; 0x30
 436:	2b00      	cmp	r3, #0
 438:	d035      	beq.n	4a6 <main+0x4a6>
 43a:	9e0c      	ldr	r6, [sp, #48]	; 0x30
 43c:	9b0a      	ldr	r3, [sp, #40]	; 0x28
 43e:	f64f 55e8 	movw	r5, #65000	; 0xfde8
 442:	1e5c      	subs	r4, r3, #1
 444:	2300      	movs	r3, #0
 446:	461f      	mov	r7, r3
 448:	e004      	b.n	454 <main+0x454>
 44a:	42af      	cmp	r7, r5
 44c:	d036      	beq.n	4bc <main+0x4bc>
 44e:	3701      	adds	r7, #1
 450:	f804 0f01 	strb.w	r0, [r4, #1]!
 454:	4630      	mov	r0, r6
 456:	f7ff fffe 	bl	0 <getc>
 45a:	1c43      	adds	r3, r0, #1
 45c:	d1f5      	bne.n	44a <main+0x44a>
 45e:	9b0c      	ldr	r3, [sp, #48]	; 0x30
 460:	970d      	str	r7, [sp, #52]	; 0x34
 462:	2b00      	cmp	r3, #0
 464:	f43f aea7 	beq.w	1b6 <main+0x1b6>
 468:	4618      	mov	r0, r3
 46a:	f7ff fffe 	bl	0 <fclose>
 46e:	e6a2      	b.n	1b6 <main+0x1b6>
 470:	4b34      	ldr	r3, [pc, #208]	; (544 <main+0x544>)
 472:	2101      	movs	r1, #1
 474:	9a0e      	ldr	r2, [sp, #56]	; 0x38
 476:	483f      	ldr	r0, [pc, #252]	; (574 <main+0x574>)
 478:	58d3      	ldr	r3, [r2, r3]
 47a:	4478      	add	r0, pc
 47c:	2229      	movs	r2, #41	; 0x29
 47e:	681b      	ldr	r3, [r3, #0]
 480:	f7ff fffe 	bl	0 <fwrite>
 484:	e6c9      	b.n	21a <main+0x21a>
 486:	482f      	ldr	r0, [pc, #188]	; (544 <main+0x544>)
 488:	2101      	movs	r1, #1
 48a:	9c0e      	ldr	r4, [sp, #56]	; 0x38
 48c:	4b3a      	ldr	r3, [pc, #232]	; (578 <main+0x578>)
 48e:	4a3b      	ldr	r2, [pc, #236]	; (57c <main+0x57c>)
 490:	5820      	ldr	r0, [r4, r0]
 492:	447b      	add	r3, pc
 494:	447a      	add	r2, pc
 496:	681b      	ldr	r3, [r3, #0]
 498:	6800      	ldr	r0, [r0, #0]
 49a:	f7ff fffe 	bl	0 <__fprintf_chk>
 49e:	e651      	b.n	144 <main+0x144>
 4a0:	2300      	movs	r3, #0
 4a2:	7013      	strb	r3, [r2, #0]
 4a4:	e6d0      	b.n	248 <main+0x248>
 4a6:	4b1f      	ldr	r3, [pc, #124]	; (524 <main+0x524>)
 4a8:	9a0e      	ldr	r2, [sp, #56]	; 0x38
 4aa:	58d3      	ldr	r3, [r2, r3]
 4ac:	681e      	ldr	r6, [r3, #0]
 4ae:	e7c5      	b.n	43c <main+0x43c>
 4b0:	4b33      	ldr	r3, [pc, #204]	; (580 <main+0x580>)
 4b2:	4a34      	ldr	r2, [pc, #208]	; (584 <main+0x584>)
 4b4:	4823      	ldr	r0, [pc, #140]	; (544 <main+0x544>)
 4b6:	447b      	add	r3, pc
 4b8:	447a      	add	r2, pc
 4ba:	e765      	b.n	388 <main+0x388>
 4bc:	4a32      	ldr	r2, [pc, #200]	; (588 <main+0x588>)
 4be:	463b      	mov	r3, r7
 4c0:	4820      	ldr	r0, [pc, #128]	; (544 <main+0x544>)
 4c2:	447a      	add	r2, pc
 4c4:	e760      	b.n	388 <main+0x388>
 4c6:	4b31      	ldr	r3, [pc, #196]	; (58c <main+0x58c>)
 4c8:	4a31      	ldr	r2, [pc, #196]	; (590 <main+0x590>)
 4ca:	481e      	ldr	r0, [pc, #120]	; (544 <main+0x544>)
 4cc:	447b      	add	r3, pc
 4ce:	447a      	add	r2, pc
 4d0:	e75a      	b.n	388 <main+0x388>
 4d2:	4b30      	ldr	r3, [pc, #192]	; (594 <main+0x594>)
 4d4:	4a30      	ldr	r2, [pc, #192]	; (598 <main+0x598>)
 4d6:	481b      	ldr	r0, [pc, #108]	; (544 <main+0x544>)
 4d8:	447b      	add	r3, pc
 4da:	447a      	add	r2, pc
 4dc:	e754      	b.n	388 <main+0x388>
 4de:	f7ff fffe 	bl	150 <main+0x150>
 4e2:	4b2e      	ldr	r3, [pc, #184]	; (59c <main+0x59c>)
 4e4:	4a2e      	ldr	r2, [pc, #184]	; (5a0 <main+0x5a0>)
 4e6:	4817      	ldr	r0, [pc, #92]	; (544 <main+0x544>)
 4e8:	447b      	add	r3, pc
 4ea:	447a      	add	r2, pc
 4ec:	e74c      	b.n	388 <main+0x388>
 4ee:	4b2d      	ldr	r3, [pc, #180]	; (5a4 <main+0x5a4>)
 4f0:	4a2d      	ldr	r2, [pc, #180]	; (5a8 <main+0x5a8>)
 4f2:	4814      	ldr	r0, [pc, #80]	; (544 <main+0x544>)
 4f4:	447b      	add	r3, pc
 4f6:	447a      	add	r2, pc
 4f8:	e746      	b.n	388 <main+0x388>
 4fa:	f7ff fffe 	bl	150 <main+0x150>
 4fe:	bf00      	nop
 500:	000004ee 	.word	0x000004ee
 504:	000004f0 	.word	0x000004f0
 508:	000004c8 	.word	0x000004c8
 50c:	000004c0 	.word	0x000004c0
 510:	0000044a 	.word	0x0000044a
 514:	000003fc 	.word	0x000003fc
 518:	000003c8 	.word	0x000003c8
 51c:	000003ca 	.word	0x000003ca
 520:	000003c2 	.word	0x000003c2
 524:	00000000 	.word	0x00000000
 528:	00000392 	.word	0x00000392
 52c:	00000000 	.word	0x00000000
 530:	00000382 	.word	0x00000382
 534:	00000378 	.word	0x00000378
 538:	00000354 	.word	0x00000354
 53c:	000002c8 	.word	0x000002c8
 540:	000002b6 	.word	0x000002b6
 544:	00000000 	.word	0x00000000
 548:	000002b6 	.word	0x000002b6
 54c:	00000290 	.word	0x00000290
 550:	00000246 	.word	0x00000246
 554:	000001cc 	.word	0x000001cc
 558:	000001ce 	.word	0x000001ce
 55c:	000001ae 	.word	0x000001ae
 560:	000001b0 	.word	0x000001b0
 564:	00000196 	.word	0x00000196
 568:	00000192 	.word	0x00000192
 56c:	0000017c 	.word	0x0000017c
 570:	00000172 	.word	0x00000172
 574:	000000f6 	.word	0x000000f6
 578:	000000e2 	.word	0x000000e2
 57c:	000000e4 	.word	0x000000e4
 580:	000000c6 	.word	0x000000c6
 584:	000000c8 	.word	0x000000c8
 588:	000000c2 	.word	0x000000c2
 58c:	000000bc 	.word	0x000000bc
 590:	000000be 	.word	0x000000be
 594:	000000b8 	.word	0x000000b8
 598:	000000ba 	.word	0x000000ba
 59c:	000000b0 	.word	0x000000b0
 5a0:	000000b2 	.word	0x000000b2
 5a4:	000000ac 	.word	0x000000ac
 5a8:	000000ae 	.word	0x000000ae
