
/root/projects/compiled/non_crypto/unstripped/lz4_lz4.git_round_trip_fuzzer_f8c743f7.o:     file format elf32-littlearm


Disassembly of section .text:

00000000 <LLVMFuzzerTestOneInput>:
   0:	e92d 4ff0 	stmdb	sp!, {r4, r5, r6, r7, r8, r9, sl, fp, lr}
   4:	4607      	mov	r7, r0
   6:	f8df 45d4 	ldr.w	r4, [pc, #1492]	; 5dc <LLVMFuzzerTestOneInput+0x5dc>
   a:	ed2d 8b02 	vpush	{d8}
   e:	b08b      	sub	sp, #44	; 0x2c
  10:	447c      	add	r4, pc
  12:	9409      	str	r4, [sp, #36]	; 0x24
  14:	f7ff fffe 	bl	0 <FUZZ_dataProducer_create>
  18:	4604      	mov	r4, r0
  1a:	ee08 0a10 	vmov	s16, r0
  1e:	f7ff fffe 	bl	0 <FUZZ_dataProducer_retrieve32>
  22:	4605      	mov	r5, r0
  24:	4620      	mov	r0, r4
  26:	f7ff fffe 	bl	0 <FUZZ_dataProducer_remainingBytes>
  2a:	4604      	mov	r4, r0
  2c:	2100      	movs	r1, #0
  2e:	4628      	mov	r0, r5
  30:	4622      	mov	r2, r4
  32:	f64f 75ff 	movw	r5, #65535	; 0xffff
  36:	f7ff fffe 	bl	0 <FUZZ_getRange_from_uint32>
  3a:	4606      	mov	r6, r0
  3c:	4620      	mov	r0, r4
  3e:	f7ff fffe 	bl	0 <LZ4_compressBound>
  42:	4680      	mov	r8, r0
  44:	4428      	add	r0, r5
  46:	f7ff fffe 	bl	0 <malloc>
  4a:	2800      	cmp	r0, #0
  4c:	f000 811b 	beq.w	286 <LLVMFuzzerTestOneInput+0x286>
  50:	4681      	mov	r9, r0
  52:	4628      	mov	r0, r5
  54:	f7ff fffe 	bl	0 <malloc>
  58:	f64f 33ff 	movw	r3, #64511	; 0xfbff
  5c:	9005      	str	r0, [sp, #20]
  5e:	eb09 0203 	add.w	r2, r9, r3
  62:	9206      	str	r2, [sp, #24]
  64:	2800      	cmp	r0, #0
  66:	f000 82ab 	beq.w	5c0 <LLVMFuzzerTestOneInput+0x5c0>
  6a:	18c3      	adds	r3, r0, r3
  6c:	4620      	mov	r0, r4
  6e:	9308      	str	r3, [sp, #32]
  70:	444d      	add	r5, r9
  72:	f7ff fffe 	bl	0 <malloc>
  76:	4682      	mov	sl, r0
  78:	2800      	cmp	r0, #0
  7a:	f000 8293 	beq.w	5a4 <LLVMFuzzerTestOneInput+0x5a4>
  7e:	4643      	mov	r3, r8
  80:	4622      	mov	r2, r4
  82:	4629      	mov	r1, r5
  84:	4638      	mov	r0, r7
  86:	f7ff fffe 	bl	0 <LZ4_compress_default>
  8a:	f1b0 0800 	subs.w	r8, r0, #0
  8e:	f340 827b 	ble.w	588 <LLVMFuzzerTestOneInput+0x588>
  92:	4642      	mov	r2, r8
  94:	4623      	mov	r3, r4
  96:	4651      	mov	r1, sl
  98:	4628      	mov	r0, r5
  9a:	f7ff fffe 	bl	0 <LZ4_decompress_safe>
  9e:	4602      	mov	r2, r0
  a0:	42a0      	cmp	r0, r4
  a2:	f040 8263 	bne.w	56c <LLVMFuzzerTestOneInput+0x56c>
  a6:	4651      	mov	r1, sl
  a8:	4638      	mov	r0, r7
  aa:	f7ff fffe 	bl	0 <memcmp>
  ae:	2800      	cmp	r0, #0
  b0:	f040 824e 	bne.w	550 <LLVMFuzzerTestOneInput+0x550>
  b4:	4630      	mov	r0, r6
  b6:	f7ff fffe 	bl	0 <malloc>
  ba:	4604      	mov	r4, r0
  bc:	2800      	cmp	r0, #0
  be:	f000 8239 	beq.w	534 <LLVMFuzzerTestOneInput+0x534>
  c2:	4601      	mov	r1, r0
  c4:	4633      	mov	r3, r6
  c6:	4642      	mov	r2, r8
  c8:	4628      	mov	r0, r5
  ca:	9600      	str	r6, [sp, #0]
  cc:	f7ff fffe 	bl	0 <LZ4_decompress_safe_partial>
  d0:	f1b0 0b00 	subs.w	fp, r0, #0
  d4:	f2c0 8220 	blt.w	518 <LLVMFuzzerTestOneInput+0x518>
  d8:	455e      	cmp	r6, fp
  da:	f040 820f 	bne.w	4fc <LLVMFuzzerTestOneInput+0x4fc>
  de:	4632      	mov	r2, r6
  e0:	4621      	mov	r1, r4
  e2:	4638      	mov	r0, r7
  e4:	f7ff fffe 	bl	0 <memcmp>
  e8:	2800      	cmp	r0, #0
  ea:	f040 81f9 	bne.w	4e0 <LLVMFuzzerTestOneInput+0x4e0>
  ee:	4620      	mov	r0, r4
  f0:	f7ff fffe 	bl	0 <free>
  f4:	4630      	mov	r0, r6
  f6:	f7ff fffe 	bl	0 <malloc>
  fa:	4601      	mov	r1, r0
  fc:	2800      	cmp	r0, #0
  fe:	f000 81e1 	beq.w	4c4 <LLVMFuzzerTestOneInput+0x4c4>
 102:	2200      	movs	r2, #0
 104:	9007      	str	r0, [sp, #28]
 106:	e9cd 2201 	strd	r2, r2, [sp, #4]
 10a:	465b      	mov	r3, fp
 10c:	4642      	mov	r2, r8
 10e:	4628      	mov	r0, r5
 110:	f8cd b000 	str.w	fp, [sp]
 114:	f7ff fffe 	bl	0 <LZ4_decompress_safe_partial_usingDict>
 118:	9907      	ldr	r1, [sp, #28]
 11a:	1e04      	subs	r4, r0, #0
 11c:	f2c0 81c4 	blt.w	4a8 <LLVMFuzzerTestOneInput+0x4a8>
 120:	45a3      	cmp	fp, r4
 122:	f040 81b3 	bne.w	48c <LLVMFuzzerTestOneInput+0x48c>
 126:	465a      	mov	r2, fp
 128:	4638      	mov	r0, r7
 12a:	9107      	str	r1, [sp, #28]
 12c:	f7ff fffe 	bl	0 <memcmp>
 130:	9907      	ldr	r1, [sp, #28]
 132:	2800      	cmp	r0, #0
 134:	f040 819c 	bne.w	470 <LLVMFuzzerTestOneInput+0x470>
 138:	4608      	mov	r0, r1
 13a:	f7ff fffe 	bl	0 <free>
 13e:	4630      	mov	r0, r6
 140:	f7ff fffe 	bl	0 <malloc>
 144:	4601      	mov	r1, r0
 146:	2800      	cmp	r0, #0
 148:	f000 8184 	beq.w	454 <LLVMFuzzerTestOneInput+0x454>
 14c:	9b06      	ldr	r3, [sp, #24]
 14e:	f44f 6280 	mov.w	r2, #1024	; 0x400
 152:	e9cd b300 	strd	fp, r3, [sp]
 156:	465b      	mov	r3, fp
 158:	9202      	str	r2, [sp, #8]
 15a:	4642      	mov	r2, r8
 15c:	9006      	str	r0, [sp, #24]
 15e:	4628      	mov	r0, r5
 160:	f7ff fffe 	bl	0 <LZ4_decompress_safe_partial_usingDict>
 164:	9906      	ldr	r1, [sp, #24]
 166:	2800      	cmp	r0, #0
 168:	f2c0 8166 	blt.w	438 <LLVMFuzzerTestOneInput+0x438>
 16c:	4583      	cmp	fp, r0
 16e:	f040 8155 	bne.w	41c <LLVMFuzzerTestOneInput+0x41c>
 172:	465a      	mov	r2, fp
 174:	4638      	mov	r0, r7
 176:	9106      	str	r1, [sp, #24]
 178:	f7ff fffe 	bl	0 <memcmp>
 17c:	9906      	ldr	r1, [sp, #24]
 17e:	2800      	cmp	r0, #0
 180:	f040 813e 	bne.w	400 <LLVMFuzzerTestOneInput+0x400>
 184:	4608      	mov	r0, r1
 186:	f7ff fffe 	bl	0 <free>
 18a:	4630      	mov	r0, r6
 18c:	f7ff fffe 	bl	0 <malloc>
 190:	4601      	mov	r1, r0
 192:	2800      	cmp	r0, #0
 194:	f000 8126 	beq.w	3e4 <LLVMFuzzerTestOneInput+0x3e4>
 198:	9006      	str	r0, [sp, #24]
 19a:	f64f 7cff 	movw	ip, #65535	; 0xffff
 19e:	4623      	mov	r3, r4
 1a0:	4642      	mov	r2, r8
 1a2:	4628      	mov	r0, r5
 1a4:	e9cd 4900 	strd	r4, r9, [sp]
 1a8:	f8cd c008 	str.w	ip, [sp, #8]
 1ac:	f7ff fffe 	bl	0 <LZ4_decompress_safe_partial_usingDict>
 1b0:	9906      	ldr	r1, [sp, #24]
 1b2:	2800      	cmp	r0, #0
 1b4:	f2c0 8108 	blt.w	3c8 <LLVMFuzzerTestOneInput+0x3c8>
 1b8:	4284      	cmp	r4, r0
 1ba:	f040 80f7 	bne.w	3ac <LLVMFuzzerTestOneInput+0x3ac>
 1be:	4622      	mov	r2, r4
 1c0:	4638      	mov	r0, r7
 1c2:	9106      	str	r1, [sp, #24]
 1c4:	f7ff fffe 	bl	0 <memcmp>
 1c8:	9906      	ldr	r1, [sp, #24]
 1ca:	2800      	cmp	r0, #0
 1cc:	f040 80e0 	bne.w	390 <LLVMFuzzerTestOneInput+0x390>
 1d0:	4608      	mov	r0, r1
 1d2:	f7ff fffe 	bl	0 <free>
 1d6:	4630      	mov	r0, r6
 1d8:	f7ff fffe 	bl	0 <malloc>
 1dc:	4601      	mov	r1, r0
 1de:	2800      	cmp	r0, #0
 1e0:	f000 80c8 	beq.w	374 <LLVMFuzzerTestOneInput+0x374>
 1e4:	9b08      	ldr	r3, [sp, #32]
 1e6:	4642      	mov	r2, r8
 1e8:	e9cd 4300 	strd	r4, r3, [sp]
 1ec:	f44f 6380 	mov.w	r3, #1024	; 0x400
 1f0:	9006      	str	r0, [sp, #24]
 1f2:	4628      	mov	r0, r5
 1f4:	9302      	str	r3, [sp, #8]
 1f6:	4623      	mov	r3, r4
 1f8:	f7ff fffe 	bl	0 <LZ4_decompress_safe_partial_usingDict>
 1fc:	9906      	ldr	r1, [sp, #24]
 1fe:	2800      	cmp	r0, #0
 200:	f2c0 80aa 	blt.w	358 <LLVMFuzzerTestOneInput+0x358>
 204:	4284      	cmp	r4, r0
 206:	f040 8099 	bne.w	33c <LLVMFuzzerTestOneInput+0x33c>
 20a:	4622      	mov	r2, r4
 20c:	4638      	mov	r0, r7
 20e:	9106      	str	r1, [sp, #24]
 210:	f7ff fffe 	bl	0 <memcmp>
 214:	9906      	ldr	r1, [sp, #24]
 216:	2800      	cmp	r0, #0
 218:	f040 8082 	bne.w	320 <LLVMFuzzerTestOneInput+0x320>
 21c:	4608      	mov	r0, r1
 21e:	f7ff fffe 	bl	0 <free>
 222:	4630      	mov	r0, r6
 224:	f7ff fffe 	bl	0 <malloc>
 228:	4606      	mov	r6, r0
 22a:	2800      	cmp	r0, #0
 22c:	d06a      	beq.n	304 <LLVMFuzzerTestOneInput+0x304>
 22e:	9b05      	ldr	r3, [sp, #20]
 230:	4628      	mov	r0, r5
 232:	e9cd 4300 	strd	r4, r3, [sp]
 236:	4642      	mov	r2, r8
 238:	4623      	mov	r3, r4
 23a:	4631      	mov	r1, r6
 23c:	f64f 75ff 	movw	r5, #65535	; 0xffff
 240:	9502      	str	r5, [sp, #8]
 242:	f7ff fffe 	bl	0 <LZ4_decompress_safe_partial_usingDict>
 246:	2800      	cmp	r0, #0
 248:	db4e      	blt.n	2e8 <LLVMFuzzerTestOneInput+0x2e8>
 24a:	4284      	cmp	r4, r0
 24c:	d13e      	bne.n	2cc <LLVMFuzzerTestOneInput+0x2cc>
 24e:	4622      	mov	r2, r4
 250:	4638      	mov	r0, r7
 252:	4631      	mov	r1, r6
 254:	f7ff fffe 	bl	0 <memcmp>
 258:	bb50      	cbnz	r0, 2b0 <LLVMFuzzerTestOneInput+0x2b0>
 25a:	4630      	mov	r0, r6
 25c:	f7ff fffe 	bl	0 <free>
 260:	4648      	mov	r0, r9
 262:	f7ff fffe 	bl	0 <free>
 266:	9805      	ldr	r0, [sp, #20]
 268:	f7ff fffe 	bl	0 <free>
 26c:	4650      	mov	r0, sl
 26e:	f7ff fffe 	bl	0 <free>
 272:	ee18 0a10 	vmov	r0, s16
 276:	f7ff fffe 	bl	0 <FUZZ_dataProducer_free>
 27a:	2000      	movs	r0, #0
 27c:	b00b      	add	sp, #44	; 0x2c
 27e:	ecbd 8b02 	vpop	{d8}
 282:	e8bd 8ff0 	ldmia.w	sp!, {r4, r5, r6, r7, r8, r9, sl, fp, pc}
 286:	48d6      	ldr	r0, [pc, #856]	; (5e0 <LLVMFuzzerTestOneInput+0x5e0>)
 288:	241a      	movs	r4, #26
 28a:	9d09      	ldr	r5, [sp, #36]	; 0x24
 28c:	4ad5      	ldr	r2, [pc, #852]	; (5e4 <LLVMFuzzerTestOneInput+0x5e4>)
 28e:	49d6      	ldr	r1, [pc, #856]	; (5e8 <LLVMFuzzerTestOneInput+0x5e8>)
 290:	447a      	add	r2, pc
 292:	4bd6      	ldr	r3, [pc, #856]	; (5ec <LLVMFuzzerTestOneInput+0x5ec>)
 294:	5828      	ldr	r0, [r5, r0]
 296:	4479      	add	r1, pc
 298:	9202      	str	r2, [sp, #8]
 29a:	447b      	add	r3, pc
 29c:	4ad4      	ldr	r2, [pc, #848]	; (5f0 <LLVMFuzzerTestOneInput+0x5f0>)
 29e:	447a      	add	r2, pc
 2a0:	e9cd 4100 	strd	r4, r1, [sp]
 2a4:	2101      	movs	r1, #1
 2a6:	6800      	ldr	r0, [r0, #0]
 2a8:	f7ff fffe 	bl	0 <__fprintf_chk>
 2ac:	f7ff fffe 	bl	0 <abort>
 2b0:	48cb      	ldr	r0, [pc, #812]	; (5e0 <LLVMFuzzerTestOneInput+0x5e0>)
 2b2:	246b      	movs	r4, #107	; 0x6b
 2b4:	9d09      	ldr	r5, [sp, #36]	; 0x24
 2b6:	4acf      	ldr	r2, [pc, #828]	; (5f4 <LLVMFuzzerTestOneInput+0x5f4>)
 2b8:	49cf      	ldr	r1, [pc, #828]	; (5f8 <LLVMFuzzerTestOneInput+0x5f8>)
 2ba:	447a      	add	r2, pc
 2bc:	4bcf      	ldr	r3, [pc, #828]	; (5fc <LLVMFuzzerTestOneInput+0x5fc>)
 2be:	5828      	ldr	r0, [r5, r0]
 2c0:	4479      	add	r1, pc
 2c2:	9202      	str	r2, [sp, #8]
 2c4:	447b      	add	r3, pc
 2c6:	4ace      	ldr	r2, [pc, #824]	; (600 <LLVMFuzzerTestOneInput+0x600>)
 2c8:	447a      	add	r2, pc
 2ca:	e7e9      	b.n	2a0 <LLVMFuzzerTestOneInput+0x2a0>
 2cc:	48c4      	ldr	r0, [pc, #784]	; (5e0 <LLVMFuzzerTestOneInput+0x5e0>)
 2ce:	246a      	movs	r4, #106	; 0x6a
 2d0:	9d09      	ldr	r5, [sp, #36]	; 0x24
 2d2:	4acc      	ldr	r2, [pc, #816]	; (604 <LLVMFuzzerTestOneInput+0x604>)
 2d4:	49cc      	ldr	r1, [pc, #816]	; (608 <LLVMFuzzerTestOneInput+0x608>)
 2d6:	447a      	add	r2, pc
 2d8:	4bcc      	ldr	r3, [pc, #816]	; (60c <LLVMFuzzerTestOneInput+0x60c>)
 2da:	5828      	ldr	r0, [r5, r0]
 2dc:	4479      	add	r1, pc
 2de:	9202      	str	r2, [sp, #8]
 2e0:	447b      	add	r3, pc
 2e2:	4acb      	ldr	r2, [pc, #812]	; (610 <LLVMFuzzerTestOneInput+0x610>)
 2e4:	447a      	add	r2, pc
 2e6:	e7db      	b.n	2a0 <LLVMFuzzerTestOneInput+0x2a0>
 2e8:	48bd      	ldr	r0, [pc, #756]	; (5e0 <LLVMFuzzerTestOneInput+0x5e0>)
 2ea:	2469      	movs	r4, #105	; 0x69
 2ec:	9d09      	ldr	r5, [sp, #36]	; 0x24
 2ee:	4ac9      	ldr	r2, [pc, #804]	; (614 <LLVMFuzzerTestOneInput+0x614>)
 2f0:	49c9      	ldr	r1, [pc, #804]	; (618 <LLVMFuzzerTestOneInput+0x618>)
 2f2:	447a      	add	r2, pc
 2f4:	4bc9      	ldr	r3, [pc, #804]	; (61c <LLVMFuzzerTestOneInput+0x61c>)
 2f6:	5828      	ldr	r0, [r5, r0]
 2f8:	4479      	add	r1, pc
 2fa:	9202      	str	r2, [sp, #8]
 2fc:	447b      	add	r3, pc
 2fe:	4ac8      	ldr	r2, [pc, #800]	; (620 <LLVMFuzzerTestOneInput+0x620>)
 300:	447a      	add	r2, pc
 302:	e7cd      	b.n	2a0 <LLVMFuzzerTestOneInput+0x2a0>
 304:	48b6      	ldr	r0, [pc, #728]	; (5e0 <LLVMFuzzerTestOneInput+0x5e0>)
 306:	2466      	movs	r4, #102	; 0x66
 308:	9d09      	ldr	r5, [sp, #36]	; 0x24
 30a:	4ac6      	ldr	r2, [pc, #792]	; (624 <LLVMFuzzerTestOneInput+0x624>)
 30c:	49c6      	ldr	r1, [pc, #792]	; (628 <LLVMFuzzerTestOneInput+0x628>)
 30e:	447a      	add	r2, pc
 310:	4bc6      	ldr	r3, [pc, #792]	; (62c <LLVMFuzzerTestOneInput+0x62c>)
 312:	5828      	ldr	r0, [r5, r0]
 314:	4479      	add	r1, pc
 316:	9202      	str	r2, [sp, #8]
 318:	447b      	add	r3, pc
 31a:	4ac5      	ldr	r2, [pc, #788]	; (630 <LLVMFuzzerTestOneInput+0x630>)
 31c:	447a      	add	r2, pc
 31e:	e7bf      	b.n	2a0 <LLVMFuzzerTestOneInput+0x2a0>
 320:	48af      	ldr	r0, [pc, #700]	; (5e0 <LLVMFuzzerTestOneInput+0x5e0>)
 322:	2460      	movs	r4, #96	; 0x60
 324:	9d09      	ldr	r5, [sp, #36]	; 0x24
 326:	4ac3      	ldr	r2, [pc, #780]	; (634 <LLVMFuzzerTestOneInput+0x634>)
 328:	49c3      	ldr	r1, [pc, #780]	; (638 <LLVMFuzzerTestOneInput+0x638>)
 32a:	447a      	add	r2, pc
 32c:	4bc3      	ldr	r3, [pc, #780]	; (63c <LLVMFuzzerTestOneInput+0x63c>)
 32e:	5828      	ldr	r0, [r5, r0]
 330:	4479      	add	r1, pc
 332:	9202      	str	r2, [sp, #8]
 334:	447b      	add	r3, pc
 336:	4ac2      	ldr	r2, [pc, #776]	; (640 <LLVMFuzzerTestOneInput+0x640>)
 338:	447a      	add	r2, pc
 33a:	e7b1      	b.n	2a0 <LLVMFuzzerTestOneInput+0x2a0>
 33c:	48a8      	ldr	r0, [pc, #672]	; (5e0 <LLVMFuzzerTestOneInput+0x5e0>)
 33e:	245f      	movs	r4, #95	; 0x5f
 340:	9d09      	ldr	r5, [sp, #36]	; 0x24
 342:	4ac0      	ldr	r2, [pc, #768]	; (644 <LLVMFuzzerTestOneInput+0x644>)
 344:	49c0      	ldr	r1, [pc, #768]	; (648 <LLVMFuzzerTestOneInput+0x648>)
 346:	447a      	add	r2, pc
 348:	4bc0      	ldr	r3, [pc, #768]	; (64c <LLVMFuzzerTestOneInput+0x64c>)
 34a:	5828      	ldr	r0, [r5, r0]
 34c:	4479      	add	r1, pc
 34e:	9202      	str	r2, [sp, #8]
 350:	447b      	add	r3, pc
 352:	4abf      	ldr	r2, [pc, #764]	; (650 <LLVMFuzzerTestOneInput+0x650>)
 354:	447a      	add	r2, pc
 356:	e7a3      	b.n	2a0 <LLVMFuzzerTestOneInput+0x2a0>
 358:	48a1      	ldr	r0, [pc, #644]	; (5e0 <LLVMFuzzerTestOneInput+0x5e0>)
 35a:	245e      	movs	r4, #94	; 0x5e
 35c:	9d09      	ldr	r5, [sp, #36]	; 0x24
 35e:	4abd      	ldr	r2, [pc, #756]	; (654 <LLVMFuzzerTestOneInput+0x654>)
 360:	49bd      	ldr	r1, [pc, #756]	; (658 <LLVMFuzzerTestOneInput+0x658>)
 362:	447a      	add	r2, pc
 364:	4bbd      	ldr	r3, [pc, #756]	; (65c <LLVMFuzzerTestOneInput+0x65c>)
 366:	5828      	ldr	r0, [r5, r0]
 368:	4479      	add	r1, pc
 36a:	9202      	str	r2, [sp, #8]
 36c:	447b      	add	r3, pc
 36e:	4abc      	ldr	r2, [pc, #752]	; (660 <LLVMFuzzerTestOneInput+0x660>)
 370:	447a      	add	r2, pc
 372:	e795      	b.n	2a0 <LLVMFuzzerTestOneInput+0x2a0>
 374:	489a      	ldr	r0, [pc, #616]	; (5e0 <LLVMFuzzerTestOneInput+0x5e0>)
 376:	245b      	movs	r4, #91	; 0x5b
 378:	9d09      	ldr	r5, [sp, #36]	; 0x24
 37a:	4aba      	ldr	r2, [pc, #744]	; (664 <LLVMFuzzerTestOneInput+0x664>)
 37c:	49ba      	ldr	r1, [pc, #744]	; (668 <LLVMFuzzerTestOneInput+0x668>)
 37e:	447a      	add	r2, pc
 380:	4bba      	ldr	r3, [pc, #744]	; (66c <LLVMFuzzerTestOneInput+0x66c>)
 382:	5828      	ldr	r0, [r5, r0]
 384:	4479      	add	r1, pc
 386:	9202      	str	r2, [sp, #8]
 388:	447b      	add	r3, pc
 38a:	4ab9      	ldr	r2, [pc, #740]	; (670 <LLVMFuzzerTestOneInput+0x670>)
 38c:	447a      	add	r2, pc
 38e:	e787      	b.n	2a0 <LLVMFuzzerTestOneInput+0x2a0>
 390:	4893      	ldr	r0, [pc, #588]	; (5e0 <LLVMFuzzerTestOneInput+0x5e0>)
 392:	2455      	movs	r4, #85	; 0x55
 394:	9d09      	ldr	r5, [sp, #36]	; 0x24
 396:	4ab7      	ldr	r2, [pc, #732]	; (674 <LLVMFuzzerTestOneInput+0x674>)
 398:	49b7      	ldr	r1, [pc, #732]	; (678 <LLVMFuzzerTestOneInput+0x678>)
 39a:	447a      	add	r2, pc
 39c:	4bb7      	ldr	r3, [pc, #732]	; (67c <LLVMFuzzerTestOneInput+0x67c>)
 39e:	5828      	ldr	r0, [r5, r0]
 3a0:	4479      	add	r1, pc
 3a2:	9202      	str	r2, [sp, #8]
 3a4:	447b      	add	r3, pc
 3a6:	4ab6      	ldr	r2, [pc, #728]	; (680 <LLVMFuzzerTestOneInput+0x680>)
 3a8:	447a      	add	r2, pc
 3aa:	e779      	b.n	2a0 <LLVMFuzzerTestOneInput+0x2a0>
 3ac:	488c      	ldr	r0, [pc, #560]	; (5e0 <LLVMFuzzerTestOneInput+0x5e0>)
 3ae:	2454      	movs	r4, #84	; 0x54
 3b0:	9d09      	ldr	r5, [sp, #36]	; 0x24
 3b2:	4ab4      	ldr	r2, [pc, #720]	; (684 <LLVMFuzzerTestOneInput+0x684>)
 3b4:	49b4      	ldr	r1, [pc, #720]	; (688 <LLVMFuzzerTestOneInput+0x688>)
 3b6:	447a      	add	r2, pc
 3b8:	4bb4      	ldr	r3, [pc, #720]	; (68c <LLVMFuzzerTestOneInput+0x68c>)
 3ba:	5828      	ldr	r0, [r5, r0]
 3bc:	4479      	add	r1, pc
 3be:	9202      	str	r2, [sp, #8]
 3c0:	447b      	add	r3, pc
 3c2:	4ab3      	ldr	r2, [pc, #716]	; (690 <LLVMFuzzerTestOneInput+0x690>)
 3c4:	447a      	add	r2, pc
 3c6:	e76b      	b.n	2a0 <LLVMFuzzerTestOneInput+0x2a0>
 3c8:	4885      	ldr	r0, [pc, #532]	; (5e0 <LLVMFuzzerTestOneInput+0x5e0>)
 3ca:	2453      	movs	r4, #83	; 0x53
 3cc:	9d09      	ldr	r5, [sp, #36]	; 0x24
 3ce:	4ab1      	ldr	r2, [pc, #708]	; (694 <LLVMFuzzerTestOneInput+0x694>)
 3d0:	49b1      	ldr	r1, [pc, #708]	; (698 <LLVMFuzzerTestOneInput+0x698>)
 3d2:	447a      	add	r2, pc
 3d4:	4bb1      	ldr	r3, [pc, #708]	; (69c <LLVMFuzzerTestOneInput+0x69c>)
 3d6:	5828      	ldr	r0, [r5, r0]
 3d8:	4479      	add	r1, pc
 3da:	9202      	str	r2, [sp, #8]
 3dc:	447b      	add	r3, pc
 3de:	4ab0      	ldr	r2, [pc, #704]	; (6a0 <LLVMFuzzerTestOneInput+0x6a0>)
 3e0:	447a      	add	r2, pc
 3e2:	e75d      	b.n	2a0 <LLVMFuzzerTestOneInput+0x2a0>
 3e4:	487e      	ldr	r0, [pc, #504]	; (5e0 <LLVMFuzzerTestOneInput+0x5e0>)
 3e6:	2450      	movs	r4, #80	; 0x50
 3e8:	9d09      	ldr	r5, [sp, #36]	; 0x24
 3ea:	4aae      	ldr	r2, [pc, #696]	; (6a4 <LLVMFuzzerTestOneInput+0x6a4>)
 3ec:	49ae      	ldr	r1, [pc, #696]	; (6a8 <LLVMFuzzerTestOneInput+0x6a8>)
 3ee:	447a      	add	r2, pc
 3f0:	4bae      	ldr	r3, [pc, #696]	; (6ac <LLVMFuzzerTestOneInput+0x6ac>)
 3f2:	5828      	ldr	r0, [r5, r0]
 3f4:	4479      	add	r1, pc
 3f6:	9202      	str	r2, [sp, #8]
 3f8:	447b      	add	r3, pc
 3fa:	4aad      	ldr	r2, [pc, #692]	; (6b0 <LLVMFuzzerTestOneInput+0x6b0>)
 3fc:	447a      	add	r2, pc
 3fe:	e74f      	b.n	2a0 <LLVMFuzzerTestOneInput+0x2a0>
 400:	4877      	ldr	r0, [pc, #476]	; (5e0 <LLVMFuzzerTestOneInput+0x5e0>)
 402:	244a      	movs	r4, #74	; 0x4a
 404:	9d09      	ldr	r5, [sp, #36]	; 0x24
 406:	4aab      	ldr	r2, [pc, #684]	; (6b4 <LLVMFuzzerTestOneInput+0x6b4>)
 408:	49ab      	ldr	r1, [pc, #684]	; (6b8 <LLVMFuzzerTestOneInput+0x6b8>)
 40a:	447a      	add	r2, pc
 40c:	4bab      	ldr	r3, [pc, #684]	; (6bc <LLVMFuzzerTestOneInput+0x6bc>)
 40e:	5828      	ldr	r0, [r5, r0]
 410:	4479      	add	r1, pc
 412:	9202      	str	r2, [sp, #8]
 414:	447b      	add	r3, pc
 416:	4aaa      	ldr	r2, [pc, #680]	; (6c0 <LLVMFuzzerTestOneInput+0x6c0>)
 418:	447a      	add	r2, pc
 41a:	e741      	b.n	2a0 <LLVMFuzzerTestOneInput+0x2a0>
 41c:	4870      	ldr	r0, [pc, #448]	; (5e0 <LLVMFuzzerTestOneInput+0x5e0>)
 41e:	2449      	movs	r4, #73	; 0x49
 420:	9d09      	ldr	r5, [sp, #36]	; 0x24
 422:	4aa8      	ldr	r2, [pc, #672]	; (6c4 <LLVMFuzzerTestOneInput+0x6c4>)
 424:	49a8      	ldr	r1, [pc, #672]	; (6c8 <LLVMFuzzerTestOneInput+0x6c8>)
 426:	447a      	add	r2, pc
 428:	4ba8      	ldr	r3, [pc, #672]	; (6cc <LLVMFuzzerTestOneInput+0x6cc>)
 42a:	5828      	ldr	r0, [r5, r0]
 42c:	4479      	add	r1, pc
 42e:	9202      	str	r2, [sp, #8]
 430:	447b      	add	r3, pc
 432:	4aa7      	ldr	r2, [pc, #668]	; (6d0 <LLVMFuzzerTestOneInput+0x6d0>)
 434:	447a      	add	r2, pc
 436:	e733      	b.n	2a0 <LLVMFuzzerTestOneInput+0x2a0>
 438:	4869      	ldr	r0, [pc, #420]	; (5e0 <LLVMFuzzerTestOneInput+0x5e0>)
 43a:	2448      	movs	r4, #72	; 0x48
 43c:	9d09      	ldr	r5, [sp, #36]	; 0x24
 43e:	4aa5      	ldr	r2, [pc, #660]	; (6d4 <LLVMFuzzerTestOneInput+0x6d4>)
 440:	49a5      	ldr	r1, [pc, #660]	; (6d8 <LLVMFuzzerTestOneInput+0x6d8>)
 442:	447a      	add	r2, pc
 444:	4ba5      	ldr	r3, [pc, #660]	; (6dc <LLVMFuzzerTestOneInput+0x6dc>)
 446:	5828      	ldr	r0, [r5, r0]
 448:	4479      	add	r1, pc
 44a:	9202      	str	r2, [sp, #8]
 44c:	447b      	add	r3, pc
 44e:	4aa4      	ldr	r2, [pc, #656]	; (6e0 <LLVMFuzzerTestOneInput+0x6e0>)
 450:	447a      	add	r2, pc
 452:	e725      	b.n	2a0 <LLVMFuzzerTestOneInput+0x2a0>
 454:	4862      	ldr	r0, [pc, #392]	; (5e0 <LLVMFuzzerTestOneInput+0x5e0>)
 456:	2445      	movs	r4, #69	; 0x45
 458:	9d09      	ldr	r5, [sp, #36]	; 0x24
 45a:	4aa2      	ldr	r2, [pc, #648]	; (6e4 <LLVMFuzzerTestOneInput+0x6e4>)
 45c:	49a2      	ldr	r1, [pc, #648]	; (6e8 <LLVMFuzzerTestOneInput+0x6e8>)
 45e:	447a      	add	r2, pc
 460:	4ba2      	ldr	r3, [pc, #648]	; (6ec <LLVMFuzzerTestOneInput+0x6ec>)
 462:	5828      	ldr	r0, [r5, r0]
 464:	4479      	add	r1, pc
 466:	9202      	str	r2, [sp, #8]
 468:	447b      	add	r3, pc
 46a:	4aa1      	ldr	r2, [pc, #644]	; (6f0 <LLVMFuzzerTestOneInput+0x6f0>)
 46c:	447a      	add	r2, pc
 46e:	e717      	b.n	2a0 <LLVMFuzzerTestOneInput+0x2a0>
 470:	485b      	ldr	r0, [pc, #364]	; (5e0 <LLVMFuzzerTestOneInput+0x5e0>)
 472:	243f      	movs	r4, #63	; 0x3f
 474:	9d09      	ldr	r5, [sp, #36]	; 0x24
 476:	4a9f      	ldr	r2, [pc, #636]	; (6f4 <LLVMFuzzerTestOneInput+0x6f4>)
 478:	499f      	ldr	r1, [pc, #636]	; (6f8 <LLVMFuzzerTestOneInput+0x6f8>)
 47a:	447a      	add	r2, pc
 47c:	4b9f      	ldr	r3, [pc, #636]	; (6fc <LLVMFuzzerTestOneInput+0x6fc>)
 47e:	5828      	ldr	r0, [r5, r0]
 480:	4479      	add	r1, pc
 482:	9202      	str	r2, [sp, #8]
 484:	447b      	add	r3, pc
 486:	4a9e      	ldr	r2, [pc, #632]	; (700 <LLVMFuzzerTestOneInput+0x700>)
 488:	447a      	add	r2, pc
 48a:	e709      	b.n	2a0 <LLVMFuzzerTestOneInput+0x2a0>
 48c:	4854      	ldr	r0, [pc, #336]	; (5e0 <LLVMFuzzerTestOneInput+0x5e0>)
 48e:	243e      	movs	r4, #62	; 0x3e
 490:	9d09      	ldr	r5, [sp, #36]	; 0x24
 492:	4a9c      	ldr	r2, [pc, #624]	; (704 <LLVMFuzzerTestOneInput+0x704>)
 494:	499c      	ldr	r1, [pc, #624]	; (708 <LLVMFuzzerTestOneInput+0x708>)
 496:	447a      	add	r2, pc
 498:	4b9c      	ldr	r3, [pc, #624]	; (70c <LLVMFuzzerTestOneInput+0x70c>)
 49a:	5828      	ldr	r0, [r5, r0]
 49c:	4479      	add	r1, pc
 49e:	9202      	str	r2, [sp, #8]
 4a0:	447b      	add	r3, pc
 4a2:	4a9b      	ldr	r2, [pc, #620]	; (710 <LLVMFuzzerTestOneInput+0x710>)
 4a4:	447a      	add	r2, pc
 4a6:	e6fb      	b.n	2a0 <LLVMFuzzerTestOneInput+0x2a0>
 4a8:	484d      	ldr	r0, [pc, #308]	; (5e0 <LLVMFuzzerTestOneInput+0x5e0>)
 4aa:	243d      	movs	r4, #61	; 0x3d
 4ac:	9d09      	ldr	r5, [sp, #36]	; 0x24
 4ae:	4a99      	ldr	r2, [pc, #612]	; (714 <LLVMFuzzerTestOneInput+0x714>)
 4b0:	4999      	ldr	r1, [pc, #612]	; (718 <LLVMFuzzerTestOneInput+0x718>)
 4b2:	447a      	add	r2, pc
 4b4:	4b99      	ldr	r3, [pc, #612]	; (71c <LLVMFuzzerTestOneInput+0x71c>)
 4b6:	5828      	ldr	r0, [r5, r0]
 4b8:	4479      	add	r1, pc
 4ba:	9202      	str	r2, [sp, #8]
 4bc:	447b      	add	r3, pc
 4be:	4a98      	ldr	r2, [pc, #608]	; (720 <LLVMFuzzerTestOneInput+0x720>)
 4c0:	447a      	add	r2, pc
 4c2:	e6ed      	b.n	2a0 <LLVMFuzzerTestOneInput+0x2a0>
 4c4:	4846      	ldr	r0, [pc, #280]	; (5e0 <LLVMFuzzerTestOneInput+0x5e0>)
 4c6:	243a      	movs	r4, #58	; 0x3a
 4c8:	9d09      	ldr	r5, [sp, #36]	; 0x24
 4ca:	4a96      	ldr	r2, [pc, #600]	; (724 <LLVMFuzzerTestOneInput+0x724>)
 4cc:	4996      	ldr	r1, [pc, #600]	; (728 <LLVMFuzzerTestOneInput+0x728>)
 4ce:	447a      	add	r2, pc
 4d0:	4b96      	ldr	r3, [pc, #600]	; (72c <LLVMFuzzerTestOneInput+0x72c>)
 4d2:	5828      	ldr	r0, [r5, r0]
 4d4:	4479      	add	r1, pc
 4d6:	9202      	str	r2, [sp, #8]
 4d8:	447b      	add	r3, pc
 4da:	4a95      	ldr	r2, [pc, #596]	; (730 <LLVMFuzzerTestOneInput+0x730>)
 4dc:	447a      	add	r2, pc
 4de:	e6df      	b.n	2a0 <LLVMFuzzerTestOneInput+0x2a0>
 4e0:	483f      	ldr	r0, [pc, #252]	; (5e0 <LLVMFuzzerTestOneInput+0x5e0>)
 4e2:	2434      	movs	r4, #52	; 0x34
 4e4:	9d09      	ldr	r5, [sp, #36]	; 0x24
 4e6:	4a93      	ldr	r2, [pc, #588]	; (734 <LLVMFuzzerTestOneInput+0x734>)
 4e8:	4993      	ldr	r1, [pc, #588]	; (738 <LLVMFuzzerTestOneInput+0x738>)
 4ea:	447a      	add	r2, pc
 4ec:	4b93      	ldr	r3, [pc, #588]	; (73c <LLVMFuzzerTestOneInput+0x73c>)
 4ee:	5828      	ldr	r0, [r5, r0]
 4f0:	4479      	add	r1, pc
 4f2:	9202      	str	r2, [sp, #8]
 4f4:	447b      	add	r3, pc
 4f6:	4a92      	ldr	r2, [pc, #584]	; (740 <LLVMFuzzerTestOneInput+0x740>)
 4f8:	447a      	add	r2, pc
 4fa:	e6d1      	b.n	2a0 <LLVMFuzzerTestOneInput+0x2a0>
 4fc:	4838      	ldr	r0, [pc, #224]	; (5e0 <LLVMFuzzerTestOneInput+0x5e0>)
 4fe:	2433      	movs	r4, #51	; 0x33
 500:	9d09      	ldr	r5, [sp, #36]	; 0x24
 502:	4a90      	ldr	r2, [pc, #576]	; (744 <LLVMFuzzerTestOneInput+0x744>)
 504:	4990      	ldr	r1, [pc, #576]	; (748 <LLVMFuzzerTestOneInput+0x748>)
 506:	447a      	add	r2, pc
 508:	4b90      	ldr	r3, [pc, #576]	; (74c <LLVMFuzzerTestOneInput+0x74c>)
 50a:	5828      	ldr	r0, [r5, r0]
 50c:	4479      	add	r1, pc
 50e:	9202      	str	r2, [sp, #8]
 510:	447b      	add	r3, pc
 512:	4a8f      	ldr	r2, [pc, #572]	; (750 <LLVMFuzzerTestOneInput+0x750>)
 514:	447a      	add	r2, pc
 516:	e6c3      	b.n	2a0 <LLVMFuzzerTestOneInput+0x2a0>
 518:	4831      	ldr	r0, [pc, #196]	; (5e0 <LLVMFuzzerTestOneInput+0x5e0>)
 51a:	2432      	movs	r4, #50	; 0x32
 51c:	9d09      	ldr	r5, [sp, #36]	; 0x24
 51e:	4a8d      	ldr	r2, [pc, #564]	; (754 <LLVMFuzzerTestOneInput+0x754>)
 520:	498d      	ldr	r1, [pc, #564]	; (758 <LLVMFuzzerTestOneInput+0x758>)
 522:	447a      	add	r2, pc
 524:	4b8d      	ldr	r3, [pc, #564]	; (75c <LLVMFuzzerTestOneInput+0x75c>)
 526:	5828      	ldr	r0, [r5, r0]
 528:	4479      	add	r1, pc
 52a:	9202      	str	r2, [sp, #8]
 52c:	447b      	add	r3, pc
 52e:	4a8c      	ldr	r2, [pc, #560]	; (760 <LLVMFuzzerTestOneInput+0x760>)
 530:	447a      	add	r2, pc
 532:	e6b5      	b.n	2a0 <LLVMFuzzerTestOneInput+0x2a0>
 534:	482a      	ldr	r0, [pc, #168]	; (5e0 <LLVMFuzzerTestOneInput+0x5e0>)
 536:	242f      	movs	r4, #47	; 0x2f
 538:	9d09      	ldr	r5, [sp, #36]	; 0x24
 53a:	4a8a      	ldr	r2, [pc, #552]	; (764 <LLVMFuzzerTestOneInput+0x764>)
 53c:	498a      	ldr	r1, [pc, #552]	; (768 <LLVMFuzzerTestOneInput+0x768>)
 53e:	447a      	add	r2, pc
 540:	4b8a      	ldr	r3, [pc, #552]	; (76c <LLVMFuzzerTestOneInput+0x76c>)
 542:	5828      	ldr	r0, [r5, r0]
 544:	4479      	add	r1, pc
 546:	9202      	str	r2, [sp, #8]
 548:	447b      	add	r3, pc
 54a:	4a89      	ldr	r2, [pc, #548]	; (770 <LLVMFuzzerTestOneInput+0x770>)
 54c:	447a      	add	r2, pc
 54e:	e6a7      	b.n	2a0 <LLVMFuzzerTestOneInput+0x2a0>
 550:	4823      	ldr	r0, [pc, #140]	; (5e0 <LLVMFuzzerTestOneInput+0x5e0>)
 552:	242a      	movs	r4, #42	; 0x2a
 554:	9d09      	ldr	r5, [sp, #36]	; 0x24
 556:	4a87      	ldr	r2, [pc, #540]	; (774 <LLVMFuzzerTestOneInput+0x774>)
 558:	4987      	ldr	r1, [pc, #540]	; (778 <LLVMFuzzerTestOneInput+0x778>)
 55a:	447a      	add	r2, pc
 55c:	4b87      	ldr	r3, [pc, #540]	; (77c <LLVMFuzzerTestOneInput+0x77c>)
 55e:	5828      	ldr	r0, [r5, r0]
 560:	4479      	add	r1, pc
 562:	9202      	str	r2, [sp, #8]
 564:	447b      	add	r3, pc
 566:	4a86      	ldr	r2, [pc, #536]	; (780 <LLVMFuzzerTestOneInput+0x780>)
 568:	447a      	add	r2, pc
 56a:	e699      	b.n	2a0 <LLVMFuzzerTestOneInput+0x2a0>
 56c:	481c      	ldr	r0, [pc, #112]	; (5e0 <LLVMFuzzerTestOneInput+0x5e0>)
 56e:	2429      	movs	r4, #41	; 0x29
 570:	9d09      	ldr	r5, [sp, #36]	; 0x24
 572:	4a84      	ldr	r2, [pc, #528]	; (784 <LLVMFuzzerTestOneInput+0x784>)
 574:	4984      	ldr	r1, [pc, #528]	; (788 <LLVMFuzzerTestOneInput+0x788>)
 576:	447a      	add	r2, pc
 578:	4b84      	ldr	r3, [pc, #528]	; (78c <LLVMFuzzerTestOneInput+0x78c>)
 57a:	5828      	ldr	r0, [r5, r0]
 57c:	4479      	add	r1, pc
 57e:	9202      	str	r2, [sp, #8]
 580:	447b      	add	r3, pc
 582:	4a83      	ldr	r2, [pc, #524]	; (790 <LLVMFuzzerTestOneInput+0x790>)
 584:	447a      	add	r2, pc
 586:	e68b      	b.n	2a0 <LLVMFuzzerTestOneInput+0x2a0>
 588:	4815      	ldr	r0, [pc, #84]	; (5e0 <LLVMFuzzerTestOneInput+0x5e0>)
 58a:	2426      	movs	r4, #38	; 0x26
 58c:	9d09      	ldr	r5, [sp, #36]	; 0x24
 58e:	4a81      	ldr	r2, [pc, #516]	; (794 <LLVMFuzzerTestOneInput+0x794>)
 590:	4981      	ldr	r1, [pc, #516]	; (798 <LLVMFuzzerTestOneInput+0x798>)
 592:	447a      	add	r2, pc
 594:	4b81      	ldr	r3, [pc, #516]	; (79c <LLVMFuzzerTestOneInput+0x79c>)
 596:	5828      	ldr	r0, [r5, r0]
 598:	4479      	add	r1, pc
 59a:	9202      	str	r2, [sp, #8]
 59c:	447b      	add	r3, pc
 59e:	4a80      	ldr	r2, [pc, #512]	; (7a0 <LLVMFuzzerTestOneInput+0x7a0>)
 5a0:	447a      	add	r2, pc
 5a2:	e67d      	b.n	2a0 <LLVMFuzzerTestOneInput+0x2a0>
 5a4:	480e      	ldr	r0, [pc, #56]	; (5e0 <LLVMFuzzerTestOneInput+0x5e0>)
 5a6:	2421      	movs	r4, #33	; 0x21
 5a8:	9d09      	ldr	r5, [sp, #36]	; 0x24
 5aa:	4a7e      	ldr	r2, [pc, #504]	; (7a4 <LLVMFuzzerTestOneInput+0x7a4>)
 5ac:	497e      	ldr	r1, [pc, #504]	; (7a8 <LLVMFuzzerTestOneInput+0x7a8>)
 5ae:	447a      	add	r2, pc
 5b0:	4b7e      	ldr	r3, [pc, #504]	; (7ac <LLVMFuzzerTestOneInput+0x7ac>)
 5b2:	5828      	ldr	r0, [r5, r0]
 5b4:	4479      	add	r1, pc
 5b6:	9202      	str	r2, [sp, #8]
 5b8:	447b      	add	r3, pc
 5ba:	4a7d      	ldr	r2, [pc, #500]	; (7b0 <LLVMFuzzerTestOneInput+0x7b0>)
 5bc:	447a      	add	r2, pc
 5be:	e66f      	b.n	2a0 <LLVMFuzzerTestOneInput+0x2a0>
 5c0:	4807      	ldr	r0, [pc, #28]	; (5e0 <LLVMFuzzerTestOneInput+0x5e0>)
 5c2:	241d      	movs	r4, #29
 5c4:	9d09      	ldr	r5, [sp, #36]	; 0x24
 5c6:	4a7b      	ldr	r2, [pc, #492]	; (7b4 <LLVMFuzzerTestOneInput+0x7b4>)
 5c8:	497b      	ldr	r1, [pc, #492]	; (7b8 <LLVMFuzzerTestOneInput+0x7b8>)
 5ca:	447a      	add	r2, pc
 5cc:	4b7b      	ldr	r3, [pc, #492]	; (7bc <LLVMFuzzerTestOneInput+0x7bc>)
 5ce:	5828      	ldr	r0, [r5, r0]
 5d0:	4479      	add	r1, pc
 5d2:	9202      	str	r2, [sp, #8]
 5d4:	447b      	add	r3, pc
 5d6:	4a7a      	ldr	r2, [pc, #488]	; (7c0 <LLVMFuzzerTestOneInput+0x7c0>)
 5d8:	447a      	add	r2, pc
 5da:	e661      	b.n	2a0 <LLVMFuzzerTestOneInput+0x2a0>
 5dc:	000005c8 	.word	0x000005c8
 5e0:	00000000 	.word	0x00000000
 5e4:	00000350 	.word	0x00000350
 5e8:	0000034e 	.word	0x0000034e
 5ec:	0000034e 	.word	0x0000034e
 5f0:	0000034e 	.word	0x0000034e
 5f4:	00000336 	.word	0x00000336
 5f8:	00000334 	.word	0x00000334
 5fc:	00000334 	.word	0x00000334
 600:	00000334 	.word	0x00000334
 604:	0000032a 	.word	0x0000032a
 608:	00000328 	.word	0x00000328
 60c:	00000328 	.word	0x00000328
 610:	00000328 	.word	0x00000328
 614:	0000031e 	.word	0x0000031e
 618:	0000031c 	.word	0x0000031c
 61c:	0000031c 	.word	0x0000031c
 620:	0000031c 	.word	0x0000031c
 624:	00000312 	.word	0x00000312
 628:	00000310 	.word	0x00000310
 62c:	00000310 	.word	0x00000310
 630:	00000310 	.word	0x00000310
 634:	00000306 	.word	0x00000306
 638:	00000304 	.word	0x00000304
 63c:	00000304 	.word	0x00000304
 640:	00000304 	.word	0x00000304
 644:	000002fa 	.word	0x000002fa
 648:	000002f8 	.word	0x000002f8
 64c:	000002f8 	.word	0x000002f8
 650:	000002f8 	.word	0x000002f8
 654:	000002ee 	.word	0x000002ee
 658:	000002ec 	.word	0x000002ec
 65c:	000002ec 	.word	0x000002ec
 660:	000002ec 	.word	0x000002ec
 664:	000002e2 	.word	0x000002e2
 668:	000002e0 	.word	0x000002e0
 66c:	000002e0 	.word	0x000002e0
 670:	000002e0 	.word	0x000002e0
 674:	000002d6 	.word	0x000002d6
 678:	000002d4 	.word	0x000002d4
 67c:	000002d4 	.word	0x000002d4
 680:	000002d4 	.word	0x000002d4
 684:	000002ca 	.word	0x000002ca
 688:	000002c8 	.word	0x000002c8
 68c:	000002c8 	.word	0x000002c8
 690:	000002c8 	.word	0x000002c8
 694:	000002be 	.word	0x000002be
 698:	000002bc 	.word	0x000002bc
 69c:	000002bc 	.word	0x000002bc
 6a0:	000002bc 	.word	0x000002bc
 6a4:	000002b2 	.word	0x000002b2
 6a8:	000002b0 	.word	0x000002b0
 6ac:	000002b0 	.word	0x000002b0
 6b0:	000002b0 	.word	0x000002b0
 6b4:	000002a6 	.word	0x000002a6
 6b8:	000002a4 	.word	0x000002a4
 6bc:	000002a4 	.word	0x000002a4
 6c0:	000002a4 	.word	0x000002a4
 6c4:	0000029a 	.word	0x0000029a
 6c8:	00000298 	.word	0x00000298
 6cc:	00000298 	.word	0x00000298
 6d0:	00000298 	.word	0x00000298
 6d4:	0000028e 	.word	0x0000028e
 6d8:	0000028c 	.word	0x0000028c
 6dc:	0000028c 	.word	0x0000028c
 6e0:	0000028c 	.word	0x0000028c
 6e4:	00000282 	.word	0x00000282
 6e8:	00000280 	.word	0x00000280
 6ec:	00000280 	.word	0x00000280
 6f0:	00000280 	.word	0x00000280
 6f4:	00000276 	.word	0x00000276
 6f8:	00000274 	.word	0x00000274
 6fc:	00000274 	.word	0x00000274
 700:	00000274 	.word	0x00000274
 704:	0000026a 	.word	0x0000026a
 708:	00000268 	.word	0x00000268
 70c:	00000268 	.word	0x00000268
 710:	00000268 	.word	0x00000268
 714:	0000025e 	.word	0x0000025e
 718:	0000025c 	.word	0x0000025c
 71c:	0000025c 	.word	0x0000025c
 720:	0000025c 	.word	0x0000025c
 724:	00000252 	.word	0x00000252
 728:	00000250 	.word	0x00000250
 72c:	00000250 	.word	0x00000250
 730:	00000250 	.word	0x00000250
 734:	00000246 	.word	0x00000246
 738:	00000244 	.word	0x00000244
 73c:	00000244 	.word	0x00000244
 740:	00000244 	.word	0x00000244
 744:	0000023a 	.word	0x0000023a
 748:	00000238 	.word	0x00000238
 74c:	00000238 	.word	0x00000238
 750:	00000238 	.word	0x00000238
 754:	0000022e 	.word	0x0000022e
 758:	0000022c 	.word	0x0000022c
 75c:	0000022c 	.word	0x0000022c
 760:	0000022c 	.word	0x0000022c
 764:	00000222 	.word	0x00000222
 768:	00000220 	.word	0x00000220
 76c:	00000220 	.word	0x00000220
 770:	00000220 	.word	0x00000220
 774:	00000216 	.word	0x00000216
 778:	00000214 	.word	0x00000214
 77c:	00000214 	.word	0x00000214
 780:	00000214 	.word	0x00000214
 784:	0000020a 	.word	0x0000020a
 788:	00000208 	.word	0x00000208
 78c:	00000208 	.word	0x00000208
 790:	00000208 	.word	0x00000208
 794:	000001fe 	.word	0x000001fe
 798:	000001fc 	.word	0x000001fc
 79c:	000001fc 	.word	0x000001fc
 7a0:	000001fc 	.word	0x000001fc
 7a4:	000001f2 	.word	0x000001f2
 7a8:	000001f0 	.word	0x000001f0
 7ac:	000001f0 	.word	0x000001f0
 7b0:	000001f0 	.word	0x000001f0
 7b4:	000001e6 	.word	0x000001e6
 7b8:	000001e4 	.word	0x000001e4
 7bc:	000001e4 	.word	0x000001e4
 7c0:	000001e4 	.word	0x000001e4
