
/root/projects/compiled/non_crypto/unstripped/lz4_lz4.git_fuzzer_517e2e9b.o:     file format elf32-littlearm


Disassembly of section .text:

00000000 <FUZ_fillCompressibleNoiseBuffer>:
       0:	ed9f 7b87 	vldr	d7, [pc, #540]	; 220 <FUZ_fillCompressibleNoiseBuffer+0x220>
       4:	1e43      	subs	r3, r0, #1
       6:	e92d 4ff0 	stmdb	sp!, {r4, r5, r6, r7, r8, r9, sl, fp, lr}
       a:	468b      	mov	fp, r1
       c:	f647 15b1 	movw	r5, #31153	; 0x79b1
      10:	f6c9 6537 	movt	r5, #40503	; 0x9e37
      14:	ee20 0b07 	vmul.f64	d0, d0, d7
      18:	b087      	sub	sp, #28
      1a:	f64c 2477 	movw	r4, #51831	; 0xca77
      1e:	f2c8 54eb 	movt	r4, #34283	; 0x85eb
      22:	4619      	mov	r1, r3
      24:	f100 0613 	add.w	r6, r0, #19
      28:	eefc 7bc0 	vcvt.u32.f64	s15, d0
      2c:	9305      	str	r3, [sp, #20]
      2e:	edcd 7a01 	vstr	s15, [sp, #4]
      32:	6813      	ldr	r3, [r2, #0]
      34:	fb05 f303 	mul.w	r3, r5, r3
      38:	4063      	eors	r3, r4
      3a:	ea4f 43f3 	mov.w	r3, r3, ror #19
      3e:	6013      	str	r3, [r2, #0]
      40:	f801 3f01 	strb.w	r3, [r1, #1]!
      44:	428e      	cmp	r6, r1
      46:	d1f4      	bne.n	32 <FUZ_fillCompressibleNoiseBuffer+0x32>
      48:	f647 14b1 	movw	r4, #31153	; 0x79b1
      4c:	f6c9 6437 	movt	r4, #40503	; 0x9e37
      50:	f64c 2e77 	movw	lr, #51831	; 0xca77
      54:	f2c8 5eeb 	movt	lr, #34283	; 0x85eb
      58:	2114      	movs	r1, #20
      5a:	f248 0381 	movw	r3, #32897	; 0x8081
      5e:	f2c8 0380 	movt	r3, #32896	; 0x8080
      62:	9303      	str	r3, [sp, #12]
      64:	f648 0389 	movw	r3, #34953	; 0x8889
      68:	f6c8 0388 	movt	r3, #34952	; 0x8888
      6c:	9304      	str	r3, [sp, #16]
      6e:	6813      	ldr	r3, [r2, #0]
      70:	9f01      	ldr	r7, [sp, #4]
      72:	fb04 f303 	mul.w	r3, r4, r3
      76:	ea83 030e 	eor.w	r3, r3, lr
      7a:	ea4f 43f3 	mov.w	r3, r3, ror #19
      7e:	f3c3 05ce 	ubfx	r5, r3, #3, #15
      82:	fb04 f603 	mul.w	r6, r4, r3
      86:	42bd      	cmp	r5, r7
      88:	ea86 060e 	eor.w	r6, r6, lr
      8c:	ea4f 43f6 	mov.w	r3, r6, ror #19
      90:	f3c6 6681 	ubfx	r6, r6, #26, #2
      94:	fb04 f303 	mul.w	r3, r4, r3
      98:	ea83 030e 	eor.w	r3, r3, lr
      9c:	ea4f 43f3 	mov.w	r3, r3, ror #19
      a0:	d267      	bcs.n	172 <FUZ_fillCompressibleNoiseBuffer+0x172>
      a2:	2e00      	cmp	r6, #0
      a4:	f000 809d 	beq.w	1e2 <FUZ_fillCompressibleNoiseBuffer+0x1e2>
      a8:	9d04      	ldr	r5, [sp, #16]
      aa:	fba5 6503 	umull	r6, r5, r5, r3
      ae:	08ed      	lsrs	r5, r5, #3
      b0:	ebc5 1505 	rsb	r5, r5, r5, lsl #4
      b4:	1b5d      	subs	r5, r3, r5
      b6:	3504      	adds	r5, #4
      b8:	fb04 f303 	mul.w	r3, r4, r3
      bc:	440d      	add	r5, r1
      be:	455d      	cmp	r5, fp
      c0:	ea83 030e 	eor.w	r3, r3, lr
      c4:	bf28      	it	cs
      c6:	465d      	movcs	r5, fp
      c8:	ea4f 43f3 	mov.w	r3, r3, ror #19
      cc:	6013      	str	r3, [r2, #0]
      ce:	f3c3 03ce 	ubfx	r3, r3, #3, #15
      d2:	3301      	adds	r3, #1
      d4:	428b      	cmp	r3, r1
      d6:	f240 809b 	bls.w	210 <FUZ_fillCompressibleNoiseBuffer+0x210>
      da:	085b      	lsrs	r3, r3, #1
      dc:	428b      	cmp	r3, r1
      de:	d8fc      	bhi.n	da <FUZ_fillCompressibleNoiseBuffer+0xda>
      e0:	1acb      	subs	r3, r1, r3
      e2:	428d      	cmp	r5, r1
      e4:	d9c3      	bls.n	6e <FUZ_fillCompressibleNoiseBuffer+0x6e>
      e6:	eba5 0901 	sub.w	r9, r5, r1
      ea:	f101 0a01 	add.w	sl, r1, #1
      ee:	f109 36ff 	add.w	r6, r9, #4294967295	; 0xffffffff
      f2:	9602      	str	r6, [sp, #8]
      f4:	4637      	mov	r7, r6
      f6:	1e4e      	subs	r6, r1, #1
      f8:	4555      	cmp	r5, sl
      fa:	bf28      	it	cs
      fc:	2f05      	cmpcs	r7, #5
      fe:	eba6 0c03 	sub.w	ip, r6, r3
     102:	bf8c      	ite	hi
     104:	2701      	movhi	r7, #1
     106:	2700      	movls	r7, #0
     108:	f1bc 0f02 	cmp.w	ip, #2
     10c:	bf94      	ite	ls
     10e:	2700      	movls	r7, #0
     110:	f007 0701 	andhi.w	r7, r7, #1
     114:	2f00      	cmp	r7, #0
     116:	d06e      	beq.n	1f6 <FUZ_fillCompressibleNoiseBuffer+0x1f6>
     118:	4555      	cmp	r5, sl
     11a:	bf38      	it	cc
     11c:	f04f 0901 	movcc.w	r9, #1
     120:	1846      	adds	r6, r0, r1
     122:	f029 0803 	bic.w	r8, r9, #3
     126:	18c7      	adds	r7, r0, r3
     128:	44b0      	add	r8, r6
     12a:	f857 cb04 	ldr.w	ip, [r7], #4
     12e:	f846 cb04 	str.w	ip, [r6], #4
     132:	45b0      	cmp	r8, r6
     134:	d1f9      	bne.n	12a <FUZ_fillCompressibleNoiseBuffer+0x12a>
     136:	f029 0603 	bic.w	r6, r9, #3
     13a:	4431      	add	r1, r6
     13c:	4433      	add	r3, r6
     13e:	454e      	cmp	r6, r9
     140:	d00d      	beq.n	15e <FUZ_fillCompressibleNoiseBuffer+0x15e>
     142:	5cc6      	ldrb	r6, [r0, r3]
     144:	1c5f      	adds	r7, r3, #1
     146:	5446      	strb	r6, [r0, r1]
     148:	1c4e      	adds	r6, r1, #1
     14a:	42b5      	cmp	r5, r6
     14c:	d907      	bls.n	15e <FUZ_fillCompressibleNoiseBuffer+0x15e>
     14e:	5dc7      	ldrb	r7, [r0, r7]
     150:	3102      	adds	r1, #2
     152:	3302      	adds	r3, #2
     154:	428d      	cmp	r5, r1
     156:	5587      	strb	r7, [r0, r6]
     158:	d901      	bls.n	15e <FUZ_fillCompressibleNoiseBuffer+0x15e>
     15a:	5cc3      	ldrb	r3, [r0, r3]
     15c:	5443      	strb	r3, [r0, r1]
     15e:	9902      	ldr	r1, [sp, #8]
     160:	4555      	cmp	r5, sl
     162:	bf38      	it	cc
     164:	2100      	movcc	r1, #0
     166:	4451      	add	r1, sl
     168:	458b      	cmp	fp, r1
     16a:	d880      	bhi.n	6e <FUZ_fillCompressibleNoiseBuffer+0x6e>
     16c:	b007      	add	sp, #28
     16e:	e8bd 8ff0 	ldmia.w	sp!, {r4, r5, r6, r7, r8, r9, sl, fp, pc}
     172:	b366      	cbz	r6, 1ce <FUZ_fillCompressibleNoiseBuffer+0x1ce>
     174:	9d04      	ldr	r5, [sp, #16]
     176:	fba5 6503 	umull	r6, r5, r5, r3
     17a:	08ed      	lsrs	r5, r5, #3
     17c:	ebc5 1505 	rsb	r5, r5, r5, lsl #4
     180:	1b5d      	subs	r5, r3, r5
     182:	440d      	add	r5, r1
     184:	6013      	str	r3, [r2, #0]
     186:	455d      	cmp	r5, fp
     188:	bf28      	it	cs
     18a:	465d      	movcs	r5, fp
     18c:	428d      	cmp	r5, r1
     18e:	d9eb      	bls.n	168 <FUZ_fillCompressibleNoiseBuffer+0x168>
     190:	fb04 f303 	mul.w	r3, r4, r3
     194:	ea83 030e 	eor.w	r3, r3, lr
     198:	ea4f 43f3 	mov.w	r3, r3, ror #19
     19c:	6013      	str	r3, [r2, #0]
     19e:	095b      	lsrs	r3, r3, #5
     1a0:	5443      	strb	r3, [r0, r1]
     1a2:	1c4b      	adds	r3, r1, #1
     1a4:	4401      	add	r1, r0
     1a6:	429d      	cmp	r5, r3
     1a8:	bf84      	itt	hi
     1aa:	9b05      	ldrhi	r3, [sp, #20]
     1ac:	195e      	addhi	r6, r3, r5
     1ae:	d90c      	bls.n	1ca <FUZ_fillCompressibleNoiseBuffer+0x1ca>
     1b0:	6813      	ldr	r3, [r2, #0]
     1b2:	fb04 f303 	mul.w	r3, r4, r3
     1b6:	ea83 030e 	eor.w	r3, r3, lr
     1ba:	ea4f 43f3 	mov.w	r3, r3, ror #19
     1be:	6013      	str	r3, [r2, #0]
     1c0:	095b      	lsrs	r3, r3, #5
     1c2:	f801 3f01 	strb.w	r3, [r1, #1]!
     1c6:	428e      	cmp	r6, r1
     1c8:	d1f2      	bne.n	1b0 <FUZ_fillCompressibleNoiseBuffer+0x1b0>
     1ca:	4629      	mov	r1, r5
     1cc:	e7cc      	b.n	168 <FUZ_fillCompressibleNoiseBuffer+0x168>
     1ce:	9d03      	ldr	r5, [sp, #12]
     1d0:	fba5 6503 	umull	r6, r5, r5, r3
     1d4:	f44f 76ff 	mov.w	r6, #510	; 0x1fe
     1d8:	0a2d      	lsrs	r5, r5, #8
     1da:	fb06 3515 	mls	r5, r6, r5, r3
     1de:	350f      	adds	r5, #15
     1e0:	e7cf      	b.n	182 <FUZ_fillCompressibleNoiseBuffer+0x182>
     1e2:	9d03      	ldr	r5, [sp, #12]
     1e4:	fba5 6503 	umull	r6, r5, r5, r3
     1e8:	f44f 76ff 	mov.w	r6, #510	; 0x1fe
     1ec:	0a2d      	lsrs	r5, r5, #8
     1ee:	fb06 3515 	mls	r5, r6, r5, r3
     1f2:	3513      	adds	r5, #19
     1f4:	e760      	b.n	b8 <FUZ_fillCompressibleNoiseBuffer+0xb8>
     1f6:	3b01      	subs	r3, #1
     1f8:	4406      	add	r6, r0
     1fa:	4403      	add	r3, r0
     1fc:	4631      	mov	r1, r6
     1fe:	f813 7f01 	ldrb.w	r7, [r3, #1]!
     202:	3102      	adds	r1, #2
     204:	f806 7f01 	strb.w	r7, [r6, #1]!
     208:	1a09      	subs	r1, r1, r0
     20a:	428d      	cmp	r5, r1
     20c:	d8f6      	bhi.n	1fc <FUZ_fillCompressibleNoiseBuffer+0x1fc>
     20e:	e7a6      	b.n	15e <FUZ_fillCompressibleNoiseBuffer+0x15e>
     210:	1acb      	subs	r3, r1, r3
     212:	428d      	cmp	r5, r1
     214:	f63f af67 	bhi.w	e6 <FUZ_fillCompressibleNoiseBuffer+0xe6>
     218:	e7a6      	b.n	168 <FUZ_fillCompressibleNoiseBuffer+0x168>
     21a:	bf00      	nop
     21c:	f3af 8000 	nop.w
     220:	00000000 	.word	0x00000000
     224:	40e00000 	.word	0x40e00000

00000228 <FUZ_findDiff>:
     228:	4b16      	ldr	r3, [pc, #88]	; (284 <FUZ_findDiff+0x5c>)
     22a:	2900      	cmp	r1, #0
     22c:	bf18      	it	ne
     22e:	2800      	cmpne	r0, #0
     230:	4a15      	ldr	r2, [pc, #84]	; (288 <FUZ_findDiff+0x60>)
     232:	447b      	add	r3, pc
     234:	b510      	push	{r4, lr}
     236:	589b      	ldr	r3, [r3, r2]
     238:	681c      	ldr	r4, [r3, #0]
     23a:	bf0c      	ite	eq
     23c:	2301      	moveq	r3, #1
     23e:	2300      	movne	r3, #0
     240:	d017      	beq.n	272 <FUZ_findDiff+0x4a>
     242:	f890 c000 	ldrb.w	ip, [r0]
     246:	780a      	ldrb	r2, [r1, #0]
     248:	4594      	cmp	ip, r2
     24a:	bf08      	it	eq
     24c:	f1c0 0e01 	rsbeq	lr, r0, #1
     250:	d107      	bne.n	262 <FUZ_findDiff+0x3a>
     252:	f811 2f01 	ldrb.w	r2, [r1, #1]!
     256:	eb0e 0300 	add.w	r3, lr, r0
     25a:	f810 cf01 	ldrb.w	ip, [r0, #1]!
     25e:	4594      	cmp	ip, r2
     260:	d0f7      	beq.n	252 <FUZ_findDiff+0x2a>
     262:	4a0a      	ldr	r2, [pc, #40]	; (28c <FUZ_findDiff+0x64>)
     264:	4620      	mov	r0, r4
     266:	2101      	movs	r1, #1
     268:	e8bd 4010 	ldmia.w	sp!, {r4, lr}
     26c:	447a      	add	r2, pc
     26e:	f7ff bffe 	b.w	0 <__fprintf_chk>
     272:	4807      	ldr	r0, [pc, #28]	; (290 <FUZ_findDiff+0x68>)
     274:	4623      	mov	r3, r4
     276:	221d      	movs	r2, #29
     278:	2101      	movs	r1, #1
     27a:	e8bd 4010 	ldmia.w	sp!, {r4, lr}
     27e:	4478      	add	r0, pc
     280:	f7ff bffe 	b.w	0 <fwrite>
     284:	0000004e 	.word	0x0000004e
     288:	00000000 	.word	0x00000000
     28c:	0000001c 	.word	0x0000001c
     290:	0000000e 	.word	0x0000000e

00000294 <FUZ_test>:
     294:	e92d 4ff0 	stmdb	sp!, {r4, r5, r6, r7, r8, r9, sl, fp, lr}
     298:	461c      	mov	r4, r3
     29a:	f8df 3820 	ldr.w	r3, [pc, #2080]	; abc <FUZ_test+0x828>
     29e:	ed2d 8b0c 	vpush	{d8-d13}
     2a2:	f5ad 4d00 	sub.w	sp, sp, #32768	; 0x8000
     2a6:	b0b9      	sub	sp, #228	; 0xe4
     2a8:	ee0a 2a10 	vmov	s20, r2
     2ac:	f8df 2810 	ldr.w	r2, [pc, #2064]	; ac0 <FUZ_test+0x82c>
     2b0:	ee0d 0a10 	vmov	s26, r0
     2b4:	f44f 1000 	mov.w	r0, #2097152	; 0x200000
     2b8:	eeb0 8b40 	vmov.f64	d8, d0
     2bc:	447a      	add	r2, pc
     2be:	9121      	str	r1, [sp, #132]	; 0x84
     2c0:	f50d 4100 	add.w	r1, sp, #32768	; 0x8000
     2c4:	31dc      	adds	r1, #220	; 0xdc
     2c6:	58d3      	ldr	r3, [r2, r3]
     2c8:	681b      	ldr	r3, [r3, #0]
     2ca:	600b      	str	r3, [r1, #0]
     2cc:	f04f 0300 	mov.w	r3, #0
     2d0:	f7ff fffe 	bl	0 <malloc>
     2d4:	900e      	str	r0, [sp, #56]	; 0x38
     2d6:	f44f 3000 	mov.w	r0, #131072	; 0x20000
     2da:	f7ff fffe 	bl	0 <LZ4_compressBound>
     2de:	900d      	str	r0, [sp, #52]	; 0x34
     2e0:	f7ff fffe 	bl	0 <malloc>
     2e4:	4607      	mov	r7, r0
     2e6:	f44f 3020 	mov.w	r0, #163840	; 0x28000
     2ea:	f7ff fffe 	bl	0 <malloc>
     2ee:	f04f 33ff 	mov.w	r3, #4294967295	; 0xffffffff
     2f2:	2200      	movs	r2, #0
     2f4:	4681      	mov	r9, r0
     2f6:	e9cd 3200 	strd	r3, r2, [sp]
     2fa:	f44f 31c0 	mov.w	r1, #98304	; 0x18000
     2fe:	2322      	movs	r3, #34	; 0x22
     300:	2203      	movs	r2, #3
     302:	f44f 5080 	mov.w	r0, #4096	; 0x1000
     306:	f7ff fffe 	bl	0 <mmap>
     30a:	f8df 37b8 	ldr.w	r3, [pc, #1976]	; ac4 <FUZ_test+0x830>
     30e:	f8df 27b8 	ldr.w	r2, [pc, #1976]	; ac8 <FUZ_test+0x834>
     312:	447b      	add	r3, pc
     314:	9025      	str	r0, [sp, #148]	; 0x94
     316:	447a      	add	r2, pc
     318:	9207      	str	r2, [sp, #28]
     31a:	681b      	ldr	r3, [r3, #0]
     31c:	2b01      	cmp	r3, #1
     31e:	dd0b      	ble.n	338 <FUZ_test+0xa4>
     320:	f8df 37a8 	ldr.w	r3, [pc, #1960]	; acc <FUZ_test+0x838>
     324:	4601      	mov	r1, r0
     326:	58d3      	ldr	r3, [r2, r3]
     328:	f8df 27a4 	ldr.w	r2, [pc, #1956]	; ad0 <FUZ_test+0x83c>
     32c:	6818      	ldr	r0, [r3, #0]
     32e:	447a      	add	r2, pc
     330:	460b      	mov	r3, r1
     332:	2101      	movs	r1, #1
     334:	f7ff fffe 	bl	0 <__fprintf_chk>
     338:	f7ff fffe 	bl	0 <LZ4_sizeofState>
     33c:	f7ff fffe 	bl	0 <malloc>
     340:	ee0b 0a10 	vmov	s22, r0
     344:	f7ff fffe 	bl	0 <LZ4_sizeofStateHC>
     348:	f7ff fffe 	bl	0 <malloc>
     34c:	ee0b 0a90 	vmov	s23, r0
     350:	f7ff fffe 	bl	0 <LZ4_createStreamHC>
     354:	4605      	mov	r5, r0
     356:	ee0a 0a90 	vmov	s21, r0
     35a:	f7ff fffe 	bl	0 <clock>
     35e:	f244 2340 	movw	r3, #16960	; 0x4240
     362:	f2c0 030f 	movt	r3, #15
     366:	9023      	str	r0, [sp, #140]	; 0x8c
     368:	fb03 f304 	mul.w	r3, r3, r4
     36c:	9324      	str	r3, [sp, #144]	; 0x90
     36e:	9b0e      	ldr	r3, [sp, #56]	; 0x38
     370:	2f00      	cmp	r7, #0
     372:	bf18      	it	ne
     374:	2b00      	cmpne	r3, #0
     376:	f004 8125 	beq.w	45c4 <FUZ_test+0x4330>
     37a:	2d00      	cmp	r5, #0
     37c:	bf18      	it	ne
     37e:	f1b9 0f00 	cmpne.w	r9, #0
     382:	bf0c      	ite	eq
     384:	2401      	moveq	r4, #1
     386:	2400      	movne	r4, #0
     388:	f004 811c 	beq.w	45c4 <FUZ_test+0x4330>
     38c:	ab38      	add	r3, sp, #224	; 0xe0
     38e:	930f      	str	r3, [sp, #60]	; 0x3c
     390:	ab27      	add	r3, sp, #156	; 0x9c
     392:	f244 0120 	movw	r1, #16416	; 0x4020
     396:	4618      	mov	r0, r3
     398:	ee09 3a10 	vmov	s18, r3
     39c:	f7ff fffe 	bl	0 <LZ4_initStream>
     3a0:	2800      	cmp	r0, #0
     3a2:	f005 80ce 	beq.w	5542 <FUZ_test+0x52ae>
     3a6:	9b0f      	ldr	r3, [sp, #60]	; 0x3c
     3a8:	ee1d 5a10 	vmov	r5, s26
     3ac:	980e      	ldr	r0, [sp, #56]	; 0x38
     3ae:	eeb0 0b48 	vmov.f64	d0, d8
     3b2:	461a      	mov	r2, r3
     3b4:	f64a 633d 	movw	r3, #44605	; 0xae3d
     3b8:	f2cc 23b2 	movt	r3, #49842	; 0xc2b2
     3bc:	f44f 1100 	mov.w	r1, #2097152	; 0x200000
     3c0:	406b      	eors	r3, r5
     3c2:	f842 3d48 	str.w	r3, [r2, #-72]!
     3c6:	f7ff fe1b 	bl	0 <FUZ_fillCompressibleNoiseBuffer>
     3ca:	ee1a 0a10 	vmov	r0, s20
     3ce:	ee09 2a90 	vmov	s19, r2
     3d2:	2800      	cmp	r0, #0
     3d4:	f002 8674 	beq.w	30c0 <FUZ_test+0x2e2c>
     3d8:	ee1d 3a10 	vmov	r3, s26
     3dc:	f647 11b1 	movw	r1, #31153	; 0x79b1
     3e0:	f6c9 6137 	movt	r1, #40503	; 0x9e37
     3e4:	f64c 2277 	movw	r2, #51831	; 0xca77
     3e8:	f2c8 52eb 	movt	r2, #34283	; 0x85eb
     3ec:	fb01 f303 	mul.w	r3, r1, r3
     3f0:	3401      	adds	r4, #1
     3f2:	42a0      	cmp	r0, r4
     3f4:	ea83 0302 	eor.w	r3, r3, r2
     3f8:	ea4f 43f3 	mov.w	r3, r3, ror #19
     3fc:	d1f6      	bne.n	3ec <FUZ_test+0x158>
     3fe:	9317      	str	r3, [sp, #92]	; 0x5c
     400:	2300      	movs	r3, #0
     402:	931f      	str	r3, [sp, #124]	; 0x7c
     404:	f647 12b1 	movw	r2, #31153	; 0x79b1
     408:	f6c9 6237 	movt	r2, #40503	; 0x9e37
     40c:	9320      	str	r3, [sp, #128]	; 0x80
     40e:	e9cd 331d 	strd	r3, r3, [sp, #116]	; 0x74
     412:	46ba      	mov	sl, r7
     414:	e9cd 331b 	strd	r3, r3, [sp, #108]	; 0x6c
     418:	e9cd 3319 	strd	r3, r3, [sp, #100]	; 0x64
     41c:	ee1a 3a10 	vmov	r3, s20
     420:	920b      	str	r2, [sp, #44]	; 0x2c
     422:	f64c 2277 	movw	r2, #51831	; 0xca77
     426:	f2c8 52eb 	movt	r2, #34283	; 0x85eb
     42a:	920a      	str	r2, [sp, #40]	; 0x28
     42c:	f64e 424f 	movw	r2, #60495	; 0xec4f
     430:	f6c4 62c4 	movt	r2, #20164	; 0x4ec4
     434:	9222      	str	r2, [sp, #136]	; 0x88
     436:	f24c 32d6 	movw	r2, #50134	; 0xc3d6
     43a:	f6ca 12b1 	movt	r2, #43441	; 0xa9b1
     43e:	9218      	str	r2, [sp, #96]	; 0x60
     440:	9a21      	ldr	r2, [sp, #132]	; 0x84
     442:	4293      	cmp	r3, r2
     444:	f081 8335 	bcs.w	1ab2 <FUZ_test+0x181e>
     448:	9d0b      	ldr	r5, [sp, #44]	; 0x2c
     44a:	9b17      	ldr	r3, [sp, #92]	; 0x5c
     44c:	9e0a      	ldr	r6, [sp, #40]	; 0x28
     44e:	fb05 f303 	mul.w	r3, r5, r3
     452:	4073      	eors	r3, r6
     454:	ea4f 43f3 	mov.w	r3, r3, ror #19
     458:	9317      	str	r3, [sp, #92]	; 0x5c
     45a:	461a      	mov	r2, r3
     45c:	f64a 633d 	movw	r3, #44605	; 0xae3d
     460:	f2cc 23b2 	movt	r3, #49842	; 0xc2b2
     464:	4053      	eors	r3, r2
     466:	f248 0201 	movw	r2, #32769	; 0x8001
     46a:	fb05 f303 	mul.w	r3, r5, r3
     46e:	4073      	eors	r3, r6
     470:	ea4f 43f3 	mov.w	r3, r3, ror #19
     474:	fb05 f403 	mul.w	r4, r5, r3
     478:	fba2 1203 	umull	r1, r2, r2, r3
     47c:	4074      	eors	r4, r6
     47e:	1a99      	subs	r1, r3, r2
     480:	ea4f 44f4 	mov.w	r4, r4, ror #19
     484:	eb02 0251 	add.w	r2, r2, r1, lsr #1
     488:	4620      	mov	r0, r4
     48a:	f64f 71ff 	movw	r1, #65535	; 0xffff
     48e:	f2c0 011f 	movt	r1, #31
     492:	fb05 f404 	mul.w	r4, r5, r4
     496:	0c12      	lsrs	r2, r2, #16
     498:	4074      	eors	r4, r6
     49a:	ebc2 4242 	rsb	r2, r2, r2, lsl #17
     49e:	1a9f      	subs	r7, r3, r2
     4a0:	9705      	str	r7, [sp, #20]
     4a2:	ea4f 44f4 	mov.w	r4, r4, ror #19
     4a6:	1bc9      	subs	r1, r1, r7
     4a8:	f7ff fffe 	bl	0 <__aeabi_uidivmod>
     4ac:	1c4b      	adds	r3, r1, #1
     4ae:	f3c4 000e 	ubfx	r0, r4, #0, #15
     4b2:	220d      	movs	r2, #13
     4b4:	fb05 f404 	mul.w	r4, r5, r4
     4b8:	4288      	cmp	r0, r1
     4ba:	bfa8      	it	ge
     4bc:	4608      	movge	r0, r1
     4be:	9922      	ldr	r1, [sp, #136]	; 0x88
     4c0:	4074      	eors	r4, r6
     4c2:	9006      	str	r0, [sp, #24]
     4c4:	ea4f 44f4 	mov.w	r4, r4, ror #19
     4c8:	fba1 0104 	umull	r0, r1, r1, r4
     4cc:	0889      	lsrs	r1, r1, #2
     4ce:	fb02 4211 	mls	r2, r2, r1, r4
     4d2:	920c      	str	r2, [sp, #48]	; 0x30
     4d4:	2f00      	cmp	r7, #0
     4d6:	f001 8561 	beq.w	1f9c <FUZ_test+0x1d08>
     4da:	9a0e      	ldr	r2, [sp, #56]	; 0x38
     4dc:	463e      	mov	r6, r7
     4de:	441a      	add	r2, r3
     4e0:	ee08 2a90 	vmov	s17, r2
     4e4:	9a06      	ldr	r2, [sp, #24]
     4e6:	4631      	mov	r1, r6
     4e8:	ee18 0a90 	vmov	r0, s17
     4ec:	1a9b      	subs	r3, r3, r2
     4ee:	9a0e      	ldr	r2, [sp, #56]	; 0x38
     4f0:	18d3      	adds	r3, r2, r3
     4f2:	2200      	movs	r2, #0
     4f4:	9315      	str	r3, [sp, #84]	; 0x54
     4f6:	f7ff fffe 	bl	0 <XXH32>
     4fa:	f8df 35d8 	ldr.w	r3, [pc, #1496]	; ad4 <FUZ_test+0x840>
     4fe:	9010      	str	r0, [sp, #64]	; 0x40
     500:	447b      	add	r3, pc
     502:	681d      	ldr	r5, [r3, #0]
     504:	f7ff fffe 	bl	0 <clock>
     508:	9b0b      	ldr	r3, [sp, #44]	; 0x2c
     50a:	f5b6 3fc0 	cmp.w	r6, #98304	; 0x18000
     50e:	eba0 0005 	sub.w	r0, r0, r5
     512:	fb03 f404 	mul.w	r4, r3, r4
     516:	9b0a      	ldr	r3, [sp, #40]	; 0x28
     518:	ea84 0403 	eor.w	r4, r4, r3
     51c:	f44f 6354 	mov.w	r3, #3392	; 0xd40
     520:	f2c0 0303 	movt	r3, #3
     524:	ea4f 44f4 	mov.w	r4, r4, ror #19
     528:	f004 053f 	and.w	r5, r4, #63	; 0x3f
     52c:	f1a5 0502 	sub.w	r5, r5, #2
     530:	fab5 f585 	clz	r5, r5
     534:	ea4f 1555 	mov.w	r5, r5, lsr #5
     538:	bf28      	it	cs
     53a:	2500      	movcs	r5, #0
     53c:	4298      	cmp	r0, r3
     53e:	f301 8358 	bgt.w	1bf2 <FUZ_test+0x195e>
     542:	f8df 3594 	ldr.w	r3, [pc, #1428]	; ad8 <FUZ_test+0x844>
     546:	447b      	add	r3, pc
     548:	681b      	ldr	r3, [r3, #0]
     54a:	2b03      	cmp	r3, #3
     54c:	f301 8351 	bgt.w	1bf2 <FUZ_test+0x195e>
     550:	2d00      	cmp	r5, #0
     552:	f042 85ad 	bne.w	30b0 <FUZ_test+0x2e1c>
     556:	9b0b      	ldr	r3, [sp, #44]	; 0x2c
     558:	980a      	ldr	r0, [sp, #40]	; 0x28
     55a:	9905      	ldr	r1, [sp, #20]
     55c:	9a0f      	ldr	r2, [sp, #60]	; 0x3c
     55e:	fb03 f404 	mul.w	r4, r3, r4
     562:	4044      	eors	r4, r0
     564:	f842 1c48 	str.w	r1, [r2, #-72]
     568:	ee19 2a90 	vmov	r2, s19
     56c:	ea4f 44f4 	mov.w	r4, r4, ror #19
     570:	f004 057f 	and.w	r5, r4, #127	; 0x7f
     574:	fb03 f404 	mul.w	r4, r3, r4
     578:	fb05 1501 	mla	r5, r5, r1, r1
     57c:	4651      	mov	r1, sl
     57e:	4044      	eors	r4, r0
     580:	ee18 0a90 	vmov	r0, s17
     584:	11ed      	asrs	r5, r5, #7
     586:	ea4f 44f4 	mov.w	r4, r4, ror #19
     58a:	462b      	mov	r3, r5
     58c:	b2e7      	uxtb	r7, r4
     58e:	f80a 7005 	strb.w	r7, [sl, r5]
     592:	f7ff fffe 	bl	0 <LZ4_compress_destSize>
     596:	4606      	mov	r6, r0
     598:	4285      	cmp	r5, r0
     59a:	f2c4 807d 	blt.w	4698 <FUZ_test+0x4404>
     59e:	f81a 3005 	ldrb.w	r3, [sl, r5]
     5a2:	42bb      	cmp	r3, r7
     5a4:	f044 805e 	bne.w	4664 <FUZ_test+0x43d0>
     5a8:	9b0f      	ldr	r3, [sp, #60]	; 0x3c
     5aa:	f853 1c48 	ldr.w	r1, [r3, #-72]
     5ae:	9b05      	ldr	r3, [sp, #20]
     5b0:	4299      	cmp	r1, r3
     5b2:	f304 803d 	bgt.w	4630 <FUZ_test+0x439c>
     5b6:	f8df 3524 	ldr.w	r3, [pc, #1316]	; adc <FUZ_test+0x848>
     5ba:	447b      	add	r3, pc
     5bc:	681b      	ldr	r3, [r3, #0]
     5be:	2b04      	cmp	r3, #4
     5c0:	f301 8482 	bgt.w	1ec8 <FUZ_test+0x1c34>
     5c4:	2d00      	cmp	r5, #0
     5c6:	f041 8498 	bne.w	1efa <FUZ_test+0x1c66>
     5ca:	f04f 0b02 	mov.w	fp, #2
     5ce:	f04f 0801 	mov.w	r8, #1
     5d2:	2b03      	cmp	r3, #3
     5d4:	f301 845a 	bgt.w	1e8c <FUZ_test+0x1bf8>
     5d8:	9a0b      	ldr	r2, [sp, #44]	; 0x2c
     5da:	9d0a      	ldr	r5, [sp, #40]	; 0x28
     5dc:	9905      	ldr	r1, [sp, #20]
     5de:	980f      	ldr	r0, [sp, #60]	; 0x3c
     5e0:	fb02 f304 	mul.w	r3, r2, r4
     5e4:	406b      	eors	r3, r5
     5e6:	f840 1c48 	str.w	r1, [r0, #-72]
     5ea:	ee18 0a90 	vmov	r0, s17
     5ee:	ea4f 43f3 	mov.w	r3, r3, ror #19
     5f2:	f003 047f 	and.w	r4, r3, #127	; 0x7f
     5f6:	fb02 f303 	mul.w	r3, r2, r3
     5fa:	fb04 1401 	mla	r4, r4, r1, r1
     5fe:	406b      	eors	r3, r5
     600:	ea4f 45f3 	mov.w	r5, r3, ror #19
     604:	11e4      	asrs	r4, r4, #7
     606:	9516      	str	r5, [sp, #88]	; 0x58
     608:	f7ff fffe 	bl	0 <LZ4_createHC>
     60c:	b2ef      	uxtb	r7, r5
     60e:	4605      	mov	r5, r0
     610:	2800      	cmp	r0, #0
     612:	f003 87f3 	beq.w	45fc <FUZ_test+0x4368>
     616:	9b0c      	ldr	r3, [sp, #48]	; 0x30
     618:	ee18 1a90 	vmov	r1, s17
     61c:	e9cd 4300 	strd	r4, r3, [sp]
     620:	4652      	mov	r2, sl
     622:	ee19 3a90 	vmov	r3, s19
     626:	f80a 7004 	strb.w	r7, [sl, r4]
     62a:	f7ff fffe 	bl	0 <LZ4_compress_HC_destSize>
     62e:	f8df 34b0 	ldr.w	r3, [pc, #1200]	; ae0 <FUZ_test+0x84c>
     632:	4606      	mov	r6, r0
     634:	447b      	add	r3, pc
     636:	681b      	ldr	r3, [r3, #0]
     638:	2b04      	cmp	r3, #4
     63a:	f301 84b4 	bgt.w	1fa6 <FUZ_test+0x1d12>
     63e:	4628      	mov	r0, r5
     640:	f7ff fffe 	bl	0 <LZ4_freeHC>
     644:	42b4      	cmp	r4, r6
     646:	f2c4 80f7 	blt.w	4838 <FUZ_test+0x45a4>
     64a:	f81a 3004 	ldrb.w	r3, [sl, r4]
     64e:	42bb      	cmp	r3, r7
     650:	f044 80d8 	bne.w	4804 <FUZ_test+0x4570>
     654:	9b0f      	ldr	r3, [sp, #60]	; 0x3c
     656:	f853 1c48 	ldr.w	r1, [r3, #-72]
     65a:	9b05      	ldr	r3, [sp, #20]
     65c:	4299      	cmp	r1, r3
     65e:	f304 80b7 	bgt.w	47d0 <FUZ_test+0x453c>
     662:	2c00      	cmp	r4, #0
     664:	f041 8500 	bne.w	2068 <FUZ_test+0x1dd4>
     668:	f8df 4478 	ldr.w	r4, [pc, #1144]	; ae4 <FUZ_test+0x850>
     66c:	447c      	add	r4, pc
     66e:	6823      	ldr	r3, [r4, #0]
     670:	2b04      	cmp	r3, #4
     672:	f301 84ea 	bgt.w	204a <FUZ_test+0x1db6>
     676:	f10b 0401 	add.w	r4, fp, #1
     67a:	2b03      	cmp	r3, #3
     67c:	f301 84c7 	bgt.w	200e <FUZ_test+0x1d7a>
     680:	9b0c      	ldr	r3, [sp, #48]	; 0x30
     682:	ee18 0a90 	vmov	r0, s17
     686:	9300      	str	r3, [sp, #0]
     688:	4651      	mov	r1, sl
     68a:	9b0d      	ldr	r3, [sp, #52]	; 0x34
     68c:	9a05      	ldr	r2, [sp, #20]
     68e:	f7ff fffe 	bl	0 <LZ4_compress_HC>
     692:	9014      	str	r0, [sp, #80]	; 0x50
     694:	2800      	cmp	r0, #0
     696:	f004 8081 	beq.w	479c <FUZ_test+0x4508>
     69a:	f8df 344c 	ldr.w	r3, [pc, #1100]	; ae8 <FUZ_test+0x854>
     69e:	f10b 0402 	add.w	r4, fp, #2
     6a2:	447b      	add	r3, pc
     6a4:	681b      	ldr	r3, [r3, #0]
     6a6:	2b03      	cmp	r3, #3
     6a8:	f301 8493 	bgt.w	1fd2 <FUZ_test+0x1d3e>
     6ac:	9b0c      	ldr	r3, [sp, #48]	; 0x30
     6ae:	ee18 1a90 	vmov	r1, s17
     6b2:	9301      	str	r3, [sp, #4]
     6b4:	ee1b 0a90 	vmov	r0, s23
     6b8:	9b0d      	ldr	r3, [sp, #52]	; 0x34
     6ba:	4652      	mov	r2, sl
     6bc:	9300      	str	r3, [sp, #0]
     6be:	9b05      	ldr	r3, [sp, #20]
     6c0:	f7ff fffe 	bl	0 <LZ4_compress_HC_extStateHC>
     6c4:	2800      	cmp	r0, #0
     6c6:	f004 804f 	beq.w	4768 <FUZ_test+0x44d4>
     6ca:	f8df 3420 	ldr.w	r3, [pc, #1056]	; aec <FUZ_test+0x858>
     6ce:	f10b 0403 	add.w	r4, fp, #3
     6d2:	447b      	add	r3, pc
     6d4:	681b      	ldr	r3, [r3, #0]
     6d6:	2b03      	cmp	r3, #3
     6d8:	f301 8557 	bgt.w	218a <FUZ_test+0x1ef6>
     6dc:	9b0c      	ldr	r3, [sp, #48]	; 0x30
     6de:	ee18 1a90 	vmov	r1, s17
     6e2:	9301      	str	r3, [sp, #4]
     6e4:	ee1b 0a90 	vmov	r0, s23
     6e8:	9b0d      	ldr	r3, [sp, #52]	; 0x34
     6ea:	4652      	mov	r2, sl
     6ec:	9300      	str	r3, [sp, #0]
     6ee:	9b05      	ldr	r3, [sp, #20]
     6f0:	f7ff fffe 	bl	0 <LZ4_compress_HC_extStateHC_fastReset>
     6f4:	2800      	cmp	r0, #0
     6f6:	f004 801d 	beq.w	4734 <FUZ_test+0x44a0>
     6fa:	4bfd      	ldr	r3, [pc, #1012]	; (af0 <FUZ_test+0x85c>)
     6fc:	f10b 0604 	add.w	r6, fp, #4
     700:	447b      	add	r3, pc
     702:	681b      	ldr	r3, [r3, #0]
     704:	2b03      	cmp	r3, #3
     706:	f301 8522 	bgt.w	214e <FUZ_test+0x1eba>
     70a:	9b0d      	ldr	r3, [sp, #52]	; 0x34
     70c:	ee18 1a90 	vmov	r1, s17
     710:	9300      	str	r3, [sp, #0]
     712:	ee1b 0a10 	vmov	r0, s22
     716:	2308      	movs	r3, #8
     718:	4652      	mov	r2, sl
     71a:	9301      	str	r3, [sp, #4]
     71c:	9b05      	ldr	r3, [sp, #20]
     71e:	f7ff fffe 	bl	0 <LZ4_compress_fast_extState>
     722:	4604      	mov	r4, r0
     724:	2800      	cmp	r0, #0
     726:	f003 87eb 	beq.w	4700 <FUZ_test+0x446c>
     72a:	4bf2      	ldr	r3, [pc, #968]	; (af4 <FUZ_test+0x860>)
     72c:	f10b 0605 	add.w	r6, fp, #5
     730:	447b      	add	r3, pc
     732:	681b      	ldr	r3, [r3, #0]
     734:	2b03      	cmp	r3, #3
     736:	f301 8546 	bgt.w	21c6 <FUZ_test+0x1f32>
     73a:	2308      	movs	r3, #8
     73c:	ee18 1a90 	vmov	r1, s17
     740:	9301      	str	r3, [sp, #4]
     742:	ee1b 0a10 	vmov	r0, s22
     746:	1e63      	subs	r3, r4, #1
     748:	4652      	mov	r2, sl
     74a:	9300      	str	r3, [sp, #0]
     74c:	9b05      	ldr	r3, [sp, #20]
     74e:	f7ff fffe 	bl	0 <LZ4_compress_fast_extState>
     752:	2800      	cmp	r0, #0
     754:	f043 87ba 	bne.w	46cc <FUZ_test+0x4438>
     758:	4be7      	ldr	r3, [pc, #924]	; (af8 <FUZ_test+0x864>)
     75a:	f10b 0806 	add.w	r8, fp, #6
     75e:	447b      	add	r3, pc
     760:	681b      	ldr	r3, [r3, #0]
     762:	2b03      	cmp	r3, #3
     764:	f301 84d5 	bgt.w	2112 <FUZ_test+0x1e7e>
     768:	9b0f      	ldr	r3, [sp, #60]	; 0x3c
     76a:	2c02      	cmp	r4, #2
     76c:	9a05      	ldr	r2, [sp, #20]
     76e:	4625      	mov	r5, r4
     770:	bfb8      	it	lt
     772:	2502      	movlt	r5, #2
     774:	ee18 1a90 	vmov	r1, s17
     778:	f843 2c48 	str.w	r2, [r3, #-72]
     77c:	3d01      	subs	r5, #1
     77e:	2308      	movs	r3, #8
     780:	ee1b 0a10 	vmov	r0, s22
     784:	9301      	str	r3, [sp, #4]
     786:	4652      	mov	r2, sl
     788:	ee19 3a90 	vmov	r3, s19
     78c:	9500      	str	r5, [sp, #0]
     78e:	f7ff fffe 	bl	0 <LZ4_compress_destSize_extState>
     792:	2800      	cmp	r0, #0
     794:	f004 81d6 	beq.w	4b44 <FUZ_test+0x48b0>
     798:	42ac      	cmp	r4, r5
     79a:	dd06      	ble.n	7aa <FUZ_test+0x516>
     79c:	9b0f      	ldr	r3, [sp, #60]	; 0x3c
     79e:	9a05      	ldr	r2, [sp, #20]
     7a0:	f853 3c48 	ldr.w	r3, [r3, #-72]
     7a4:	4293      	cmp	r3, r2
     7a6:	f284 81b3 	bge.w	4b10 <FUZ_test+0x487c>
     7aa:	4bd4      	ldr	r3, [pc, #848]	; (afc <FUZ_test+0x868>)
     7ac:	f10b 0407 	add.w	r4, fp, #7
     7b0:	447b      	add	r3, pc
     7b2:	681b      	ldr	r3, [r3, #0]
     7b4:	2b03      	cmp	r3, #3
     7b6:	f301 8542 	bgt.w	223e <FUZ_test+0x1faa>
     7ba:	9b0d      	ldr	r3, [sp, #52]	; 0x34
     7bc:	ee18 1a90 	vmov	r1, s17
     7c0:	9300      	str	r3, [sp, #0]
     7c2:	ee1b 0a10 	vmov	r0, s22
     7c6:	2308      	movs	r3, #8
     7c8:	4652      	mov	r2, sl
     7ca:	9301      	str	r3, [sp, #4]
     7cc:	9b05      	ldr	r3, [sp, #20]
     7ce:	f7ff fffe 	bl	0 <LZ4_compress_fast_extState_fastReset>
     7d2:	2800      	cmp	r0, #0
     7d4:	f004 8182 	beq.w	4adc <FUZ_test+0x4848>
     7d8:	4bc9      	ldr	r3, [pc, #804]	; (b00 <FUZ_test+0x86c>)
     7da:	f10b 0408 	add.w	r4, fp, #8
     7de:	447b      	add	r3, pc
     7e0:	681b      	ldr	r3, [r3, #0]
     7e2:	2b03      	cmp	r3, #3
     7e4:	f301 850d 	bgt.w	2202 <FUZ_test+0x1f6e>
     7e8:	9b0d      	ldr	r3, [sp, #52]	; 0x34
     7ea:	ee18 0a90 	vmov	r0, s17
     7ee:	9a05      	ldr	r2, [sp, #20]
     7f0:	4651      	mov	r1, sl
     7f2:	f7ff fffe 	bl	0 <LZ4_compress_default>
     7f6:	1e03      	subs	r3, r0, #0
     7f8:	9312      	str	r3, [sp, #72]	; 0x48
     7fa:	f344 8155 	ble.w	4aa8 <FUZ_test+0x4814>
     7fe:	f7ff fffe 	bl	0 <malloc>
     802:	4680      	mov	r8, r0
     804:	2800      	cmp	r0, #0
     806:	f004 8142 	beq.w	4a8e <FUZ_test+0x47fa>
     80a:	9b0d      	ldr	r3, [sp, #52]	; 0x34
     80c:	9a12      	ldr	r2, [sp, #72]	; 0x48
     80e:	4293      	cmp	r3, r2
     810:	f2c4 8130 	blt.w	4a74 <FUZ_test+0x47e0>
     814:	4651      	mov	r1, sl
     816:	f10b 0409 	add.w	r4, fp, #9
     81a:	f7ff fffe 	bl	0 <memcpy>
     81e:	4bb9      	ldr	r3, [pc, #740]	; (b04 <FUZ_test+0x870>)
     820:	447b      	add	r3, pc
     822:	681b      	ldr	r3, [r3, #0]
     824:	2b03      	cmp	r3, #3
     826:	f301 8528 	bgt.w	227a <FUZ_test+0x1fe6>
     82a:	9a05      	ldr	r2, [sp, #20]
     82c:	4649      	mov	r1, r9
     82e:	4640      	mov	r0, r8
     830:	f7ff fffe 	bl	0 <LZ4_decompress_fast>
     834:	1e03      	subs	r3, r0, #0
     836:	9311      	str	r3, [sp, #68]	; 0x44
     838:	f2c4 8102 	blt.w	4a40 <FUZ_test+0x47ac>
     83c:	461a      	mov	r2, r3
     83e:	9b12      	ldr	r3, [sp, #72]	; 0x48
     840:	4293      	cmp	r3, r2
     842:	f044 80e3 	bne.w	4a0c <FUZ_test+0x4778>
     846:	9905      	ldr	r1, [sp, #20]
     848:	2200      	movs	r2, #0
     84a:	4648      	mov	r0, r9
     84c:	f7ff fffe 	bl	0 <XXH32>
     850:	9b10      	ldr	r3, [sp, #64]	; 0x40
     852:	4283      	cmp	r3, r0
     854:	f044 80c0 	bne.w	49d8 <FUZ_test+0x4744>
     858:	4bab      	ldr	r3, [pc, #684]	; (b08 <FUZ_test+0x874>)
     85a:	9a05      	ldr	r2, [sp, #20]
     85c:	447b      	add	r3, pc
     85e:	681b      	ldr	r3, [r3, #0]
     860:	b1b2      	cbz	r2, 890 <FUZ_test+0x5fc>
     862:	f10b 040a 	add.w	r4, fp, #10
     866:	2b03      	cmp	r3, #3
     868:	f302 81ad 	bgt.w	2bc6 <FUZ_test+0x2932>
     86c:	9b05      	ldr	r3, [sp, #20]
     86e:	4649      	mov	r1, r9
     870:	4640      	mov	r0, r8
     872:	1e5d      	subs	r5, r3, #1
     874:	2300      	movs	r3, #0
     876:	462a      	mov	r2, r5
     878:	f809 3005 	strb.w	r3, [r9, r5]
     87c:	f7ff fffe 	bl	0 <LZ4_decompress_fast>
     880:	2800      	cmp	r0, #0
     882:	f284 808f 	bge.w	49a4 <FUZ_test+0x4710>
     886:	f819 3005 	ldrb.w	r3, [r9, r5]
     88a:	2b00      	cmp	r3, #0
     88c:	f044 8070 	bne.w	4970 <FUZ_test+0x46dc>
     890:	4b9e      	ldr	r3, [pc, #632]	; (b0c <FUZ_test+0x878>)
     892:	1c66      	adds	r6, r4, #1
     894:	447b      	add	r3, pc
     896:	681b      	ldr	r3, [r3, #0]
     898:	2b03      	cmp	r3, #3
     89a:	f301 850c 	bgt.w	22b6 <FUZ_test+0x2022>
     89e:	9b05      	ldr	r3, [sp, #20]
     8a0:	4649      	mov	r1, r9
     8a2:	4640      	mov	r0, r8
     8a4:	f103 0b01 	add.w	fp, r3, #1
     8a8:	465a      	mov	r2, fp
     8aa:	f7ff fffe 	bl	0 <LZ4_decompress_fast>
     8ae:	2800      	cmp	r0, #0
     8b0:	f284 8044 	bge.w	493c <FUZ_test+0x46a8>
     8b4:	4b96      	ldr	r3, [pc, #600]	; (b10 <FUZ_test+0x87c>)
     8b6:	1ca5      	adds	r5, r4, #2
     8b8:	447b      	add	r3, pc
     8ba:	681b      	ldr	r3, [r3, #0]
     8bc:	2b03      	cmp	r3, #3
     8be:	f301 8515 	bgt.w	22ec <FUZ_test+0x2058>
     8c2:	9e05      	ldr	r6, [sp, #20]
     8c4:	2700      	movs	r7, #0
     8c6:	9a11      	ldr	r2, [sp, #68]	; 0x44
     8c8:	4649      	mov	r1, r9
     8ca:	4633      	mov	r3, r6
     8cc:	4640      	mov	r0, r8
     8ce:	f809 7006 	strb.w	r7, [r9, r6]
     8d2:	f7ff fffe 	bl	0 <LZ4_decompress_safe>
     8d6:	eb09 0306 	add.w	r3, r9, r6
     8da:	1e07      	subs	r7, r0, #0
     8dc:	9308      	str	r3, [sp, #32]
     8de:	f2c4 8013 	blt.w	4908 <FUZ_test+0x4674>
     8e2:	9b05      	ldr	r3, [sp, #20]
     8e4:	42bb      	cmp	r3, r7
     8e6:	f043 87f5 	bne.w	48d4 <FUZ_test+0x4640>
     8ea:	9b08      	ldr	r3, [sp, #32]
     8ec:	781a      	ldrb	r2, [r3, #0]
     8ee:	2a00      	cmp	r2, #0
     8f0:	f043 87d6 	bne.w	48a0 <FUZ_test+0x460c>
     8f4:	9905      	ldr	r1, [sp, #20]
     8f6:	4648      	mov	r0, r9
     8f8:	f7ff fffe 	bl	0 <XXH32>
     8fc:	9b10      	ldr	r3, [sp, #64]	; 0x40
     8fe:	4283      	cmp	r3, r0
     900:	f043 87b4 	bne.w	486c <FUZ_test+0x45d8>
     904:	4b83      	ldr	r3, [pc, #524]	; (b14 <FUZ_test+0x880>)
     906:	1ce2      	adds	r2, r4, #3
     908:	9213      	str	r2, [sp, #76]	; 0x4c
     90a:	447b      	add	r3, pc
     90c:	681b      	ldr	r3, [r3, #0]
     90e:	2b03      	cmp	r3, #3
     910:	f301 8507 	bgt.w	2322 <FUZ_test+0x208e>
     914:	9d08      	ldr	r5, [sp, #32]
     916:	465b      	mov	r3, fp
     918:	9a11      	ldr	r2, [sp, #68]	; 0x44
     91a:	4649      	mov	r1, r9
     91c:	4640      	mov	r0, r8
     91e:	2600      	movs	r6, #0
     920:	802e      	strh	r6, [r5, #0]
     922:	f7ff fffe 	bl	0 <LZ4_decompress_safe>
     926:	2800      	cmp	r0, #0
     928:	f2c3 80c4 	blt.w	3ab4 <FUZ_test+0x3820>
     92c:	4287      	cmp	r7, r0
     92e:	f043 80a7 	bne.w	3a80 <FUZ_test+0x37ec>
     932:	f819 200b 	ldrb.w	r2, [r9, fp]
     936:	2a00      	cmp	r2, #0
     938:	f043 8088 	bne.w	3a4c <FUZ_test+0x37b8>
     93c:	9905      	ldr	r1, [sp, #20]
     93e:	4648      	mov	r0, r9
     940:	f7ff fffe 	bl	0 <XXH32>
     944:	9b10      	ldr	r3, [sp, #64]	; 0x40
     946:	4283      	cmp	r3, r0
     948:	f043 8066 	bne.w	3a18 <FUZ_test+0x3784>
     94c:	4b72      	ldr	r3, [pc, #456]	; (b18 <FUZ_test+0x884>)
     94e:	1d26      	adds	r6, r4, #4
     950:	447b      	add	r3, pc
     952:	681b      	ldr	r3, [r3, #0]
     954:	9309      	str	r3, [sp, #36]	; 0x24
     956:	2f00      	cmp	r7, #0
     958:	f001 8181 	beq.w	1c5e <FUZ_test+0x19ca>
     95c:	2b03      	cmp	r3, #3
     95e:	f302 811a 	bgt.w	2b96 <FUZ_test+0x2902>
     962:	9b05      	ldr	r3, [sp, #20]
     964:	f04f 0c00 	mov.w	ip, #0
     968:	9a11      	ldr	r2, [sp, #68]	; 0x44
     96a:	4649      	mov	r1, r9
     96c:	1e5d      	subs	r5, r3, #1
     96e:	4640      	mov	r0, r8
     970:	1e7b      	subs	r3, r7, #1
     972:	f809 c005 	strb.w	ip, [r9, r5]
     976:	f7ff fffe 	bl	0 <LZ4_decompress_safe>
     97a:	2800      	cmp	r0, #0
     97c:	f282 85f6 	bge.w	356c <FUZ_test+0x32d8>
     980:	f819 3005 	ldrb.w	r3, [r9, r5]
     984:	2b00      	cmp	r3, #0
     986:	f042 85d7 	bne.w	3538 <FUZ_test+0x32a4>
     98a:	4b64      	ldr	r3, [pc, #400]	; (b1c <FUZ_test+0x888>)
     98c:	3405      	adds	r4, #5
     98e:	447b      	add	r3, pc
     990:	681b      	ldr	r3, [r3, #0]
     992:	2b03      	cmp	r3, #3
     994:	f302 82b0 	bgt.w	2ef8 <FUZ_test+0x2c64>
     998:	2f0a      	cmp	r7, #10
     99a:	f341 817e 	ble.w	1c9a <FUZ_test+0x1a06>
     99e:	9b05      	ldr	r3, [sp, #20]
     9a0:	f04f 0c00 	mov.w	ip, #0
     9a4:	9a11      	ldr	r2, [sp, #68]	; 0x44
     9a6:	4649      	mov	r1, r9
     9a8:	f1a3 050a 	sub.w	r5, r3, #10
     9ac:	4640      	mov	r0, r8
     9ae:	f1a7 030a 	sub.w	r3, r7, #10
     9b2:	f809 c005 	strb.w	ip, [r9, r5]
     9b6:	f7ff fffe 	bl	0 <LZ4_decompress_safe>
     9ba:	2800      	cmp	r0, #0
     9bc:	f282 8641 	bge.w	3642 <FUZ_test+0x33ae>
     9c0:	f819 3005 	ldrb.w	r3, [r9, r5]
     9c4:	2b00      	cmp	r3, #0
     9c6:	f042 8622 	bne.w	360e <FUZ_test+0x337a>
     9ca:	4b55      	ldr	r3, [pc, #340]	; (b20 <FUZ_test+0x88c>)
     9cc:	9613      	str	r6, [sp, #76]	; 0x4c
     9ce:	447b      	add	r3, pc
     9d0:	681b      	ldr	r3, [r3, #0]
     9d2:	9309      	str	r3, [sp, #36]	; 0x24
     9d4:	9b12      	ldr	r3, [sp, #72]	; 0x48
     9d6:	2600      	movs	r6, #0
     9d8:	3601      	adds	r6, #1
     9da:	085b      	lsrs	r3, r3, #1
     9dc:	d1fc      	bne.n	9d8 <FUZ_test+0x744>
     9de:	9b0b      	ldr	r3, [sp, #44]	; 0x2c
     9e0:	4631      	mov	r1, r6
     9e2:	9816      	ldr	r0, [sp, #88]	; 0x58
     9e4:	9a0a      	ldr	r2, [sp, #40]	; 0x28
     9e6:	fb03 f000 	mul.w	r0, r3, r0
     9ea:	4050      	eors	r0, r2
     9ec:	ea4f 40f0 	mov.w	r0, r0, ror #19
     9f0:	fb03 f400 	mul.w	r4, r3, r0
     9f4:	4054      	eors	r4, r2
     9f6:	f7ff fffe 	bl	0 <__aeabi_uidivmod>
     9fa:	2001      	movs	r0, #1
     9fc:	ea4f 44f4 	mov.w	r4, r4, ror #19
     a00:	fa00 f501 	lsl.w	r5, r0, r1
     a04:	9912      	ldr	r1, [sp, #72]	; 0x48
     a06:	3d01      	subs	r5, #1
     a08:	4025      	ands	r5, r4
     a0a:	42a9      	cmp	r1, r5
     a0c:	f240 8091 	bls.w	b32 <FUZ_test+0x89e>
     a10:	ee08 aa10 	vmov	s16, sl
     a14:	ee0c 7a90 	vmov	s25, r7
     a18:	46c2      	mov	sl, r8
     a1a:	4637      	mov	r7, r6
     a1c:	e9dd 8b0a 	ldrd	r8, fp, [sp, #40]	; 0x28
     a20:	460e      	mov	r6, r1
     a22:	ee0c 9a10 	vmov	s24, r9
     a26:	e035      	b.n	a94 <FUZ_test+0x800>
     a28:	2301      	movs	r3, #1
     a2a:	3901      	subs	r1, #1
     a2c:	fa03 f101 	lsl.w	r1, r3, r1
     a30:	3901      	subs	r1, #1
     a32:	4021      	ands	r1, r4
     a34:	4419      	add	r1, r3
     a36:	fb0b f404 	mul.w	r4, fp, r4
     a3a:	1b72      	subs	r2, r6, r5
     a3c:	428a      	cmp	r2, r1
     a3e:	ea84 0408 	eor.w	r4, r4, r8
     a42:	bf28      	it	cs
     a44:	460a      	movcs	r2, r1
     a46:	f5c2 1100 	rsb	r1, r2, #2097152	; 0x200000
     a4a:	4691      	mov	r9, r2
     a4c:	ea4f 44f4 	mov.w	r4, r4, ror #19
     a50:	4620      	mov	r0, r4
     a52:	f7ff fffe 	bl	0 <__aeabi_uidivmod>
     a56:	9b0e      	ldr	r3, [sp, #56]	; 0x38
     a58:	464a      	mov	r2, r9
     a5a:	eb0a 0005 	add.w	r0, sl, r5
     a5e:	4419      	add	r1, r3
     a60:	f7ff fffe 	bl	0 <memcpy>
     a64:	fb0b f004 	mul.w	r0, fp, r4
     a68:	4639      	mov	r1, r7
     a6a:	ea80 0008 	eor.w	r0, r0, r8
     a6e:	ea4f 40f0 	mov.w	r0, r0, ror #19
     a72:	fb0b f400 	mul.w	r4, fp, r0
     a76:	f7ff fffe 	bl	0 <__aeabi_uidivmod>
     a7a:	2301      	movs	r3, #1
     a7c:	ea84 0408 	eor.w	r4, r4, r8
     a80:	fa03 f101 	lsl.w	r1, r3, r1
     a84:	ea4f 44f4 	mov.w	r4, r4, ror #19
     a88:	3901      	subs	r1, #1
     a8a:	4021      	ands	r1, r4
     a8c:	4449      	add	r1, r9
     a8e:	440d      	add	r5, r1
     a90:	42ae      	cmp	r6, r5
     a92:	d947      	bls.n	b24 <FUZ_test+0x890>
     a94:	fb0b f404 	mul.w	r4, fp, r4
     a98:	4639      	mov	r1, r7
     a9a:	ea84 0408 	eor.w	r4, r4, r8
     a9e:	ea4f 44f4 	mov.w	r4, r4, ror #19
     aa2:	4620      	mov	r0, r4
     aa4:	f7ff fffe 	bl	0 <__aeabi_uidivmod>
     aa8:	fb0b f404 	mul.w	r4, fp, r4
     aac:	ea84 0408 	eor.w	r4, r4, r8
     ab0:	ea4f 44f4 	mov.w	r4, r4, ror #19
     ab4:	2900      	cmp	r1, #0
     ab6:	d1b7      	bne.n	a28 <FUZ_test+0x794>
     ab8:	2101      	movs	r1, #1
     aba:	e7bc      	b.n	a36 <FUZ_test+0x7a2>
     abc:	00000000 	.word	0x00000000
     ac0:	00000800 	.word	0x00000800
     ac4:	000007ae 	.word	0x000007ae
     ac8:	000007ae 	.word	0x000007ae
     acc:	00000000 	.word	0x00000000
     ad0:	0000079e 	.word	0x0000079e
     ad4:	000005d0 	.word	0x000005d0
     ad8:	0000058e 	.word	0x0000058e
     adc:	0000051e 	.word	0x0000051e
     ae0:	000004a8 	.word	0x000004a8
     ae4:	00000474 	.word	0x00000474
     ae8:	00000442 	.word	0x00000442
     aec:	00000416 	.word	0x00000416
     af0:	000003ec 	.word	0x000003ec
     af4:	000003c0 	.word	0x000003c0
     af8:	00000396 	.word	0x00000396
     afc:	00000348 	.word	0x00000348
     b00:	0000031e 	.word	0x0000031e
     b04:	000002e0 	.word	0x000002e0
     b08:	000002a8 	.word	0x000002a8
     b0c:	00000274 	.word	0x00000274
     b10:	00000254 	.word	0x00000254
     b14:	00000206 	.word	0x00000206
     b18:	000001c4 	.word	0x000001c4
     b1c:	0000018a 	.word	0x0000018a
     b20:	0000014e 	.word	0x0000014e
     b24:	46d0      	mov	r8, sl
     b26:	ee1c 9a10 	vmov	r9, s24
     b2a:	ee18 aa10 	vmov	sl, s16
     b2e:	ee1c 7a90 	vmov	r7, s25
     b32:	9b13      	ldr	r3, [sp, #76]	; 0x4c
     b34:	1c9e      	adds	r6, r3, #2
     b36:	9b09      	ldr	r3, [sp, #36]	; 0x24
     b38:	2b03      	cmp	r3, #3
     b3a:	f301 8443 	bgt.w	23c4 <FUZ_test+0x2130>
     b3e:	9b08      	ldr	r3, [sp, #32]
     b40:	4649      	mov	r1, r9
     b42:	9a18      	ldr	r2, [sp, #96]	; 0x60
     b44:	4640      	mov	r0, r8
     b46:	601a      	str	r2, [r3, #0]
     b48:	463b      	mov	r3, r7
     b4a:	9a11      	ldr	r2, [sp, #68]	; 0x44
     b4c:	f7ff fffe 	bl	0 <LZ4_decompress_safe>
     b50:	4287      	cmp	r7, r0
     b52:	f2c2 853f 	blt.w	35d4 <FUZ_test+0x3340>
     b56:	9b08      	ldr	r3, [sp, #32]
     b58:	9a18      	ldr	r2, [sp, #96]	; 0x60
     b5a:	681b      	ldr	r3, [r3, #0]
     b5c:	4293      	cmp	r3, r2
     b5e:	f042 851f 	bne.w	35a0 <FUZ_test+0x330c>
     b62:	4640      	mov	r0, r8
     b64:	f7ff fffe 	bl	0 <free>
     b68:	f8df 3cd8 	ldr.w	r3, [pc, #3288]	; 1844 <FUZ_test+0x15b0>
     b6c:	9a13      	ldr	r2, [sp, #76]	; 0x4c
     b6e:	447b      	add	r3, pc
     b70:	1cd6      	adds	r6, r2, #3
     b72:	681b      	ldr	r3, [r3, #0]
     b74:	2b03      	cmp	r3, #3
     b76:	f301 840a 	bgt.w	238e <FUZ_test+0x20fa>
     b7a:	9b11      	ldr	r3, [sp, #68]	; 0x44
     b7c:	4649      	mov	r1, r9
     b7e:	4650      	mov	r0, sl
     b80:	f103 38ff 	add.w	r8, r3, #4294967295	; 0xffffffff
     b84:	463b      	mov	r3, r7
     b86:	4642      	mov	r2, r8
     b88:	f7ff fffe 	bl	0 <LZ4_decompress_safe>
     b8c:	2800      	cmp	r0, #0
     b8e:	f282 8633 	bge.w	37f8 <FUZ_test+0x3564>
     b92:	f8df 3cb4 	ldr.w	r3, [pc, #3252]	; 1848 <FUZ_test+0x15b4>
     b96:	9a13      	ldr	r2, [sp, #76]	; 0x4c
     b98:	447b      	add	r3, pc
     b9a:	3204      	adds	r2, #4
     b9c:	9209      	str	r2, [sp, #36]	; 0x24
     b9e:	681b      	ldr	r3, [r3, #0]
     ba0:	2b03      	cmp	r3, #3
     ba2:	f301 83d9 	bgt.w	2358 <FUZ_test+0x20c4>
     ba6:	9e08      	ldr	r6, [sp, #32]
     ba8:	2500      	movs	r5, #0
     baa:	9a11      	ldr	r2, [sp, #68]	; 0x44
     bac:	463b      	mov	r3, r7
     bae:	4649      	mov	r1, r9
     bb0:	4650      	mov	r0, sl
     bb2:	3201      	adds	r2, #1
     bb4:	7035      	strb	r5, [r6, #0]
     bb6:	f7ff fffe 	bl	0 <LZ4_decompress_safe>
     bba:	42a8      	cmp	r0, r5
     bbc:	f282 8602 	bge.w	37c4 <FUZ_test+0x3530>
     bc0:	9b08      	ldr	r3, [sp, #32]
     bc2:	781b      	ldrb	r3, [r3, #0]
     bc4:	2b00      	cmp	r3, #0
     bc6:	f042 85e3 	bne.w	3790 <FUZ_test+0x34fc>
     bca:	f8df 3c80 	ldr.w	r3, [pc, #3200]	; 184c <FUZ_test+0x15b8>
     bce:	447b      	add	r3, pc
     bd0:	681b      	ldr	r3, [r3, #0]
     bd2:	2f00      	cmp	r7, #0
     bd4:	f000 8117 	beq.w	e06 <FUZ_test+0xb72>
     bd8:	9a13      	ldr	r2, [sp, #76]	; 0x4c
     bda:	2b03      	cmp	r3, #3
     bdc:	f102 0605 	add.w	r6, r2, #5
     be0:	f302 816c 	bgt.w	2ebc <FUZ_test+0x2c28>
     be4:	9d0b      	ldr	r5, [sp, #44]	; 0x2c
     be6:	9b0a      	ldr	r3, [sp, #40]	; 0x28
     be8:	f8dd b014 	ldr.w	fp, [sp, #20]
     bec:	fb05 f404 	mul.w	r4, r5, r4
     bf0:	4659      	mov	r1, fp
     bf2:	405c      	eors	r4, r3
     bf4:	ea4f 44f4 	mov.w	r4, r4, ror #19
     bf8:	4620      	mov	r0, r4
     bfa:	f7ff fffe 	bl	0 <__aeabi_uidivmod>
     bfe:	9b0a      	ldr	r3, [sp, #40]	; 0x28
     c00:	fb05 f404 	mul.w	r4, r5, r4
     c04:	ebab 0b01 	sub.w	fp, fp, r1
     c08:	4650      	mov	r0, sl
     c0a:	4649      	mov	r1, r9
     c0c:	405c      	eors	r4, r3
     c0e:	ee18 3a90 	vmov	r3, s17
     c12:	ea4f 44f4 	mov.w	r4, r4, ror #19
     c16:	f004 0201 	and.w	r2, r4, #1
     c1a:	f813 500b 	ldrb.w	r5, [r3, fp]
     c1e:	9b12      	ldr	r3, [sp, #72]	; 0x48
     c20:	9700      	str	r7, [sp, #0]
     c22:	f085 055a 	eor.w	r5, r5, #90	; 0x5a
     c26:	441a      	add	r2, r3
     c28:	f809 500b 	strb.w	r5, [r9, fp]
     c2c:	465b      	mov	r3, fp
     c2e:	f7ff fffe 	bl	0 <LZ4_decompress_safe_partial>
     c32:	2800      	cmp	r0, #0
     c34:	f2c2 8590 	blt.w	3758 <FUZ_test+0x34c4>
     c38:	4583      	cmp	fp, r0
     c3a:	f042 856f 	bne.w	371c <FUZ_test+0x3488>
     c3e:	f819 300b 	ldrb.w	r3, [r9, fp]
     c42:	42ab      	cmp	r3, r5
     c44:	f042 854d 	bne.w	36e2 <FUZ_test+0x344e>
     c48:	ee18 0a90 	vmov	r0, s17
     c4c:	465a      	mov	r2, fp
     c4e:	4649      	mov	r1, r9
     c50:	f7ff fffe 	bl	0 <memcmp>
     c54:	2800      	cmp	r0, #0
     c56:	f042 852a 	bne.w	36ae <FUZ_test+0x341a>
     c5a:	f8df 3bf4 	ldr.w	r3, [pc, #3060]	; 1850 <FUZ_test+0x15bc>
     c5e:	9a13      	ldr	r2, [sp, #76]	; 0x4c
     c60:	447b      	add	r3, pc
     c62:	1d96      	adds	r6, r2, #6
     c64:	681b      	ldr	r3, [r3, #0]
     c66:	2b03      	cmp	r3, #3
     c68:	f301 87e1 	bgt.w	2c2e <FUZ_test+0x299a>
     c6c:	9d0b      	ldr	r5, [sp, #44]	; 0x2c
     c6e:	9b0a      	ldr	r3, [sp, #40]	; 0x28
     c70:	f8dd b014 	ldr.w	fp, [sp, #20]
     c74:	fb05 f404 	mul.w	r4, r5, r4
     c78:	4659      	mov	r1, fp
     c7a:	405c      	eors	r4, r3
     c7c:	ea4f 44f4 	mov.w	r4, r4, ror #19
     c80:	4620      	mov	r0, r4
     c82:	f7ff fffe 	bl	0 <__aeabi_uidivmod>
     c86:	9b0a      	ldr	r3, [sp, #40]	; 0x28
     c88:	fb05 f404 	mul.w	r4, r5, r4
     c8c:	ebab 0b01 	sub.w	fp, fp, r1
     c90:	4650      	mov	r0, sl
     c92:	4649      	mov	r1, r9
     c94:	405c      	eors	r4, r3
     c96:	ee18 3a90 	vmov	r3, s17
     c9a:	ea4f 44f4 	mov.w	r4, r4, ror #19
     c9e:	f004 0201 	and.w	r2, r4, #1
     ca2:	f813 500b 	ldrb.w	r5, [r3, fp]
     ca6:	9b12      	ldr	r3, [sp, #72]	; 0x48
     ca8:	9700      	str	r7, [sp, #0]
     caa:	f085 055a 	eor.w	r5, r5, #90	; 0x5a
     cae:	441a      	add	r2, r3
     cb0:	f809 500b 	strb.w	r5, [r9, fp]
     cb4:	2300      	movs	r3, #0
     cb6:	e9cd 3301 	strd	r3, r3, [sp, #4]
     cba:	465b      	mov	r3, fp
     cbc:	f7ff fffe 	bl	0 <LZ4_decompress_safe_partial_usingDict>
     cc0:	2800      	cmp	r0, #0
     cc2:	f2c2 84d8 	blt.w	3676 <FUZ_test+0x33e2>
     cc6:	4583      	cmp	fp, r0
     cc8:	f042 872b 	bne.w	3b22 <FUZ_test+0x388e>
     ccc:	f819 300b 	ldrb.w	r3, [r9, fp]
     cd0:	42ab      	cmp	r3, r5
     cd2:	f042 8709 	bne.w	3ae8 <FUZ_test+0x3854>
     cd6:	ee18 0a90 	vmov	r0, s17
     cda:	465a      	mov	r2, fp
     cdc:	4649      	mov	r1, r9
     cde:	f7ff fffe 	bl	0 <memcmp>
     ce2:	2800      	cmp	r0, #0
     ce4:	f044 8078 	bne.w	4dd8 <FUZ_test+0x4b44>
     ce8:	f8df 3b68 	ldr.w	r3, [pc, #2920]	; 1854 <FUZ_test+0x15c0>
     cec:	9a13      	ldr	r2, [sp, #76]	; 0x4c
     cee:	447b      	add	r3, pc
     cf0:	1dd6      	adds	r6, r2, #7
     cf2:	681b      	ldr	r3, [r3, #0]
     cf4:	2b03      	cmp	r3, #3
     cf6:	f301 8780 	bgt.w	2bfa <FUZ_test+0x2966>
     cfa:	9d0b      	ldr	r5, [sp, #44]	; 0x2c
     cfc:	9b0a      	ldr	r3, [sp, #40]	; 0x28
     cfe:	f8dd b014 	ldr.w	fp, [sp, #20]
     d02:	fb05 f404 	mul.w	r4, r5, r4
     d06:	4659      	mov	r1, fp
     d08:	405c      	eors	r4, r3
     d0a:	ea4f 44f4 	mov.w	r4, r4, ror #19
     d0e:	4620      	mov	r0, r4
     d10:	f7ff fffe 	bl	0 <__aeabi_uidivmod>
     d14:	9b0a      	ldr	r3, [sp, #40]	; 0x28
     d16:	fb05 f404 	mul.w	r4, r5, r4
     d1a:	ebab 0b01 	sub.w	fp, fp, r1
     d1e:	4650      	mov	r0, sl
     d20:	4649      	mov	r1, r9
     d22:	405c      	eors	r4, r3
     d24:	ee18 3a90 	vmov	r3, s17
     d28:	ea4f 44f4 	mov.w	r4, r4, ror #19
     d2c:	f004 0201 	and.w	r2, r4, #1
     d30:	f813 500b 	ldrb.w	r5, [r3, fp]
     d34:	9b06      	ldr	r3, [sp, #24]
     d36:	e9cd 9301 	strd	r9, r3, [sp, #4]
     d3a:	f085 055a 	eor.w	r5, r5, #90	; 0x5a
     d3e:	9b12      	ldr	r3, [sp, #72]	; 0x48
     d40:	9700      	str	r7, [sp, #0]
     d42:	441a      	add	r2, r3
     d44:	f809 500b 	strb.w	r5, [r9, fp]
     d48:	465b      	mov	r3, fp
     d4a:	f7ff fffe 	bl	0 <LZ4_decompress_safe_partial_usingDict>
     d4e:	2800      	cmp	r0, #0
     d50:	f2c4 8026 	blt.w	4da0 <FUZ_test+0x4b0c>
     d54:	4583      	cmp	fp, r0
     d56:	f044 8005 	bne.w	4d64 <FUZ_test+0x4ad0>
     d5a:	f819 300b 	ldrb.w	r3, [r9, fp]
     d5e:	42ab      	cmp	r3, r5
     d60:	f043 87e3 	bne.w	4d2a <FUZ_test+0x4a96>
     d64:	ee18 0a90 	vmov	r0, s17
     d68:	465a      	mov	r2, fp
     d6a:	4649      	mov	r1, r9
     d6c:	f7ff fffe 	bl	0 <memcmp>
     d70:	2800      	cmp	r0, #0
     d72:	f043 87c0 	bne.w	4cf6 <FUZ_test+0x4a62>
     d76:	9b13      	ldr	r3, [sp, #76]	; 0x4c
     d78:	3308      	adds	r3, #8
     d7a:	9309      	str	r3, [sp, #36]	; 0x24
     d7c:	f8df 3ad8 	ldr.w	r3, [pc, #2776]	; 1858 <FUZ_test+0x15c4>
     d80:	447b      	add	r3, pc
     d82:	681b      	ldr	r3, [r3, #0]
     d84:	2b03      	cmp	r3, #3
     d86:	f302 80bb 	bgt.w	2f00 <FUZ_test+0x2c6c>
     d8a:	9d0b      	ldr	r5, [sp, #44]	; 0x2c
     d8c:	9e0a      	ldr	r6, [sp, #40]	; 0x28
     d8e:	f8dd b014 	ldr.w	fp, [sp, #20]
     d92:	fb05 f404 	mul.w	r4, r5, r4
     d96:	4659      	mov	r1, fp
     d98:	4074      	eors	r4, r6
     d9a:	ea4f 44f4 	mov.w	r4, r4, ror #19
     d9e:	4620      	mov	r0, r4
     da0:	f7ff fffe 	bl	0 <__aeabi_uidivmod>
     da4:	ee18 3a90 	vmov	r3, s17
     da8:	ebab 0b01 	sub.w	fp, fp, r1
     dac:	fb05 f404 	mul.w	r4, r5, r4
     db0:	4649      	mov	r1, r9
     db2:	4650      	mov	r0, sl
     db4:	4074      	eors	r4, r6
     db6:	f813 500b 	ldrb.w	r5, [r3, fp]
     dba:	9b06      	ldr	r3, [sp, #24]
     dbc:	ea4f 44f4 	mov.w	r4, r4, ror #19
     dc0:	9302      	str	r3, [sp, #8]
     dc2:	f004 0201 	and.w	r2, r4, #1
     dc6:	9b15      	ldr	r3, [sp, #84]	; 0x54
     dc8:	f085 055a 	eor.w	r5, r5, #90	; 0x5a
     dcc:	e9cd 7300 	strd	r7, r3, [sp]
     dd0:	9b12      	ldr	r3, [sp, #72]	; 0x48
     dd2:	f809 500b 	strb.w	r5, [r9, fp]
     dd6:	441a      	add	r2, r3
     dd8:	465b      	mov	r3, fp
     dda:	f7ff fffe 	bl	0 <LZ4_decompress_safe_partial_usingDict>
     dde:	2800      	cmp	r0, #0
     de0:	f2c3 876d 	blt.w	4cbe <FUZ_test+0x4a2a>
     de4:	4583      	cmp	fp, r0
     de6:	f043 874c 	bne.w	4c82 <FUZ_test+0x49ee>
     dea:	f819 300b 	ldrb.w	r3, [r9, fp]
     dee:	42ab      	cmp	r3, r5
     df0:	f043 872a 	bne.w	4c48 <FUZ_test+0x49b4>
     df4:	ee18 0a90 	vmov	r0, s17
     df8:	465a      	mov	r2, fp
     dfa:	4649      	mov	r1, r9
     dfc:	f7ff fffe 	bl	0 <memcmp>
     e00:	2800      	cmp	r0, #0
     e02:	f043 8707 	bne.w	4c14 <FUZ_test+0x4980>
     e06:	f8df 3a54 	ldr.w	r3, [pc, #2644]	; 185c <FUZ_test+0x15c8>
     e0a:	9a09      	ldr	r2, [sp, #36]	; 0x24
     e0c:	447b      	add	r3, pc
     e0e:	1c56      	adds	r6, r2, #1
     e10:	681b      	ldr	r3, [r3, #0]
     e12:	2b03      	cmp	r3, #3
     e14:	f301 82f4 	bgt.w	2400 <FUZ_test+0x216c>
     e18:	9b11      	ldr	r3, [sp, #68]	; 0x44
     e1a:	ee18 0a90 	vmov	r0, s17
     e1e:	463a      	mov	r2, r7
     e20:	4651      	mov	r1, sl
     e22:	f7ff fffe 	bl	0 <LZ4_compress_default>
     e26:	2800      	cmp	r0, #0
     e28:	f003 86da 	beq.w	4be0 <FUZ_test+0x494c>
     e2c:	f8df 3a30 	ldr.w	r3, [pc, #2608]	; 1860 <FUZ_test+0x15cc>
     e30:	9a09      	ldr	r2, [sp, #36]	; 0x24
     e32:	447b      	add	r3, pc
     e34:	1c95      	adds	r5, r2, #2
     e36:	681b      	ldr	r3, [r3, #0]
     e38:	2b03      	cmp	r3, #3
     e3a:	f301 8359 	bgt.w	24f0 <FUZ_test+0x225c>
     e3e:	9b11      	ldr	r3, [sp, #68]	; 0x44
     e40:	2601      	movs	r6, #1
     e42:	9300      	str	r3, [sp, #0]
     e44:	ee18 1a90 	vmov	r1, s17
     e48:	ee1b 0a10 	vmov	r0, s22
     e4c:	463b      	mov	r3, r7
     e4e:	4652      	mov	r2, sl
     e50:	9601      	str	r6, [sp, #4]
     e52:	f7ff fffe 	bl	0 <LZ4_compress_fast_extState>
     e56:	2800      	cmp	r0, #0
     e58:	f003 86a8 	beq.w	4bac <FUZ_test+0x4918>
     e5c:	f8df 3a04 	ldr.w	r3, [pc, #2564]	; 1864 <FUZ_test+0x15d0>
     e60:	9a09      	ldr	r2, [sp, #36]	; 0x24
     e62:	447b      	add	r3, pc
     e64:	1cd5      	adds	r5, r2, #3
     e66:	681b      	ldr	r3, [r3, #0]
     e68:	2b03      	cmp	r3, #3
     e6a:	f301 8323 	bgt.w	24b4 <FUZ_test+0x2220>
     e6e:	9b0c      	ldr	r3, [sp, #48]	; 0x30
     e70:	ee18 0a90 	vmov	r0, s17
     e74:	9300      	str	r3, [sp, #0]
     e76:	463a      	mov	r2, r7
     e78:	9b14      	ldr	r3, [sp, #80]	; 0x50
     e7a:	4651      	mov	r1, sl
     e7c:	f7ff fffe 	bl	0 <LZ4_compress_HC>
     e80:	2800      	cmp	r0, #0
     e82:	f003 8679 	beq.w	4b78 <FUZ_test+0x48e4>
     e86:	f8df 39e0 	ldr.w	r3, [pc, #2528]	; 1868 <FUZ_test+0x15d4>
     e8a:	9a09      	ldr	r2, [sp, #36]	; 0x24
     e8c:	447b      	add	r3, pc
     e8e:	1d16      	adds	r6, r2, #4
     e90:	681b      	ldr	r3, [r3, #0]
     e92:	2b03      	cmp	r3, #3
     e94:	f301 82f0 	bgt.w	2478 <FUZ_test+0x21e4>
     e98:	9b0c      	ldr	r3, [sp, #48]	; 0x30
     e9a:	ee18 1a90 	vmov	r1, s17
     e9e:	9301      	str	r3, [sp, #4]
     ea0:	ee1b 0a90 	vmov	r0, s23
     ea4:	9b14      	ldr	r3, [sp, #80]	; 0x50
     ea6:	4652      	mov	r2, sl
     ea8:	9300      	str	r3, [sp, #0]
     eaa:	463b      	mov	r3, r7
     eac:	f7ff fffe 	bl	0 <LZ4_compress_HC_extStateHC>
     eb0:	2800      	cmp	r0, #0
     eb2:	f002 868a 	beq.w	3bca <FUZ_test+0x3936>
     eb6:	f8df 39b4 	ldr.w	r3, [pc, #2484]	; 186c <FUZ_test+0x15d8>
     eba:	9a09      	ldr	r2, [sp, #36]	; 0x24
     ebc:	447b      	add	r3, pc
     ebe:	1d56      	adds	r6, r2, #5
     ec0:	681b      	ldr	r3, [r3, #0]
     ec2:	2b03      	cmp	r3, #3
     ec4:	f301 82ba 	bgt.w	243c <FUZ_test+0x21a8>
     ec8:	9b0b      	ldr	r3, [sp, #44]	; 0x2c
     eca:	f244 1505 	movw	r5, #16645	; 0x4105
     ece:	f2c0 4510 	movt	r5, #1040	; 0x410
     ed2:	ee18 0a90 	vmov	r0, s17
     ed6:	463a      	mov	r2, r7
     ed8:	4651      	mov	r1, sl
     eda:	fb03 f404 	mul.w	r4, r3, r4
     ede:	9b0a      	ldr	r3, [sp, #40]	; 0x28
     ee0:	405c      	eors	r4, r3
     ee2:	ea4f 44f4 	mov.w	r4, r4, ror #19
     ee6:	fba5 3504 	umull	r3, r5, r5, r4
     eea:	1b63      	subs	r3, r4, r5
     eec:	eb05 0553 	add.w	r5, r5, r3, lsr #1
     ef0:	9b11      	ldr	r3, [sp, #68]	; 0x44
     ef2:	096d      	lsrs	r5, r5, #5
     ef4:	ebc5 1585 	rsb	r5, r5, r5, lsl #6
     ef8:	1b65      	subs	r5, r4, r5
     efa:	3501      	adds	r5, #1
     efc:	42ab      	cmp	r3, r5
     efe:	bfd8      	it	le
     f00:	4645      	movle	r5, r8
     f02:	2d00      	cmp	r5, #0
     f04:	bf08      	it	eq
     f06:	3501      	addeq	r5, #1
     f08:	eba3 0805 	sub.w	r8, r3, r5
     f0c:	2300      	movs	r3, #0
     f0e:	f80a 3008 	strb.w	r3, [sl, r8]
     f12:	4643      	mov	r3, r8
     f14:	f7ff fffe 	bl	0 <LZ4_compress_default>
     f18:	2800      	cmp	r0, #0
     f1a:	f042 863b 	bne.w	3b94 <FUZ_test+0x3900>
     f1e:	f81a 3008 	ldrb.w	r3, [sl, r8]
     f22:	2b00      	cmp	r3, #0
     f24:	f042 861b 	bne.w	3b5e <FUZ_test+0x38ca>
     f28:	f8df 3944 	ldr.w	r3, [pc, #2372]	; 1870 <FUZ_test+0x15dc>
     f2c:	9a09      	ldr	r2, [sp, #36]	; 0x24
     f2e:	447b      	add	r3, pc
     f30:	1d96      	adds	r6, r2, #6
     f32:	681b      	ldr	r3, [r3, #0]
     f34:	2b03      	cmp	r3, #3
     f36:	f301 835d 	bgt.w	25f4 <FUZ_test+0x2360>
     f3a:	9b0b      	ldr	r3, [sp, #44]	; 0x2c
     f3c:	f244 1505 	movw	r5, #16645	; 0x4105
     f40:	f2c0 4510 	movt	r5, #1040	; 0x410
     f44:	f04f 0c00 	mov.w	ip, #0
     f48:	ee18 0a90 	vmov	r0, s17
     f4c:	463a      	mov	r2, r7
     f4e:	4651      	mov	r1, sl
     f50:	fb03 f804 	mul.w	r8, r3, r4
     f54:	9b0a      	ldr	r3, [sp, #40]	; 0x28
     f56:	ea88 0803 	eor.w	r8, r8, r3
     f5a:	ea4f 48f8 	mov.w	r8, r8, ror #19
     f5e:	fba5 3508 	umull	r3, r5, r5, r8
     f62:	eba8 0305 	sub.w	r3, r8, r5
     f66:	eb05 0553 	add.w	r5, r5, r3, lsr #1
     f6a:	9b14      	ldr	r3, [sp, #80]	; 0x50
     f6c:	096d      	lsrs	r5, r5, #5
     f6e:	ebc5 1585 	rsb	r5, r5, r5, lsl #6
     f72:	eba8 0505 	sub.w	r5, r8, r5
     f76:	3501      	adds	r5, #1
     f78:	42ab      	cmp	r3, r5
     f7a:	bfd8      	it	le
     f7c:	f103 35ff 	addle.w	r5, r3, #4294967295	; 0xffffffff
     f80:	9b0c      	ldr	r3, [sp, #48]	; 0x30
     f82:	9300      	str	r3, [sp, #0]
     f84:	2d00      	cmp	r5, #0
     f86:	bf08      	it	eq
     f88:	3501      	addeq	r5, #1
     f8a:	9b14      	ldr	r3, [sp, #80]	; 0x50
     f8c:	1b5c      	subs	r4, r3, r5
     f8e:	4623      	mov	r3, r4
     f90:	f80a c004 	strb.w	ip, [sl, r4]
     f94:	f7ff fffe 	bl	0 <LZ4_compress_HC>
     f98:	2800      	cmp	r0, #0
     f9a:	f044 82ba 	bne.w	5512 <FUZ_test+0x527e>
     f9e:	f81a 3004 	ldrb.w	r3, [sl, r4]
     fa2:	2b00      	cmp	r3, #0
     fa4:	f044 829d 	bne.w	54e2 <FUZ_test+0x524e>
     fa8:	f8df 38c8 	ldr.w	r3, [pc, #2248]	; 1874 <FUZ_test+0x15e0>
     fac:	9a09      	ldr	r2, [sp, #36]	; 0x24
     fae:	447b      	add	r3, pc
     fb0:	f102 0b07 	add.w	fp, r2, #7
     fb4:	681b      	ldr	r3, [r3, #0]
     fb6:	2b03      	cmp	r3, #3
     fb8:	f301 82fd 	bgt.w	25b6 <FUZ_test+0x2322>
     fbc:	f50d 4481 	add.w	r4, sp, #16512	; 0x4080
     fc0:	f244 0120 	movw	r1, #16416	; 0x4020
     fc4:	343c      	adds	r4, #60	; 0x3c
     fc6:	2601      	movs	r6, #1
     fc8:	4620      	mov	r0, r4
     fca:	f7ff fffe 	bl	0 <LZ4_initStream>
     fce:	9d0d      	ldr	r5, [sp, #52]	; 0x34
     fd0:	9b06      	ldr	r3, [sp, #24]
     fd2:	4652      	mov	r2, sl
     fd4:	9915      	ldr	r1, [sp, #84]	; 0x54
     fd6:	4620      	mov	r0, r4
     fd8:	9500      	str	r5, [sp, #0]
     fda:	9601      	str	r6, [sp, #4]
     fdc:	f7ff fffe 	bl	0 <LZ4_compress_fast_continue>
     fe0:	e9cd 5600 	strd	r5, r6, [sp]
     fe4:	ee18 1a90 	vmov	r1, s17
     fe8:	463b      	mov	r3, r7
     fea:	4652      	mov	r2, sl
     fec:	4620      	mov	r0, r4
     fee:	f7ff fffe 	bl	0 <LZ4_compress_fast_continue>
     ff2:	4605      	mov	r5, r0
     ff4:	2800      	cmp	r0, #0
     ff6:	f004 825d 	beq.w	54b4 <FUZ_test+0x5220>
     ffa:	f8df 387c 	ldr.w	r3, [pc, #2172]	; 1878 <FUZ_test+0x15e4>
     ffe:	9a09      	ldr	r2, [sp, #36]	; 0x24
    1000:	447b      	add	r3, pc
    1002:	f102 0b08 	add.w	fp, r2, #8
    1006:	681b      	ldr	r3, [r3, #0]
    1008:	2b03      	cmp	r3, #3
    100a:	f301 82b6 	bgt.w	257a <FUZ_test+0x22e6>
    100e:	9b06      	ldr	r3, [sp, #24]
    1010:	2b00      	cmp	r3, #0
    1012:	f041 82a9 	bne.w	2568 <FUZ_test+0x22d4>
    1016:	9b06      	ldr	r3, [sp, #24]
    1018:	463a      	mov	r2, r7
    101a:	9300      	str	r3, [sp, #0]
    101c:	4650      	mov	r0, sl
    101e:	eb09 0603 	add.w	r6, r9, r3
    1022:	464b      	mov	r3, r9
    1024:	4631      	mov	r1, r6
    1026:	f7ff fffe 	bl	0 <LZ4_decompress_fast_usingDict>
    102a:	4285      	cmp	r5, r0
    102c:	f044 805f 	bne.w	50ee <FUZ_test+0x4e5a>
    1030:	9905      	ldr	r1, [sp, #20]
    1032:	2200      	movs	r2, #0
    1034:	4630      	mov	r0, r6
    1036:	f7ff fffe 	bl	0 <XXH32>
    103a:	9b10      	ldr	r3, [sp, #64]	; 0x40
    103c:	4283      	cmp	r3, r0
    103e:	f044 8039 	bne.w	50b4 <FUZ_test+0x4e20>
    1042:	f8df 3838 	ldr.w	r3, [pc, #2104]	; 187c <FUZ_test+0x15e8>
    1046:	9a09      	ldr	r2, [sp, #36]	; 0x24
    1048:	447b      	add	r3, pc
    104a:	f102 0b09 	add.w	fp, r2, #9
    104e:	681b      	ldr	r3, [r3, #0]
    1050:	2b03      	cmp	r3, #3
    1052:	f301 826b 	bgt.w	252c <FUZ_test+0x2298>
    1056:	9b06      	ldr	r3, [sp, #24]
    1058:	462a      	mov	r2, r5
    105a:	e9cd 9300 	strd	r9, r3, [sp]
    105e:	4631      	mov	r1, r6
    1060:	463b      	mov	r3, r7
    1062:	4650      	mov	r0, sl
    1064:	f7ff fffe 	bl	0 <LZ4_decompress_safe_usingDict>
    1068:	4287      	cmp	r7, r0
    106a:	f044 800a 	bne.w	5082 <FUZ_test+0x4dee>
    106e:	9905      	ldr	r1, [sp, #20]
    1070:	4630      	mov	r0, r6
    1072:	2200      	movs	r2, #0
    1074:	f7ff fffe 	bl	0 <XXH32>
    1078:	9b10      	ldr	r3, [sp, #64]	; 0x40
    107a:	4283      	cmp	r3, r0
    107c:	f043 87e7 	bne.w	504e <FUZ_test+0x4dba>
    1080:	f8df 37fc 	ldr.w	r3, [pc, #2044]	; 1880 <FUZ_test+0x15ec>
    1084:	9a09      	ldr	r2, [sp, #36]	; 0x24
    1086:	447b      	add	r3, pc
    1088:	f102 0b0a 	add.w	fp, r2, #10
    108c:	681b      	ldr	r3, [r3, #0]
    108e:	2b03      	cmp	r3, #3
    1090:	f301 82ce 	bgt.w	2630 <FUZ_test+0x239c>
    1094:	9b0b      	ldr	r3, [sp, #44]	; 0x2c
    1096:	ee19 0a10 	vmov	r0, s18
    109a:	9915      	ldr	r1, [sp, #84]	; 0x54
    109c:	2601      	movs	r6, #1
    109e:	9a06      	ldr	r2, [sp, #24]
    10a0:	fb03 f808 	mul.w	r8, r3, r8
    10a4:	9b0a      	ldr	r3, [sp, #40]	; 0x28
    10a6:	ea88 0803 	eor.w	r8, r8, r3
    10aa:	ea4f 43f8 	mov.w	r3, r8, ror #19
    10ae:	9316      	str	r3, [sp, #88]	; 0x58
    10b0:	f003 030f 	and.w	r3, r3, #15
    10b4:	43db      	mvns	r3, r3
    10b6:	4419      	add	r1, r3
    10b8:	460b      	mov	r3, r1
    10ba:	990e      	ldr	r1, [sp, #56]	; 0x38
    10bc:	428b      	cmp	r3, r1
    10be:	bf38      	it	cc
    10c0:	460b      	movcc	r3, r1
    10c2:	ee08 3a10 	vmov	s16, r3
    10c6:	4619      	mov	r1, r3
    10c8:	f7ff fffe 	bl	0 <LZ4_loadDict>
    10cc:	9b0d      	ldr	r3, [sp, #52]	; 0x34
    10ce:	9300      	str	r3, [sp, #0]
    10d0:	ee18 1a90 	vmov	r1, s17
    10d4:	ee19 0a10 	vmov	r0, s18
    10d8:	463b      	mov	r3, r7
    10da:	4652      	mov	r2, sl
    10dc:	9601      	str	r6, [sp, #4]
    10de:	f7ff fffe 	bl	0 <LZ4_compress_fast_continue>
    10e2:	9013      	str	r0, [sp, #76]	; 0x4c
    10e4:	2800      	cmp	r0, #0
    10e6:	f003 8798 	beq.w	501a <FUZ_test+0x4d86>
    10ea:	f8df 3798 	ldr.w	r3, [pc, #1944]	; 1884 <FUZ_test+0x15f0>
    10ee:	9a09      	ldr	r2, [sp, #36]	; 0x24
    10f0:	447b      	add	r3, pc
    10f2:	f102 080b 	add.w	r8, r2, #11
    10f6:	681b      	ldr	r3, [r3, #0]
    10f8:	2b03      	cmp	r3, #3
    10fa:	f301 82e9 	bgt.w	26d0 <FUZ_test+0x243c>
    10fe:	9a06      	ldr	r2, [sp, #24]
    1100:	ee18 1a10 	vmov	r1, s16
    1104:	ee19 0a10 	vmov	r0, s18
    1108:	f7ff fffe 	bl	0 <LZ4_loadDict>
    110c:	9b13      	ldr	r3, [sp, #76]	; 0x4c
    110e:	2b00      	cmp	r3, #0
    1110:	f343 8776 	ble.w	5000 <FUZ_test+0x4d6c>
    1114:	3b01      	subs	r3, #1
    1116:	ee18 1a90 	vmov	r1, s17
    111a:	9300      	str	r3, [sp, #0]
    111c:	ee19 0a10 	vmov	r0, s18
    1120:	f04f 0b01 	mov.w	fp, #1
    1124:	463b      	mov	r3, r7
    1126:	4652      	mov	r2, sl
    1128:	f8cd b004 	str.w	fp, [sp, #4]
    112c:	f7ff fffe 	bl	0 <LZ4_compress_fast_continue>
    1130:	2800      	cmp	r0, #0
    1132:	f303 8746 	bgt.w	4fc2 <FUZ_test+0x4d2e>
    1136:	f8df 6750 	ldr.w	r6, [pc, #1872]	; 1888 <FUZ_test+0x15f4>
    113a:	9b09      	ldr	r3, [sp, #36]	; 0x24
    113c:	447e      	add	r6, pc
    113e:	f103 080c 	add.w	r8, r3, #12
    1142:	6833      	ldr	r3, [r6, #0]
    1144:	2b03      	cmp	r3, #3
    1146:	f301 8291 	bgt.w	266c <FUZ_test+0x23d8>
    114a:	9a06      	ldr	r2, [sp, #24]
    114c:	ee18 1a10 	vmov	r1, s16
    1150:	ee19 0a10 	vmov	r0, s18
    1154:	f04f 0b01 	mov.w	fp, #1
    1158:	f7ff fffe 	bl	0 <LZ4_loadDict>
    115c:	9e13      	ldr	r6, [sp, #76]	; 0x4c
    115e:	ee18 1a90 	vmov	r1, s17
    1162:	ee19 0a10 	vmov	r0, s18
    1166:	463b      	mov	r3, r7
    1168:	4652      	mov	r2, sl
    116a:	9600      	str	r6, [sp, #0]
    116c:	f8cd b004 	str.w	fp, [sp, #4]
    1170:	f7ff fffe 	bl	0 <LZ4_compress_fast_continue>
    1174:	4286      	cmp	r6, r0
    1176:	f043 8705 	bne.w	4f84 <FUZ_test+0x4cf0>
    117a:	f8df 6710 	ldr.w	r6, [pc, #1808]	; 188c <FUZ_test+0x15f8>
    117e:	9b09      	ldr	r3, [sp, #36]	; 0x24
    1180:	447e      	add	r6, pc
    1182:	f103 080d 	add.w	r8, r3, #13
    1186:	6833      	ldr	r3, [r6, #0]
    1188:	2b03      	cmp	r3, #3
    118a:	f301 82bf 	bgt.w	270c <FUZ_test+0x2478>
    118e:	9d08      	ldr	r5, [sp, #32]
    1190:	463a      	mov	r2, r7
    1192:	9b06      	ldr	r3, [sp, #24]
    1194:	4649      	mov	r1, r9
    1196:	9300      	str	r3, [sp, #0]
    1198:	4650      	mov	r0, sl
    119a:	ee18 3a10 	vmov	r3, s16
    119e:	2600      	movs	r6, #0
    11a0:	702e      	strb	r6, [r5, #0]
    11a2:	f7ff fffe 	bl	0 <LZ4_decompress_fast_usingDict>
    11a6:	9b13      	ldr	r3, [sp, #76]	; 0x4c
    11a8:	4283      	cmp	r3, r0
    11aa:	f043 86d1 	bne.w	4f50 <FUZ_test+0x4cbc>
    11ae:	9b08      	ldr	r3, [sp, #32]
    11b0:	781a      	ldrb	r2, [r3, #0]
    11b2:	2a00      	cmp	r2, #0
    11b4:	f043 86b2 	bne.w	4f1c <FUZ_test+0x4c88>
    11b8:	9905      	ldr	r1, [sp, #20]
    11ba:	4648      	mov	r0, r9
    11bc:	f7ff fffe 	bl	0 <XXH32>
    11c0:	9b10      	ldr	r3, [sp, #64]	; 0x40
    11c2:	4283      	cmp	r3, r0
    11c4:	f043 868a 	bne.w	4edc <FUZ_test+0x4c48>
    11c8:	f8df 36c4 	ldr.w	r3, [pc, #1732]	; 1890 <FUZ_test+0x15fc>
    11cc:	9a09      	ldr	r2, [sp, #36]	; 0x24
    11ce:	447b      	add	r3, pc
    11d0:	320e      	adds	r2, #14
    11d2:	9211      	str	r2, [sp, #68]	; 0x44
    11d4:	681b      	ldr	r3, [r3, #0]
    11d6:	2b03      	cmp	r3, #3
    11d8:	f301 82e6 	bgt.w	27a8 <FUZ_test+0x2514>
    11dc:	9d08      	ldr	r5, [sp, #32]
    11de:	4649      	mov	r1, r9
    11e0:	9b06      	ldr	r3, [sp, #24]
    11e2:	4650      	mov	r0, sl
    11e4:	9301      	str	r3, [sp, #4]
    11e6:	2600      	movs	r6, #0
    11e8:	ed8d 8a00 	vstr	s16, [sp]
    11ec:	463b      	mov	r3, r7
    11ee:	9a13      	ldr	r2, [sp, #76]	; 0x4c
    11f0:	702e      	strb	r6, [r5, #0]
    11f2:	f7ff fffe 	bl	0 <LZ4_decompress_safe_usingDict>
    11f6:	4287      	cmp	r7, r0
    11f8:	f043 8656 	bne.w	4ea8 <FUZ_test+0x4c14>
    11fc:	9b08      	ldr	r3, [sp, #32]
    11fe:	781a      	ldrb	r2, [r3, #0]
    1200:	2a00      	cmp	r2, #0
    1202:	f043 8637 	bne.w	4e74 <FUZ_test+0x4be0>
    1206:	9905      	ldr	r1, [sp, #20]
    1208:	4648      	mov	r0, r9
    120a:	f7ff fffe 	bl	0 <XXH32>
    120e:	9b10      	ldr	r3, [sp, #64]	; 0x40
    1210:	4283      	cmp	r3, r0
    1212:	f043 8615 	bne.w	4e40 <FUZ_test+0x4bac>
    1216:	f8df 367c 	ldr.w	r3, [pc, #1660]	; 1894 <FUZ_test+0x1600>
    121a:	447b      	add	r3, pc
    121c:	681a      	ldr	r2, [r3, #0]
    121e:	2f00      	cmp	r7, #0
    1220:	f000 8542 	beq.w	1ca8 <FUZ_test+0x1a14>
    1224:	9b09      	ldr	r3, [sp, #36]	; 0x24
    1226:	2a03      	cmp	r2, #3
    1228:	f103 0b0f 	add.w	fp, r3, #15
    122c:	f301 86a1 	bgt.w	2f72 <FUZ_test+0x2cde>
    1230:	9b06      	ldr	r3, [sp, #24]
    1232:	f107 38ff 	add.w	r8, r7, #4294967295	; 0xffffffff
    1236:	9300      	str	r3, [sp, #0]
    1238:	f04f 0c00 	mov.w	ip, #0
    123c:	9b05      	ldr	r3, [sp, #20]
    123e:	4642      	mov	r2, r8
    1240:	4649      	mov	r1, r9
    1242:	4650      	mov	r0, sl
    1244:	1e5e      	subs	r6, r3, #1
    1246:	ee18 3a10 	vmov	r3, s16
    124a:	f809 c006 	strb.w	ip, [r9, r6]
    124e:	f7ff fffe 	bl	0 <LZ4_decompress_fast_usingDict>
    1252:	2800      	cmp	r0, #0
    1254:	f283 85da 	bge.w	4e0c <FUZ_test+0x4b78>
    1258:	f819 3006 	ldrb.w	r3, [r9, r6]
    125c:	2b00      	cmp	r3, #0
    125e:	f043 810e 	bne.w	447e <FUZ_test+0x41ea>
    1262:	f8df 3634 	ldr.w	r3, [pc, #1588]	; 1898 <FUZ_test+0x1604>
    1266:	9a09      	ldr	r2, [sp, #36]	; 0x24
    1268:	447b      	add	r3, pc
    126a:	3210      	adds	r2, #16
    126c:	9211      	str	r2, [sp, #68]	; 0x44
    126e:	681b      	ldr	r3, [r3, #0]
    1270:	2b03      	cmp	r3, #3
    1272:	f301 8663 	bgt.w	2f3c <FUZ_test+0x2ca8>
    1276:	9a06      	ldr	r2, [sp, #24]
    1278:	f04f 0c00 	mov.w	ip, #0
    127c:	9201      	str	r2, [sp, #4]
    127e:	4643      	mov	r3, r8
    1280:	ed8d 8a00 	vstr	s16, [sp]
    1284:	4649      	mov	r1, r9
    1286:	9a13      	ldr	r2, [sp, #76]	; 0x4c
    1288:	4650      	mov	r0, sl
    128a:	f809 c006 	strb.w	ip, [r9, r6]
    128e:	f7ff fffe 	bl	0 <LZ4_decompress_safe_usingDict>
    1292:	2800      	cmp	r0, #0
    1294:	f283 80d9 	bge.w	444a <FUZ_test+0x41b6>
    1298:	f819 3006 	ldrb.w	r3, [r9, r6]
    129c:	2b00      	cmp	r3, #0
    129e:	f043 80ba 	bne.w	4416 <FUZ_test+0x4182>
    12a2:	9a0b      	ldr	r2, [sp, #44]	; 0x2c
    12a4:	9b16      	ldr	r3, [sp, #88]	; 0x58
    12a6:	fb02 f303 	mul.w	r3, r2, r3
    12aa:	9a09      	ldr	r2, [sp, #36]	; 0x24
    12ac:	f102 0b11 	add.w	fp, r2, #17
    12b0:	9a0a      	ldr	r2, [sp, #40]	; 0x28
    12b2:	4053      	eors	r3, r2
    12b4:	ea4f 42f3 	mov.w	r2, r3, ror #19
    12b8:	f8df 35e0 	ldr.w	r3, [pc, #1504]	; 189c <FUZ_test+0x1608>
    12bc:	f002 060f 	and.w	r6, r2, #15
    12c0:	9215      	str	r2, [sp, #84]	; 0x54
    12c2:	447b      	add	r3, pc
    12c4:	3602      	adds	r6, #2
    12c6:	681b      	ldr	r3, [r3, #0]
    12c8:	2b03      	cmp	r3, #3
    12ca:	f301 824f 	bgt.w	276c <FUZ_test+0x24d8>
    12ce:	42b7      	cmp	r7, r6
    12d0:	f340 84fe 	ble.w	1cd0 <FUZ_test+0x1a3c>
    12d4:	1bbd      	subs	r5, r7, r6
    12d6:	9b06      	ldr	r3, [sp, #24]
    12d8:	9301      	str	r3, [sp, #4]
    12da:	f04f 0c00 	mov.w	ip, #0
    12de:	ed8d 8a00 	vstr	s16, [sp]
    12e2:	462b      	mov	r3, r5
    12e4:	9a13      	ldr	r2, [sp, #76]	; 0x4c
    12e6:	4649      	mov	r1, r9
    12e8:	4650      	mov	r0, sl
    12ea:	f809 c005 	strb.w	ip, [r9, r5]
    12ee:	f7ff fffe 	bl	0 <LZ4_decompress_safe_usingDict>
    12f2:	2800      	cmp	r0, #0
    12f4:	f283 8074 	bge.w	43e0 <FUZ_test+0x414c>
    12f8:	f819 3005 	ldrb.w	r3, [r9, r5]
    12fc:	2b00      	cmp	r3, #0
    12fe:	f043 8053 	bne.w	43a8 <FUZ_test+0x4114>
    1302:	f8df 359c 	ldr.w	r3, [pc, #1436]	; 18a0 <FUZ_test+0x160c>
    1306:	9a11      	ldr	r2, [sp, #68]	; 0x44
    1308:	447b      	add	r3, pc
    130a:	1c96      	adds	r6, r2, #2
    130c:	681b      	ldr	r3, [r3, #0]
    130e:	2b03      	cmp	r3, #3
    1310:	dd1b      	ble.n	134a <FUZ_test+0x10b6>
    1312:	f8df 1590 	ldr.w	r1, [pc, #1424]	; 18a4 <FUZ_test+0x1610>
    1316:	ee1a 2a10 	vmov	r2, s20
    131a:	4633      	mov	r3, r6
    131c:	2001      	movs	r0, #1
    131e:	4479      	add	r1, pc
    1320:	f7ff fffe 	bl	0 <__printf_chk>
    1324:	f8df 1580 	ldr.w	r1, [pc, #1408]	; 18a8 <FUZ_test+0x1614>
    1328:	2001      	movs	r0, #1
    132a:	4479      	add	r1, pc
    132c:	f7ff fffe 	bl	0 <__printf_chk>
    1330:	f8df 1578 	ldr.w	r1, [pc, #1400]	; 18ac <FUZ_test+0x1618>
    1334:	2001      	movs	r0, #1
    1336:	4479      	add	r1, pc
    1338:	f7ff fffe 	bl	0 <__printf_chk>
    133c:	f8df 3570 	ldr.w	r3, [pc, #1392]	; 18b0 <FUZ_test+0x161c>
    1340:	9a07      	ldr	r2, [sp, #28]
    1342:	58d3      	ldr	r3, [r2, r3]
    1344:	6818      	ldr	r0, [r3, #0]
    1346:	f7ff fffe 	bl	0 <fflush>
    134a:	9a06      	ldr	r2, [sp, #24]
    134c:	ee18 1a10 	vmov	r1, s16
    1350:	ee19 0a10 	vmov	r0, s18
    1354:	f04f 0801 	mov.w	r8, #1
    1358:	f7ff fffe 	bl	0 <LZ4_loadDict>
    135c:	9b0d      	ldr	r3, [sp, #52]	; 0x34
    135e:	9300      	str	r3, [sp, #0]
    1360:	ee18 1a90 	vmov	r1, s17
    1364:	ee19 0a10 	vmov	r0, s18
    1368:	463b      	mov	r3, r7
    136a:	4652      	mov	r2, sl
    136c:	f8cd 8004 	str.w	r8, [sp, #4]
    1370:	f7ff fffe 	bl	0 <LZ4_compress_fast_continue>
    1374:	f1b0 0b00 	subs.w	fp, r0, #0
    1378:	f342 87fc 	ble.w	4374 <FUZ_test+0x40e0>
    137c:	2200      	movs	r2, #0
    137e:	4659      	mov	r1, fp
    1380:	4650      	mov	r0, sl
    1382:	f7ff fffe 	bl	0 <XXH32>
    1386:	f8df 352c 	ldr.w	r3, [pc, #1324]	; 18b4 <FUZ_test+0x1620>
    138a:	9a11      	ldr	r2, [sp, #68]	; 0x44
    138c:	447b      	add	r3, pc
    138e:	9009      	str	r0, [sp, #36]	; 0x24
    1390:	1cd5      	adds	r5, r2, #3
    1392:	681b      	ldr	r3, [r3, #0]
    1394:	2b03      	cmp	r3, #3
    1396:	f301 8222 	bgt.w	27de <FUZ_test+0x254a>
    139a:	9a06      	ldr	r2, [sp, #24]
    139c:	ee18 1a10 	vmov	r1, s16
    13a0:	ee19 0a10 	vmov	r0, s18
    13a4:	f7ff fffe 	bl	0 <LZ4_loadDict>
    13a8:	f244 0120 	movw	r1, #16416	; 0x4020
    13ac:	4620      	mov	r0, r4
    13ae:	f7ff fffe 	bl	0 <LZ4_initStream>
    13b2:	ee19 1a10 	vmov	r1, s18
    13b6:	4620      	mov	r0, r4
    13b8:	f7ff fffe 	bl	0 <LZ4_attach_dictionary>
    13bc:	9b0d      	ldr	r3, [sp, #52]	; 0x34
    13be:	9300      	str	r3, [sp, #0]
    13c0:	ee18 1a90 	vmov	r1, s17
    13c4:	2301      	movs	r3, #1
    13c6:	4652      	mov	r2, sl
    13c8:	9301      	str	r3, [sp, #4]
    13ca:	4620      	mov	r0, r4
    13cc:	463b      	mov	r3, r7
    13ce:	f7ff fffe 	bl	0 <LZ4_compress_fast_continue>
    13d2:	4606      	mov	r6, r0
    13d4:	2800      	cmp	r0, #0
    13d6:	f002 87b3 	beq.w	4340 <FUZ_test+0x40ac>
    13da:	4583      	cmp	fp, r0
    13dc:	f042 8794 	bne.w	4308 <FUZ_test+0x4074>
    13e0:	4659      	mov	r1, fp
    13e2:	2200      	movs	r2, #0
    13e4:	4650      	mov	r0, sl
    13e6:	f7ff fffe 	bl	0 <XXH32>
    13ea:	9b09      	ldr	r3, [sp, #36]	; 0x24
    13ec:	4298      	cmp	r0, r3
    13ee:	f042 8771 	bne.w	42d4 <FUZ_test+0x4040>
    13f2:	f8df 34c4 	ldr.w	r3, [pc, #1220]	; 18b8 <FUZ_test+0x1624>
    13f6:	9a11      	ldr	r2, [sp, #68]	; 0x44
    13f8:	447b      	add	r3, pc
    13fa:	1d15      	adds	r5, r2, #4
    13fc:	681b      	ldr	r3, [r3, #0]
    13fe:	2b03      	cmp	r3, #3
    1400:	f301 8226 	bgt.w	2850 <FUZ_test+0x25bc>
    1404:	4620      	mov	r0, r4
    1406:	f04f 0b01 	mov.w	fp, #1
    140a:	f7ff fffe 	bl	0 <LZ4_resetStream_fast>
    140e:	ee19 1a10 	vmov	r1, s18
    1412:	4620      	mov	r0, r4
    1414:	f7ff fffe 	bl	0 <LZ4_attach_dictionary>
    1418:	1e73      	subs	r3, r6, #1
    141a:	ee18 1a90 	vmov	r1, s17
    141e:	9300      	str	r3, [sp, #0]
    1420:	4652      	mov	r2, sl
    1422:	463b      	mov	r3, r7
    1424:	4620      	mov	r0, r4
    1426:	f8cd b004 	str.w	fp, [sp, #4]
    142a:	f7ff fffe 	bl	0 <LZ4_compress_fast_continue>
    142e:	2800      	cmp	r0, #0
    1430:	f302 8733 	bgt.w	429a <FUZ_test+0x4006>
    1434:	f8df 3484 	ldr.w	r3, [pc, #1156]	; 18bc <FUZ_test+0x1628>
    1438:	9a11      	ldr	r2, [sp, #68]	; 0x44
    143a:	447b      	add	r3, pc
    143c:	1d55      	adds	r5, r2, #5
    143e:	681b      	ldr	r3, [r3, #0]
    1440:	2b03      	cmp	r3, #3
    1442:	f301 81ea 	bgt.w	281a <FUZ_test+0x2586>
    1446:	4620      	mov	r0, r4
    1448:	f04f 0b01 	mov.w	fp, #1
    144c:	f7ff fffe 	bl	0 <LZ4_resetStream_fast>
    1450:	ee19 1a10 	vmov	r1, s18
    1454:	4620      	mov	r0, r4
    1456:	f7ff fffe 	bl	0 <LZ4_attach_dictionary>
    145a:	ee18 1a90 	vmov	r1, s17
    145e:	463b      	mov	r3, r7
    1460:	4652      	mov	r2, sl
    1462:	4620      	mov	r0, r4
    1464:	9600      	str	r6, [sp, #0]
    1466:	f8cd b004 	str.w	fp, [sp, #4]
    146a:	f7ff fffe 	bl	0 <LZ4_compress_fast_continue>
    146e:	4286      	cmp	r6, r0
    1470:	f041 8647 	bne.w	3102 <FUZ_test+0x2e6e>
    1474:	2200      	movs	r2, #0
    1476:	4631      	mov	r1, r6
    1478:	4650      	mov	r0, sl
    147a:	f7ff fffe 	bl	0 <XXH32>
    147e:	9b09      	ldr	r3, [sp, #36]	; 0x24
    1480:	4298      	cmp	r0, r3
    1482:	f042 86f0 	bne.w	4266 <FUZ_test+0x3fd2>
    1486:	f8df 3438 	ldr.w	r3, [pc, #1080]	; 18c0 <FUZ_test+0x162c>
    148a:	9a11      	ldr	r2, [sp, #68]	; 0x44
    148c:	447b      	add	r3, pc
    148e:	f102 0806 	add.w	r8, r2, #6
    1492:	681b      	ldr	r3, [r3, #0]
    1494:	2b03      	cmp	r3, #3
    1496:	f301 8212 	bgt.w	28be <FUZ_test+0x262a>
    149a:	4620      	mov	r0, r4
    149c:	f04f 0b01 	mov.w	fp, #1
    14a0:	f7ff fffe 	bl	0 <LZ4_resetStream_fast>
    14a4:	ee19 1a10 	vmov	r1, s18
    14a8:	4620      	mov	r0, r4
    14aa:	f7ff fffe 	bl	0 <LZ4_attach_dictionary>
    14ae:	ee18 1a90 	vmov	r1, s17
    14b2:	4620      	mov	r0, r4
    14b4:	463b      	mov	r3, r7
    14b6:	4652      	mov	r2, sl
    14b8:	9600      	str	r6, [sp, #0]
    14ba:	f8cd b004 	str.w	fp, [sp, #4]
    14be:	f7ff fffe 	bl	0 <LZ4_compress_fast_continue>
    14c2:	4286      	cmp	r6, r0
    14c4:	f041 8600 	bne.w	30c8 <FUZ_test+0x2e34>
    14c8:	2200      	movs	r2, #0
    14ca:	4631      	mov	r1, r6
    14cc:	4650      	mov	r0, sl
    14ce:	f7ff fffe 	bl	0 <XXH32>
    14d2:	9b09      	ldr	r3, [sp, #36]	; 0x24
    14d4:	4298      	cmp	r0, r3
    14d6:	f042 8235 	bne.w	3944 <FUZ_test+0x36b0>
    14da:	4bfa      	ldr	r3, [pc, #1000]	; (18c4 <FUZ_test+0x1630>)
    14dc:	9a11      	ldr	r2, [sp, #68]	; 0x44
    14de:	447b      	add	r3, pc
    14e0:	f102 0807 	add.w	r8, r2, #7
    14e4:	681b      	ldr	r3, [r3, #0]
    14e6:	2b03      	cmp	r3, #3
    14e8:	f301 81cf 	bgt.w	288a <FUZ_test+0x25f6>
    14ec:	9d08      	ldr	r5, [sp, #32]
    14ee:	463a      	mov	r2, r7
    14f0:	9b06      	ldr	r3, [sp, #24]
    14f2:	4649      	mov	r1, r9
    14f4:	9300      	str	r3, [sp, #0]
    14f6:	4650      	mov	r0, sl
    14f8:	ee18 3a10 	vmov	r3, s16
    14fc:	2400      	movs	r4, #0
    14fe:	702c      	strb	r4, [r5, #0]
    1500:	f7ff fffe 	bl	0 <LZ4_decompress_fast_usingDict>
    1504:	4286      	cmp	r6, r0
    1506:	f041 87fd 	bne.w	3504 <FUZ_test+0x3270>
    150a:	9b08      	ldr	r3, [sp, #32]
    150c:	781a      	ldrb	r2, [r3, #0]
    150e:	2a00      	cmp	r2, #0
    1510:	f042 841d 	bne.w	3d4e <FUZ_test+0x3aba>
    1514:	9905      	ldr	r1, [sp, #20]
    1516:	4648      	mov	r0, r9
    1518:	f7ff fffe 	bl	0 <XXH32>
    151c:	9b10      	ldr	r3, [sp, #64]	; 0x40
    151e:	4283      	cmp	r3, r0
    1520:	f042 83f5 	bne.w	3d0e <FUZ_test+0x3a7a>
    1524:	4be8      	ldr	r3, [pc, #928]	; (18c8 <FUZ_test+0x1634>)
    1526:	9a11      	ldr	r2, [sp, #68]	; 0x44
    1528:	447b      	add	r3, pc
    152a:	f102 0b08 	add.w	fp, r2, #8
    152e:	681b      	ldr	r3, [r3, #0]
    1530:	2b03      	cmp	r3, #3
    1532:	f301 81de 	bgt.w	28f2 <FUZ_test+0x265e>
    1536:	9d08      	ldr	r5, [sp, #32]
    1538:	4632      	mov	r2, r6
    153a:	9b06      	ldr	r3, [sp, #24]
    153c:	4649      	mov	r1, r9
    153e:	9301      	str	r3, [sp, #4]
    1540:	4650      	mov	r0, sl
    1542:	ed8d 8a00 	vstr	s16, [sp]
    1546:	463b      	mov	r3, r7
    1548:	2400      	movs	r4, #0
    154a:	702c      	strb	r4, [r5, #0]
    154c:	f7ff fffe 	bl	0 <LZ4_decompress_safe_usingDict>
    1550:	4287      	cmp	r7, r0
    1552:	f042 83c2 	bne.w	3cda <FUZ_test+0x3a46>
    1556:	9b08      	ldr	r3, [sp, #32]
    1558:	781a      	ldrb	r2, [r3, #0]
    155a:	2a00      	cmp	r2, #0
    155c:	f042 83a3 	bne.w	3ca6 <FUZ_test+0x3a12>
    1560:	9905      	ldr	r1, [sp, #20]
    1562:	4648      	mov	r0, r9
    1564:	f7ff fffe 	bl	0 <XXH32>
    1568:	9b10      	ldr	r3, [sp, #64]	; 0x40
    156a:	4283      	cmp	r3, r0
    156c:	f041 8655 	bne.w	321a <FUZ_test+0x2f86>
    1570:	4bd6      	ldr	r3, [pc, #856]	; (18cc <FUZ_test+0x1638>)
    1572:	447b      	add	r3, pc
    1574:	681b      	ldr	r3, [r3, #0]
    1576:	2f00      	cmp	r7, #0
    1578:	f000 83ae 	beq.w	1cd8 <FUZ_test+0x1a44>
    157c:	9a11      	ldr	r2, [sp, #68]	; 0x44
    157e:	2b03      	cmp	r3, #3
    1580:	f102 0b09 	add.w	fp, r2, #9
    1584:	f301 8510 	bgt.w	2fa8 <FUZ_test+0x2d14>
    1588:	9b06      	ldr	r3, [sp, #24]
    158a:	1e7d      	subs	r5, r7, #1
    158c:	9300      	str	r3, [sp, #0]
    158e:	f04f 0c00 	mov.w	ip, #0
    1592:	9b05      	ldr	r3, [sp, #20]
    1594:	462a      	mov	r2, r5
    1596:	4649      	mov	r1, r9
    1598:	4650      	mov	r0, sl
    159a:	1e5c      	subs	r4, r3, #1
    159c:	ee18 3a10 	vmov	r3, s16
    15a0:	f809 c004 	strb.w	ip, [r9, r4]
    15a4:	f7ff fffe 	bl	0 <LZ4_decompress_fast_usingDict>
    15a8:	2800      	cmp	r0, #0
    15aa:	f281 861c 	bge.w	31e6 <FUZ_test+0x2f52>
    15ae:	f819 3004 	ldrb.w	r3, [r9, r4]
    15b2:	2b00      	cmp	r3, #0
    15b4:	f041 85fd 	bne.w	31b2 <FUZ_test+0x2f1e>
    15b8:	4bc5      	ldr	r3, [pc, #788]	; (18d0 <FUZ_test+0x163c>)
    15ba:	9a11      	ldr	r2, [sp, #68]	; 0x44
    15bc:	447b      	add	r3, pc
    15be:	f102 0b0a 	add.w	fp, r2, #10
    15c2:	681b      	ldr	r3, [r3, #0]
    15c4:	2b03      	cmp	r3, #3
    15c6:	f301 850a 	bgt.w	2fde <FUZ_test+0x2d4a>
    15ca:	9a06      	ldr	r2, [sp, #24]
    15cc:	462b      	mov	r3, r5
    15ce:	9201      	str	r2, [sp, #4]
    15d0:	2500      	movs	r5, #0
    15d2:	ed8d 8a00 	vstr	s16, [sp]
    15d6:	4632      	mov	r2, r6
    15d8:	4649      	mov	r1, r9
    15da:	4650      	mov	r0, sl
    15dc:	f809 5004 	strb.w	r5, [r9, r4]
    15e0:	f7ff fffe 	bl	0 <LZ4_decompress_safe_usingDict>
    15e4:	42a8      	cmp	r0, r5
    15e6:	f281 85ca 	bge.w	317e <FUZ_test+0x2eea>
    15ea:	f819 3004 	ldrb.w	r3, [r9, r4]
    15ee:	2b00      	cmp	r3, #0
    15f0:	f041 85ab 	bne.w	314a <FUZ_test+0x2eb6>
    15f4:	9b0b      	ldr	r3, [sp, #44]	; 0x2c
    15f6:	9c15      	ldr	r4, [sp, #84]	; 0x54
    15f8:	fb03 f404 	mul.w	r4, r3, r4
    15fc:	9b11      	ldr	r3, [sp, #68]	; 0x44
    15fe:	f103 080b 	add.w	r8, r3, #11
    1602:	9b0a      	ldr	r3, [sp, #40]	; 0x28
    1604:	405c      	eors	r4, r3
    1606:	4bb3      	ldr	r3, [pc, #716]	; (18d4 <FUZ_test+0x1640>)
    1608:	447b      	add	r3, pc
    160a:	ea4f 44f4 	mov.w	r4, r4, ror #19
    160e:	f004 050f 	and.w	r5, r4, #15
    1612:	3502      	adds	r5, #2
    1614:	681b      	ldr	r3, [r3, #0]
    1616:	2b03      	cmp	r3, #3
    1618:	f301 8185 	bgt.w	2926 <FUZ_test+0x2692>
    161c:	42bd      	cmp	r5, r7
    161e:	bfa8      	it	ge
    1620:	f10b 0602 	addge.w	r6, fp, #2
    1624:	f2c1 819d 	blt.w	2962 <FUZ_test+0x26ce>
    1628:	9b0b      	ldr	r3, [sp, #44]	; 0x2c
    162a:	ee18 2a10 	vmov	r2, s16
    162e:	990c      	ldr	r1, [sp, #48]	; 0x30
    1630:	ee1a 0a90 	vmov	r0, s21
    1634:	fb03 f404 	mul.w	r4, r3, r4
    1638:	9b0a      	ldr	r3, [sp, #40]	; 0x28
    163a:	405c      	eors	r4, r3
    163c:	ea4f 43f4 	mov.w	r3, r4, ror #19
    1640:	9309      	str	r3, [sp, #36]	; 0x24
    1642:	f003 0307 	and.w	r3, r3, #7
    1646:	ee1a 4a90 	vmov	r4, s21
    164a:	1ad3      	subs	r3, r2, r3
    164c:	9a0e      	ldr	r2, [sp, #56]	; 0x38
    164e:	429a      	cmp	r2, r3
    1650:	bf38      	it	cc
    1652:	461a      	movcc	r2, r3
    1654:	4690      	mov	r8, r2
    1656:	f7ff fffe 	bl	0 <LZ4_setCompressionLevel>
    165a:	9a06      	ldr	r2, [sp, #24]
    165c:	4641      	mov	r1, r8
    165e:	ee1a 0a90 	vmov	r0, s21
    1662:	f7ff fffe 	bl	0 <LZ4_loadDictHC>
    1666:	9b0d      	ldr	r3, [sp, #52]	; 0x34
    1668:	9300      	str	r3, [sp, #0]
    166a:	ee18 1a90 	vmov	r1, s17
    166e:	ee1a 0a90 	vmov	r0, s21
    1672:	463b      	mov	r3, r7
    1674:	4652      	mov	r2, sl
    1676:	f7ff fffe 	bl	0 <LZ4_compress_HC_continue>
    167a:	4605      	mov	r5, r0
    167c:	2800      	cmp	r0, #0
    167e:	f002 839e 	beq.w	3dbe <FUZ_test+0x3b2a>
    1682:	f504 2480 	add.w	r4, r4, #262144	; 0x40000
    1686:	f994 301b 	ldrsb.w	r3, [r4, #27]
    168a:	2b00      	cmp	r3, #0
    168c:	f042 8380 	bne.w	3d90 <FUZ_test+0x3afc>
    1690:	4b91      	ldr	r3, [pc, #580]	; (18d8 <FUZ_test+0x1644>)
    1692:	f10b 0603 	add.w	r6, fp, #3
    1696:	447b      	add	r3, pc
    1698:	681b      	ldr	r3, [r3, #0]
    169a:	2b03      	cmp	r3, #3
    169c:	f301 81b1 	bgt.w	2a02 <FUZ_test+0x276e>
    16a0:	9a06      	ldr	r2, [sp, #24]
    16a2:	ee1a 0a90 	vmov	r0, s21
    16a6:	4641      	mov	r1, r8
    16a8:	f7ff fffe 	bl	0 <LZ4_loadDictHC>
    16ac:	2d00      	cmp	r5, #0
    16ae:	f342 8365 	ble.w	3d7c <FUZ_test+0x3ae8>
    16b2:	1e6b      	subs	r3, r5, #1
    16b4:	ee18 1a90 	vmov	r1, s17
    16b8:	9300      	str	r3, [sp, #0]
    16ba:	ee1a 0a90 	vmov	r0, s21
    16be:	463b      	mov	r3, r7
    16c0:	4652      	mov	r2, sl
    16c2:	f7ff fffe 	bl	0 <LZ4_compress_HC_continue>
    16c6:	2800      	cmp	r0, #0
    16c8:	f302 875f 	bgt.w	458a <FUZ_test+0x42f6>
    16cc:	4b83      	ldr	r3, [pc, #524]	; (18dc <FUZ_test+0x1648>)
    16ce:	f10b 0604 	add.w	r6, fp, #4
    16d2:	447b      	add	r3, pc
    16d4:	681b      	ldr	r3, [r3, #0]
    16d6:	2b03      	cmp	r3, #3
    16d8:	f301 8176 	bgt.w	29c8 <FUZ_test+0x2734>
    16dc:	9a06      	ldr	r2, [sp, #24]
    16de:	4641      	mov	r1, r8
    16e0:	ee1a 0a90 	vmov	r0, s21
    16e4:	f7ff fffe 	bl	0 <LZ4_loadDictHC>
    16e8:	ee18 1a90 	vmov	r1, s17
    16ec:	ee1a 0a90 	vmov	r0, s21
    16f0:	463b      	mov	r3, r7
    16f2:	4652      	mov	r2, sl
    16f4:	9500      	str	r5, [sp, #0]
    16f6:	f7ff fffe 	bl	0 <LZ4_compress_HC_continue>
    16fa:	4285      	cmp	r5, r0
    16fc:	f042 8727 	bne.w	454e <FUZ_test+0x42ba>
    1700:	f994 301b 	ldrsb.w	r3, [r4, #27]
    1704:	2b00      	cmp	r3, #0
    1706:	f042 8708 	bne.w	451a <FUZ_test+0x4286>
    170a:	4b75      	ldr	r3, [pc, #468]	; (18e0 <FUZ_test+0x164c>)
    170c:	f10b 0405 	add.w	r4, fp, #5
    1710:	447b      	add	r3, pc
    1712:	681b      	ldr	r3, [r3, #0]
    1714:	2b03      	cmp	r3, #3
    1716:	f301 8191 	bgt.w	2a3c <FUZ_test+0x27a8>
    171a:	9e08      	ldr	r6, [sp, #32]
    171c:	462a      	mov	r2, r5
    171e:	9b06      	ldr	r3, [sp, #24]
    1720:	4649      	mov	r1, r9
    1722:	e9cd 8300 	strd	r8, r3, [sp]
    1726:	4650      	mov	r0, sl
    1728:	463b      	mov	r3, r7
    172a:	2500      	movs	r5, #0
    172c:	7035      	strb	r5, [r6, #0]
    172e:	f7ff fffe 	bl	0 <LZ4_decompress_safe_usingDict>
    1732:	4287      	cmp	r7, r0
    1734:	f041 86ca 	bne.w	34cc <FUZ_test+0x3238>
    1738:	9b08      	ldr	r3, [sp, #32]
    173a:	781a      	ldrb	r2, [r3, #0]
    173c:	2a00      	cmp	r2, #0
    173e:	f041 86ab 	bne.w	3498 <FUZ_test+0x3204>
    1742:	9905      	ldr	r1, [sp, #20]
    1744:	4648      	mov	r0, r9
    1746:	f7ff fffe 	bl	0 <XXH32>
    174a:	9b10      	ldr	r3, [sp, #64]	; 0x40
    174c:	4283      	cmp	r3, r0
    174e:	f041 8684 	bne.w	345a <FUZ_test+0x31c6>
    1752:	4b64      	ldr	r3, [pc, #400]	; (18e4 <FUZ_test+0x1650>)
    1754:	f10b 0206 	add.w	r2, fp, #6
    1758:	9211      	str	r2, [sp, #68]	; 0x44
    175a:	447b      	add	r3, pc
    175c:	681b      	ldr	r3, [r3, #0]
    175e:	2b03      	cmp	r3, #3
    1760:	f301 8186 	bgt.w	2a70 <FUZ_test+0x27dc>
    1764:	f7ff fffe 	bl	0 <LZ4_createStreamHC>
    1768:	9a06      	ldr	r2, [sp, #24]
    176a:	4604      	mov	r4, r0
    176c:	4641      	mov	r1, r8
    176e:	ee1a 0a90 	vmov	r0, s21
    1772:	f7ff fffe 	bl	0 <LZ4_loadDictHC>
    1776:	ee1a 1a90 	vmov	r1, s21
    177a:	4620      	mov	r0, r4
    177c:	f7ff fffe 	bl	0 <LZ4_attach_HC_dictionary>
    1780:	990c      	ldr	r1, [sp, #48]	; 0x30
    1782:	4620      	mov	r0, r4
    1784:	f7ff fffe 	bl	0 <LZ4_setCompressionLevel>
    1788:	9b0d      	ldr	r3, [sp, #52]	; 0x34
    178a:	9300      	str	r3, [sp, #0]
    178c:	ee18 1a90 	vmov	r1, s17
    1790:	463b      	mov	r3, r7
    1792:	4652      	mov	r2, sl
    1794:	4620      	mov	r0, r4
    1796:	f7ff fffe 	bl	0 <LZ4_compress_HC_continue>
    179a:	4605      	mov	r5, r0
    179c:	2800      	cmp	r0, #0
    179e:	f001 8640 	beq.w	3422 <FUZ_test+0x318e>
    17a2:	f504 2680 	add.w	r6, r4, #262144	; 0x40000
    17a6:	f996 301b 	ldrsb.w	r3, [r6, #27]
    17aa:	2b00      	cmp	r3, #0
    17ac:	f041 861d 	bne.w	33ea <FUZ_test+0x3156>
    17b0:	4b4d      	ldr	r3, [pc, #308]	; (18e8 <FUZ_test+0x1654>)
    17b2:	f10b 0207 	add.w	r2, fp, #7
    17b6:	9211      	str	r2, [sp, #68]	; 0x44
    17b8:	447b      	add	r3, pc
    17ba:	681b      	ldr	r3, [r3, #0]
    17bc:	2b03      	cmp	r3, #3
    17be:	f301 8187 	bgt.w	2ad0 <FUZ_test+0x283c>
    17c2:	990c      	ldr	r1, [sp, #48]	; 0x30
    17c4:	4620      	mov	r0, r4
    17c6:	f7ff fffe 	bl	0 <LZ4_resetStreamHC_fast>
    17ca:	ee1a 1a90 	vmov	r1, s21
    17ce:	4620      	mov	r0, r4
    17d0:	f7ff fffe 	bl	0 <LZ4_attach_HC_dictionary>
    17d4:	2d00      	cmp	r5, #0
    17d6:	f341 85fb 	ble.w	33d0 <FUZ_test+0x313c>
    17da:	1e6b      	subs	r3, r5, #1
    17dc:	ee18 1a90 	vmov	r1, s17
    17e0:	9300      	str	r3, [sp, #0]
    17e2:	4652      	mov	r2, sl
    17e4:	463b      	mov	r3, r7
    17e6:	4620      	mov	r0, r4
    17e8:	f7ff fffe 	bl	0 <LZ4_compress_HC_continue>
    17ec:	2800      	cmp	r0, #0
    17ee:	f301 85d0 	bgt.w	3392 <FUZ_test+0x30fe>
    17f2:	4b3e      	ldr	r3, [pc, #248]	; (18ec <FUZ_test+0x1658>)
    17f4:	f10b 0208 	add.w	r2, fp, #8
    17f8:	9211      	str	r2, [sp, #68]	; 0x44
    17fa:	447b      	add	r3, pc
    17fc:	681b      	ldr	r3, [r3, #0]
    17fe:	2b03      	cmp	r3, #3
    1800:	f301 814e 	bgt.w	2aa0 <FUZ_test+0x280c>
    1804:	990c      	ldr	r1, [sp, #48]	; 0x30
    1806:	4620      	mov	r0, r4
    1808:	f7ff fffe 	bl	0 <LZ4_resetStreamHC_fast>
    180c:	ee1a 1a90 	vmov	r1, s21
    1810:	4620      	mov	r0, r4
    1812:	f7ff fffe 	bl	0 <LZ4_attach_HC_dictionary>
    1816:	ee18 1a90 	vmov	r1, s17
    181a:	463b      	mov	r3, r7
    181c:	4652      	mov	r2, sl
    181e:	4620      	mov	r0, r4
    1820:	9500      	str	r5, [sp, #0]
    1822:	f7ff fffe 	bl	0 <LZ4_compress_HC_continue>
    1826:	4285      	cmp	r5, r0
    1828:	f041 8596 	bne.w	3358 <FUZ_test+0x30c4>
    182c:	f996 301b 	ldrsb.w	r3, [r6, #27]
    1830:	2b00      	cmp	r3, #0
    1832:	f041 8577 	bne.w	3324 <FUZ_test+0x3090>
    1836:	4b2e      	ldr	r3, [pc, #184]	; (18f0 <FUZ_test+0x165c>)
    1838:	f10b 0209 	add.w	r2, fp, #9
    183c:	9211      	str	r2, [sp, #68]	; 0x44
    183e:	447b      	add	r3, pc
    1840:	e058      	b.n	18f4 <FUZ_test+0x1660>
    1842:	bf00      	nop
    1844:	00000cd2 	.word	0x00000cd2
    1848:	00000cac 	.word	0x00000cac
    184c:	00000c7a 	.word	0x00000c7a
    1850:	00000bec 	.word	0x00000bec
    1854:	00000b62 	.word	0x00000b62
    1858:	00000ad4 	.word	0x00000ad4
    185c:	00000a4c 	.word	0x00000a4c
    1860:	00000a2a 	.word	0x00000a2a
    1864:	000009fe 	.word	0x000009fe
    1868:	000009d8 	.word	0x000009d8
    186c:	000009ac 	.word	0x000009ac
    1870:	0000093e 	.word	0x0000093e
    1874:	000008c2 	.word	0x000008c2
    1878:	00000874 	.word	0x00000874
    187c:	00000830 	.word	0x00000830
    1880:	000007f6 	.word	0x000007f6
    1884:	00000790 	.word	0x00000790
    1888:	00000748 	.word	0x00000748
    188c:	00000708 	.word	0x00000708
    1890:	000006be 	.word	0x000006be
    1894:	00000676 	.word	0x00000676
    1898:	0000062c 	.word	0x0000062c
    189c:	000005d6 	.word	0x000005d6
    18a0:	00000594 	.word	0x00000594
    18a4:	00000582 	.word	0x00000582
    18a8:	0000057a 	.word	0x0000057a
    18ac:	00000572 	.word	0x00000572
    18b0:	00000000 	.word	0x00000000
    18b4:	00000524 	.word	0x00000524
    18b8:	000004bc 	.word	0x000004bc
    18bc:	0000047e 	.word	0x0000047e
    18c0:	00000430 	.word	0x00000430
    18c4:	000003e2 	.word	0x000003e2
    18c8:	0000039c 	.word	0x0000039c
    18cc:	00000356 	.word	0x00000356
    18d0:	00000310 	.word	0x00000310
    18d4:	000002c8 	.word	0x000002c8
    18d8:	0000023e 	.word	0x0000023e
    18dc:	00000206 	.word	0x00000206
    18e0:	000001cc 	.word	0x000001cc
    18e4:	00000186 	.word	0x00000186
    18e8:	0000012c 	.word	0x0000012c
    18ec:	000000ee 	.word	0x000000ee
    18f0:	000000ae 	.word	0x000000ae
    18f4:	681b      	ldr	r3, [r3, #0]
    18f6:	2b03      	cmp	r3, #3
    18f8:	f301 8102 	bgt.w	2b00 <FUZ_test+0x286c>
    18fc:	990c      	ldr	r1, [sp, #48]	; 0x30
    18fe:	4620      	mov	r0, r4
    1900:	f7ff fffe 	bl	0 <LZ4_resetStreamHC_fast>
    1904:	ee1a 1a90 	vmov	r1, s21
    1908:	4620      	mov	r0, r4
    190a:	f7ff fffe 	bl	0 <LZ4_attach_HC_dictionary>
    190e:	ee18 1a90 	vmov	r1, s17
    1912:	463b      	mov	r3, r7
    1914:	4652      	mov	r2, sl
    1916:	4620      	mov	r0, r4
    1918:	9500      	str	r5, [sp, #0]
    191a:	f7ff fffe 	bl	0 <LZ4_compress_HC_continue>
    191e:	4285      	cmp	r5, r0
    1920:	f041 84e3 	bne.w	32ea <FUZ_test+0x3056>
    1924:	f996 301b 	ldrsb.w	r3, [r6, #27]
    1928:	2b00      	cmp	r3, #0
    192a:	f041 84c4 	bne.w	32b6 <FUZ_test+0x3022>
    192e:	4620      	mov	r0, r4
    1930:	f10b 040a 	add.w	r4, fp, #10
    1934:	f7ff fffe 	bl	0 <LZ4_freeStreamHC>
    1938:	f8df 34cc 	ldr.w	r3, [pc, #1228]	; 1e08 <FUZ_test+0x1b74>
    193c:	447b      	add	r3, pc
    193e:	681b      	ldr	r3, [r3, #0]
    1940:	2b03      	cmp	r3, #3
    1942:	f301 80f5 	bgt.w	2b30 <FUZ_test+0x289c>
    1946:	9e08      	ldr	r6, [sp, #32]
    1948:	462a      	mov	r2, r5
    194a:	9b06      	ldr	r3, [sp, #24]
    194c:	4649      	mov	r1, r9
    194e:	e9cd 8300 	strd	r8, r3, [sp]
    1952:	4650      	mov	r0, sl
    1954:	463b      	mov	r3, r7
    1956:	2500      	movs	r5, #0
    1958:	7035      	strb	r5, [r6, #0]
    195a:	f7ff fffe 	bl	0 <LZ4_decompress_safe_usingDict>
    195e:	4287      	cmp	r7, r0
    1960:	f041 848f 	bne.w	3282 <FUZ_test+0x2fee>
    1964:	9b08      	ldr	r3, [sp, #32]
    1966:	781a      	ldrb	r2, [r3, #0]
    1968:	2a00      	cmp	r2, #0
    196a:	f041 8470 	bne.w	324e <FUZ_test+0x2fba>
    196e:	9905      	ldr	r1, [sp, #20]
    1970:	4648      	mov	r0, r9
    1972:	f7ff fffe 	bl	0 <XXH32>
    1976:	9b10      	ldr	r3, [sp, #64]	; 0x40
    1978:	4283      	cmp	r3, r0
    197a:	f042 8455 	bne.w	4228 <FUZ_test+0x3f94>
    197e:	f8df 448c 	ldr.w	r4, [pc, #1164]	; 1e0c <FUZ_test+0x1b78>
    1982:	447c      	add	r4, pc
    1984:	6826      	ldr	r6, [r4, #0]
    1986:	2e03      	cmp	r6, #3
    1988:	f300 81f2 	bgt.w	1d70 <FUZ_test+0x1adc>
    198c:	2f00      	cmp	r7, #0
    198e:	f040 8209 	bne.w	1da4 <FUZ_test+0x1b10>
    1992:	9b0f      	ldr	r3, [sp, #60]	; 0x3c
    1994:	2505      	movs	r5, #5
    1996:	f843 7c48 	str.w	r7, [r3, #-72]
    199a:	f10b 030c 	add.w	r3, fp, #12
    199e:	9308      	str	r3, [sp, #32]
    19a0:	9a06      	ldr	r2, [sp, #24]
    19a2:	4641      	mov	r1, r8
    19a4:	ee1a 0a90 	vmov	r0, s21
    19a8:	f7ff fffe 	bl	0 <LZ4_loadDictHC>
    19ac:	990c      	ldr	r1, [sp, #48]	; 0x30
    19ae:	ee1a 0a90 	vmov	r0, s21
    19b2:	f7ff fffe 	bl	0 <LZ4_setCompressionLevel>
    19b6:	ee19 3a90 	vmov	r3, s19
    19ba:	ee18 1a90 	vmov	r1, s17
    19be:	ee1a 0a90 	vmov	r0, s21
    19c2:	4652      	mov	r2, sl
    19c4:	9500      	str	r5, [sp, #0]
    19c6:	f7ff fffe 	bl	0 <LZ4_compress_HC_continue_destSize>
    19ca:	f8df 3444 	ldr.w	r3, [pc, #1092]	; 1e10 <FUZ_test+0x1b7c>
    19ce:	4604      	mov	r4, r0
    19d0:	447b      	add	r3, pc
    19d2:	681b      	ldr	r3, [r3, #0]
    19d4:	2b04      	cmp	r3, #4
    19d6:	f300 80fa 	bgt.w	1bce <FUZ_test+0x193a>
    19da:	2c00      	cmp	r4, #0
    19dc:	f002 8408 	beq.w	41f0 <FUZ_test+0x3f5c>
    19e0:	42a5      	cmp	r5, r4
    19e2:	f2c2 83e9 	blt.w	41b8 <FUZ_test+0x3f24>
    19e6:	9b0f      	ldr	r3, [sp, #60]	; 0x3c
    19e8:	f853 3c48 	ldr.w	r3, [r3, #-72]
    19ec:	42bb      	cmp	r3, r7
    19ee:	f302 83c7 	bgt.w	4180 <FUZ_test+0x3eec>
    19f2:	f8df 2420 	ldr.w	r2, [pc, #1056]	; 1e14 <FUZ_test+0x1b80>
    19f6:	f10b 060d 	add.w	r6, fp, #13
    19fa:	447a      	add	r2, pc
    19fc:	6812      	ldr	r2, [r2, #0]
    19fe:	2a03      	cmp	r2, #3
    1a00:	f301 80ae 	bgt.w	2b60 <FUZ_test+0x28cc>
    1a04:	9a06      	ldr	r2, [sp, #24]
    1a06:	4649      	mov	r1, r9
    1a08:	e9cd 8200 	strd	r8, r2, [sp]
    1a0c:	4650      	mov	r0, sl
    1a0e:	4622      	mov	r2, r4
    1a10:	2500      	movs	r5, #0
    1a12:	f809 5003 	strb.w	r5, [r9, r3]
    1a16:	f7ff fffe 	bl	0 <LZ4_decompress_safe_usingDict>
    1a1a:	9b0f      	ldr	r3, [sp, #60]	; 0x3c
    1a1c:	f853 1c48 	ldr.w	r1, [r3, #-72]
    1a20:	4281      	cmp	r1, r0
    1a22:	f042 81e3 	bne.w	3dec <FUZ_test+0x3b58>
    1a26:	f819 2001 	ldrb.w	r2, [r9, r1]
    1a2a:	2a00      	cmp	r2, #0
    1a2c:	f041 8770 	bne.w	3910 <FUZ_test+0x367c>
    1a30:	ee18 0a90 	vmov	r0, s17
    1a34:	9206      	str	r2, [sp, #24]
    1a36:	f7ff fffe 	bl	0 <XXH32>
    1a3a:	9b0f      	ldr	r3, [sp, #60]	; 0x3c
    1a3c:	4605      	mov	r5, r0
    1a3e:	9a06      	ldr	r2, [sp, #24]
    1a40:	4648      	mov	r0, r9
    1a42:	f853 1c48 	ldr.w	r1, [r3, #-72]
    1a46:	f7ff fffe 	bl	0 <XXH32>
    1a4a:	4285      	cmp	r5, r0
    1a4c:	f041 8741 	bne.w	38d2 <FUZ_test+0x363e>
    1a50:	9b05      	ldr	r3, [sp, #20]
    1a52:	9a19      	ldr	r2, [sp, #100]	; 0x64
    1a54:	9912      	ldr	r1, [sp, #72]	; 0x48
    1a56:	189a      	adds	r2, r3, r2
    1a58:	9b1a      	ldr	r3, [sp, #104]	; 0x68
    1a5a:	981c      	ldr	r0, [sp, #112]	; 0x70
    1a5c:	f143 0300 	adc.w	r3, r3, #0
    1a60:	931a      	str	r3, [sp, #104]	; 0x68
    1a62:	9b1b      	ldr	r3, [sp, #108]	; 0x6c
    1a64:	9219      	str	r2, [sp, #100]	; 0x64
    1a66:	18cb      	adds	r3, r1, r3
    1a68:	931b      	str	r3, [sp, #108]	; 0x6c
    1a6a:	9b14      	ldr	r3, [sp, #80]	; 0x50
    1a6c:	eb40 71e1 	adc.w	r1, r0, r1, asr #31
    1a70:	911c      	str	r1, [sp, #112]	; 0x70
    1a72:	2b00      	cmp	r3, #0
    1a74:	f2c1 8720 	blt.w	38b8 <FUZ_test+0x3624>
    1a78:	461a      	mov	r2, r3
    1a7a:	991e      	ldr	r1, [sp, #120]	; 0x78
    1a7c:	9b1d      	ldr	r3, [sp, #116]	; 0x74
    1a7e:	18d3      	adds	r3, r2, r3
    1a80:	eb41 72e2 	adc.w	r2, r1, r2, asr #31
    1a84:	2c00      	cmp	r4, #0
    1a86:	e9cd 321d 	strd	r3, r2, [sp, #116]	; 0x74
    1a8a:	f2c1 8708 	blt.w	389e <FUZ_test+0x360a>
    1a8e:	9b1f      	ldr	r3, [sp, #124]	; 0x7c
    1a90:	9a20      	ldr	r2, [sp, #128]	; 0x80
    1a92:	18e3      	adds	r3, r4, r3
    1a94:	eb42 72e4 	adc.w	r2, r2, r4, asr #31
    1a98:	e9cd 321f 	strd	r3, r2, [sp, #124]	; 0x7c
    1a9c:	ee1a 3a10 	vmov	r3, s20
    1aa0:	9a21      	ldr	r2, [sp, #132]	; 0x84
    1aa2:	3301      	adds	r3, #1
    1aa4:	ee0a 3a10 	vmov	s20, r3
    1aa8:	ee1a 3a10 	vmov	r3, s20
    1aac:	4293      	cmp	r3, r2
    1aae:	f4fe accb 	bcc.w	448 <FUZ_test+0x1b4>
    1ab2:	f7ff fffe 	bl	0 <clock>
    1ab6:	9b23      	ldr	r3, [sp, #140]	; 0x8c
    1ab8:	1ac0      	subs	r0, r0, r3
    1aba:	9b24      	ldr	r3, [sp, #144]	; 0x90
    1abc:	4283      	cmp	r3, r0
    1abe:	f73e acc3 	bgt.w	448 <FUZ_test+0x1b4>
    1ac2:	e9dd 5619 	ldrd	r5, r6, [sp, #100]	; 0x64
    1ac6:	ee1a 2a10 	vmov	r2, s20
    1aca:	49d3      	ldr	r1, [pc, #844]	; (1e18 <FUZ_test+0x1b84>)
    1acc:	2001      	movs	r0, #1
    1ace:	ea55 0306 	orrs.w	r3, r5, r6
    1ad2:	9b21      	ldr	r3, [sp, #132]	; 0x84
    1ad4:	bf0c      	ite	eq
    1ad6:	2401      	moveq	r4, #1
    1ad8:	2400      	movne	r4, #0
    1ada:	4479      	add	r1, pc
    1adc:	2b01      	cmp	r3, #1
    1ade:	bf98      	it	ls
    1ae0:	4613      	movls	r3, r2
    1ae2:	f7ff fffe 	bl	0 <__printf_chk>
    1ae6:	48cd      	ldr	r0, [pc, #820]	; (1e1c <FUZ_test+0x1b88>)
    1ae8:	ed9f 9bc5 	vldr	d9, [pc, #788]	; 1e00 <FUZ_test+0x1b6c>
    1aec:	4478      	add	r0, pc
    1aee:	f7ff fffe 	bl	0 <puts>
    1af2:	1960      	adds	r0, r4, r5
    1af4:	f146 0100 	adc.w	r1, r6, #0
    1af8:	f7ff fffe 	bl	0 <__aeabi_ul2d>
    1afc:	ec41 0b18 	vmov	d8, r0, r1
    1b00:	e9dd 011b 	ldrd	r0, r1, [sp, #108]	; 0x6c
    1b04:	f7ff fffe 	bl	0 <__aeabi_ul2d>
    1b08:	ec41 0b17 	vmov	d7, r0, r1
    1b0c:	49c4      	ldr	r1, [pc, #784]	; (1e20 <FUZ_test+0x1b8c>)
    1b0e:	2001      	movs	r0, #1
    1b10:	ee87 7b08 	vdiv.f64	d7, d7, d8
    1b14:	4479      	add	r1, pc
    1b16:	ee27 7b09 	vmul.f64	d7, d7, d9
    1b1a:	ec53 2b17 	vmov	r2, r3, d7
    1b1e:	f7ff fffe 	bl	0 <__printf_chk>
    1b22:	e9dd 011d 	ldrd	r0, r1, [sp, #116]	; 0x74
    1b26:	f7ff fffe 	bl	0 <__aeabi_ul2d>
    1b2a:	ec41 0b17 	vmov	d7, r0, r1
    1b2e:	49bd      	ldr	r1, [pc, #756]	; (1e24 <FUZ_test+0x1b90>)
    1b30:	2001      	movs	r0, #1
    1b32:	ee87 7b08 	vdiv.f64	d7, d7, d8
    1b36:	4479      	add	r1, pc
    1b38:	ee27 7b09 	vmul.f64	d7, d7, d9
    1b3c:	ec53 2b17 	vmov	r2, r3, d7
    1b40:	f7ff fffe 	bl	0 <__printf_chk>
    1b44:	e9dd 011f 	ldrd	r0, r1, [sp, #124]	; 0x7c
    1b48:	f7ff fffe 	bl	0 <__aeabi_ul2d>
    1b4c:	ec41 0b17 	vmov	d7, r0, r1
    1b50:	49b5      	ldr	r1, [pc, #724]	; (1e28 <FUZ_test+0x1b94>)
    1b52:	2001      	movs	r0, #1
    1b54:	ee87 7b08 	vdiv.f64	d7, d7, d8
    1b58:	4479      	add	r1, pc
    1b5a:	ee27 7b09 	vmul.f64	d7, d7, d9
    1b5e:	ec53 2b17 	vmov	r2, r3, d7
    1b62:	f7ff fffe 	bl	0 <__printf_chk>
    1b66:	980e      	ldr	r0, [sp, #56]	; 0x38
    1b68:	f7ff fffe 	bl	0 <free>
    1b6c:	4650      	mov	r0, sl
    1b6e:	f7ff fffe 	bl	0 <free>
    1b72:	4648      	mov	r0, r9
    1b74:	f7ff fffe 	bl	0 <free>
    1b78:	9825      	ldr	r0, [sp, #148]	; 0x94
    1b7a:	f44f 31c0 	mov.w	r1, #98304	; 0x18000
    1b7e:	f7ff fffe 	bl	0 <munmap>
    1b82:	4604      	mov	r4, r0
    1b84:	2800      	cmp	r0, #0
    1b86:	f041 82d9 	bne.w	313c <FUZ_test+0x2ea8>
    1b8a:	ee1a 0a90 	vmov	r0, s21
    1b8e:	f7ff fffe 	bl	0 <LZ4_freeStreamHC>
    1b92:	ee1b 0a10 	vmov	r0, s22
    1b96:	f7ff fffe 	bl	0 <free>
    1b9a:	ee1b 0a90 	vmov	r0, s23
    1b9e:	f7ff fffe 	bl	0 <free>
    1ba2:	4aa2      	ldr	r2, [pc, #648]	; (1e2c <FUZ_test+0x1b98>)
    1ba4:	4ba2      	ldr	r3, [pc, #648]	; (1e30 <FUZ_test+0x1b9c>)
    1ba6:	f50d 4100 	add.w	r1, sp, #32768	; 0x8000
    1baa:	447a      	add	r2, pc
    1bac:	31dc      	adds	r1, #220	; 0xdc
    1bae:	58d3      	ldr	r3, [r2, r3]
    1bb0:	681a      	ldr	r2, [r3, #0]
    1bb2:	680b      	ldr	r3, [r1, #0]
    1bb4:	405a      	eors	r2, r3
    1bb6:	f04f 0300 	mov.w	r3, #0
    1bba:	f041 84a1 	bne.w	3500 <FUZ_test+0x326c>
    1bbe:	4620      	mov	r0, r4
    1bc0:	f50d 4d00 	add.w	sp, sp, #32768	; 0x8000
    1bc4:	b039      	add	sp, #228	; 0xe4
    1bc6:	ecbd 8b0c 	vpop	{d8-d13}
    1bca:	e8bd 8ff0 	ldmia.w	sp!, {r4, r5, r6, r7, r8, r9, sl, fp, pc}
    1bce:	4b99      	ldr	r3, [pc, #612]	; (1e34 <FUZ_test+0x1ba0>)
    1bd0:	2101      	movs	r1, #1
    1bd2:	9a07      	ldr	r2, [sp, #28]
    1bd4:	58d3      	ldr	r3, [r2, r3]
    1bd6:	9a0c      	ldr	r2, [sp, #48]	; 0x30
    1bd8:	e9cd 5202 	strd	r5, r2, [sp, #8]
    1bdc:	e9cd 7000 	strd	r7, r0, [sp]
    1be0:	4a95      	ldr	r2, [pc, #596]	; (1e38 <FUZ_test+0x1ba4>)
    1be2:	6818      	ldr	r0, [r3, #0]
    1be4:	9b0f      	ldr	r3, [sp, #60]	; 0x3c
    1be6:	447a      	add	r2, pc
    1be8:	f853 3c48 	ldr.w	r3, [r3, #-72]
    1bec:	f7ff fffe 	bl	0 <__fprintf_chk>
    1bf0:	e6f3      	b.n	19da <FUZ_test+0x1746>
    1bf2:	f7ff fffe 	bl	0 <clock>
    1bf6:	4b91      	ldr	r3, [pc, #580]	; (1e3c <FUZ_test+0x1ba8>)
    1bf8:	9a07      	ldr	r2, [sp, #28]
    1bfa:	2101      	movs	r1, #1
    1bfc:	447b      	add	r3, pc
    1bfe:	6018      	str	r0, [r3, #0]
    1c00:	4b8c      	ldr	r3, [pc, #560]	; (1e34 <FUZ_test+0x1ba0>)
    1c02:	58d6      	ldr	r6, [r2, r3]
    1c04:	ee1a 3a10 	vmov	r3, s20
    1c08:	4a8d      	ldr	r2, [pc, #564]	; (1e40 <FUZ_test+0x1bac>)
    1c0a:	6830      	ldr	r0, [r6, #0]
    1c0c:	447a      	add	r2, pc
    1c0e:	f7ff fffe 	bl	0 <__fprintf_chk>
    1c12:	6830      	ldr	r0, [r6, #0]
    1c14:	f7ff fffe 	bl	0 <fflush>
    1c18:	2d00      	cmp	r5, #0
    1c1a:	f041 81fb 	bne.w	3014 <FUZ_test+0x2d80>
    1c1e:	4b89      	ldr	r3, [pc, #548]	; (1e44 <FUZ_test+0x1bb0>)
    1c20:	447b      	add	r3, pc
    1c22:	681b      	ldr	r3, [r3, #0]
    1c24:	2b03      	cmp	r3, #3
    1c26:	f77e ac96 	ble.w	556 <FUZ_test+0x2c2>
    1c2a:	4987      	ldr	r1, [pc, #540]	; (1e48 <FUZ_test+0x1bb4>)
    1c2c:	2301      	movs	r3, #1
    1c2e:	ee1a 2a10 	vmov	r2, s20
    1c32:	4618      	mov	r0, r3
    1c34:	4479      	add	r1, pc
    1c36:	f7ff fffe 	bl	0 <__printf_chk>
    1c3a:	4984      	ldr	r1, [pc, #528]	; (1e4c <FUZ_test+0x1bb8>)
    1c3c:	2001      	movs	r0, #1
    1c3e:	4479      	add	r1, pc
    1c40:	f7ff fffe 	bl	0 <__printf_chk>
    1c44:	4982      	ldr	r1, [pc, #520]	; (1e50 <FUZ_test+0x1bbc>)
    1c46:	2001      	movs	r0, #1
    1c48:	4479      	add	r1, pc
    1c4a:	f7ff fffe 	bl	0 <__printf_chk>
    1c4e:	4b79      	ldr	r3, [pc, #484]	; (1e34 <FUZ_test+0x1ba0>)
    1c50:	9a07      	ldr	r2, [sp, #28]
    1c52:	58d3      	ldr	r3, [r2, r3]
    1c54:	6818      	ldr	r0, [r3, #0]
    1c56:	f7ff fffe 	bl	0 <fflush>
    1c5a:	f7fe bc7c 	b.w	556 <FUZ_test+0x2c2>
    1c5e:	2b03      	cmp	r3, #3
    1c60:	f77e aeb8 	ble.w	9d4 <FUZ_test+0x740>
    1c64:	497b      	ldr	r1, [pc, #492]	; (1e54 <FUZ_test+0x1bc0>)
    1c66:	4633      	mov	r3, r6
    1c68:	ee1a 2a10 	vmov	r2, s20
    1c6c:	2001      	movs	r0, #1
    1c6e:	4479      	add	r1, pc
    1c70:	4634      	mov	r4, r6
    1c72:	9e13      	ldr	r6, [sp, #76]	; 0x4c
    1c74:	f7ff fffe 	bl	0 <__printf_chk>
    1c78:	2020      	movs	r0, #32
    1c7a:	f7ff fffe 	bl	0 <putchar>
    1c7e:	4976      	ldr	r1, [pc, #472]	; (1e58 <FUZ_test+0x1bc4>)
    1c80:	2001      	movs	r0, #1
    1c82:	4479      	add	r1, pc
    1c84:	f7ff fffe 	bl	0 <__printf_chk>
    1c88:	4b6a      	ldr	r3, [pc, #424]	; (1e34 <FUZ_test+0x1ba0>)
    1c8a:	9a07      	ldr	r2, [sp, #28]
    1c8c:	58d3      	ldr	r3, [r2, r3]
    1c8e:	6818      	ldr	r0, [r3, #0]
    1c90:	f7ff fffe 	bl	0 <fflush>
    1c94:	2f0a      	cmp	r7, #10
    1c96:	f73e ae82 	bgt.w	99e <FUZ_test+0x70a>
    1c9a:	4b70      	ldr	r3, [pc, #448]	; (1e5c <FUZ_test+0x1bc8>)
    1c9c:	9613      	str	r6, [sp, #76]	; 0x4c
    1c9e:	447b      	add	r3, pc
    1ca0:	681b      	ldr	r3, [r3, #0]
    1ca2:	9309      	str	r3, [sp, #36]	; 0x24
    1ca4:	f7fe be96 	b.w	9d4 <FUZ_test+0x740>
    1ca8:	990b      	ldr	r1, [sp, #44]	; 0x2c
    1caa:	2a03      	cmp	r2, #3
    1cac:	9b16      	ldr	r3, [sp, #88]	; 0x58
    1cae:	fb01 f303 	mul.w	r3, r1, r3
    1cb2:	9909      	ldr	r1, [sp, #36]	; 0x24
    1cb4:	f101 0b0f 	add.w	fp, r1, #15
    1cb8:	990a      	ldr	r1, [sp, #40]	; 0x28
    1cba:	ea83 0301 	eor.w	r3, r3, r1
    1cbe:	ea4f 43f3 	mov.w	r3, r3, ror #19
    1cc2:	9315      	str	r3, [sp, #84]	; 0x54
    1cc4:	f003 060f 	and.w	r6, r3, #15
    1cc8:	f106 0602 	add.w	r6, r6, #2
    1ccc:	f300 854e 	bgt.w	276c <FUZ_test+0x24d8>
    1cd0:	9b11      	ldr	r3, [sp, #68]	; 0x44
    1cd2:	1c9e      	adds	r6, r3, #2
    1cd4:	f7ff bb39 	b.w	134a <FUZ_test+0x10b6>
    1cd8:	9a0b      	ldr	r2, [sp, #44]	; 0x2c
    1cda:	2b03      	cmp	r3, #3
    1cdc:	9c15      	ldr	r4, [sp, #84]	; 0x54
    1cde:	fb02 f404 	mul.w	r4, r2, r4
    1ce2:	9a11      	ldr	r2, [sp, #68]	; 0x44
    1ce4:	f102 0809 	add.w	r8, r2, #9
    1ce8:	9a0a      	ldr	r2, [sp, #40]	; 0x28
    1cea:	ea84 0402 	eor.w	r4, r4, r2
    1cee:	ea4f 44f4 	mov.w	r4, r4, ror #19
    1cf2:	f004 050f 	and.w	r5, r4, #15
    1cf6:	f105 0502 	add.w	r5, r5, #2
    1cfa:	f77f ac8f 	ble.w	161c <FUZ_test+0x1388>
    1cfe:	4958      	ldr	r1, [pc, #352]	; (1e60 <FUZ_test+0x1bcc>)
    1d00:	ee1a 2a10 	vmov	r2, s20
    1d04:	4643      	mov	r3, r8
    1d06:	2001      	movs	r0, #1
    1d08:	4479      	add	r1, pc
    1d0a:	f7ff fffe 	bl	0 <__printf_chk>
    1d0e:	4955      	ldr	r1, [pc, #340]	; (1e64 <FUZ_test+0x1bd0>)
    1d10:	2001      	movs	r0, #1
    1d12:	4479      	add	r1, pc
    1d14:	f7ff fffe 	bl	0 <__printf_chk>
    1d18:	4953      	ldr	r1, [pc, #332]	; (1e68 <FUZ_test+0x1bd4>)
    1d1a:	2001      	movs	r0, #1
    1d1c:	4479      	add	r1, pc
    1d1e:	f7ff fffe 	bl	0 <__printf_chk>
    1d22:	4b44      	ldr	r3, [pc, #272]	; (1e34 <FUZ_test+0x1ba0>)
    1d24:	9a07      	ldr	r2, [sp, #28]
    1d26:	58d3      	ldr	r3, [r2, r3]
    1d28:	6818      	ldr	r0, [r3, #0]
    1d2a:	f7ff fffe 	bl	0 <fflush>
    1d2e:	4b4f      	ldr	r3, [pc, #316]	; (1e6c <FUZ_test+0x1bd8>)
    1d30:	f10b 0602 	add.w	r6, fp, #2
    1d34:	447b      	add	r3, pc
    1d36:	681b      	ldr	r3, [r3, #0]
    1d38:	2b03      	cmp	r3, #3
    1d3a:	f77f ac75 	ble.w	1628 <FUZ_test+0x1394>
    1d3e:	494c      	ldr	r1, [pc, #304]	; (1e70 <FUZ_test+0x1bdc>)
    1d40:	ee1a 2a10 	vmov	r2, s20
    1d44:	4633      	mov	r3, r6
    1d46:	2001      	movs	r0, #1
    1d48:	4479      	add	r1, pc
    1d4a:	f7ff fffe 	bl	0 <__printf_chk>
    1d4e:	4949      	ldr	r1, [pc, #292]	; (1e74 <FUZ_test+0x1be0>)
    1d50:	2001      	movs	r0, #1
    1d52:	4479      	add	r1, pc
    1d54:	f7ff fffe 	bl	0 <__printf_chk>
    1d58:	4947      	ldr	r1, [pc, #284]	; (1e78 <FUZ_test+0x1be4>)
    1d5a:	2001      	movs	r0, #1
    1d5c:	4479      	add	r1, pc
    1d5e:	f7ff fffe 	bl	0 <__printf_chk>
    1d62:	4b34      	ldr	r3, [pc, #208]	; (1e34 <FUZ_test+0x1ba0>)
    1d64:	9a07      	ldr	r2, [sp, #28]
    1d66:	58d3      	ldr	r3, [r2, r3]
    1d68:	6818      	ldr	r0, [r3, #0]
    1d6a:	f7ff fffe 	bl	0 <fflush>
    1d6e:	e45b      	b.n	1628 <FUZ_test+0x1394>
    1d70:	4942      	ldr	r1, [pc, #264]	; (1e7c <FUZ_test+0x1be8>)
    1d72:	ee1a 2a10 	vmov	r2, s20
    1d76:	f10b 030b 	add.w	r3, fp, #11
    1d7a:	2001      	movs	r0, #1
    1d7c:	4479      	add	r1, pc
    1d7e:	2505      	movs	r5, #5
    1d80:	f7ff fffe 	bl	0 <__printf_chk>
    1d84:	2020      	movs	r0, #32
    1d86:	f7ff fffe 	bl	0 <putchar>
    1d8a:	493d      	ldr	r1, [pc, #244]	; (1e80 <FUZ_test+0x1bec>)
    1d8c:	2001      	movs	r0, #1
    1d8e:	4479      	add	r1, pc
    1d90:	f7ff fffe 	bl	0 <__printf_chk>
    1d94:	4b27      	ldr	r3, [pc, #156]	; (1e34 <FUZ_test+0x1ba0>)
    1d96:	9a07      	ldr	r2, [sp, #28]
    1d98:	58d3      	ldr	r3, [r2, r3]
    1d9a:	6818      	ldr	r0, [r3, #0]
    1d9c:	f7ff fffe 	bl	0 <fflush>
    1da0:	6826      	ldr	r6, [r4, #0]
    1da2:	b15f      	cbz	r7, 1dbc <FUZ_test+0x1b28>
    1da4:	9b0b      	ldr	r3, [sp, #44]	; 0x2c
    1da6:	9809      	ldr	r0, [sp, #36]	; 0x24
    1da8:	9905      	ldr	r1, [sp, #20]
    1daa:	fb03 f000 	mul.w	r0, r3, r0
    1dae:	9b0a      	ldr	r3, [sp, #40]	; 0x28
    1db0:	4058      	eors	r0, r3
    1db2:	ea4f 40f0 	mov.w	r0, r0, ror #19
    1db6:	f7ff fffe 	bl	0 <__aeabi_uidivmod>
    1dba:	1d4d      	adds	r5, r1, #5
    1dbc:	9b0f      	ldr	r3, [sp, #60]	; 0x3c
    1dbe:	2e03      	cmp	r6, #3
    1dc0:	f843 7c48 	str.w	r7, [r3, #-72]
    1dc4:	f10b 030c 	add.w	r3, fp, #12
    1dc8:	9308      	str	r3, [sp, #32]
    1dca:	f77f ade9 	ble.w	19a0 <FUZ_test+0x170c>
    1dce:	492d      	ldr	r1, [pc, #180]	; (1e84 <FUZ_test+0x1bf0>)
    1dd0:	ee1a 2a10 	vmov	r2, s20
    1dd4:	2001      	movs	r0, #1
    1dd6:	4479      	add	r1, pc
    1dd8:	f7ff fffe 	bl	0 <__printf_chk>
    1ddc:	2020      	movs	r0, #32
    1dde:	f7ff fffe 	bl	0 <putchar>
    1de2:	4929      	ldr	r1, [pc, #164]	; (1e88 <FUZ_test+0x1bf4>)
    1de4:	2001      	movs	r0, #1
    1de6:	4479      	add	r1, pc
    1de8:	f7ff fffe 	bl	0 <__printf_chk>
    1dec:	4b11      	ldr	r3, [pc, #68]	; (1e34 <FUZ_test+0x1ba0>)
    1dee:	9a07      	ldr	r2, [sp, #28]
    1df0:	58d3      	ldr	r3, [r2, r3]
    1df2:	6818      	ldr	r0, [r3, #0]
    1df4:	f7ff fffe 	bl	0 <fflush>
    1df8:	e5d2      	b.n	19a0 <FUZ_test+0x170c>
    1dfa:	bf00      	nop
    1dfc:	f3af 8000 	nop.w
    1e00:	00000000 	.word	0x00000000
    1e04:	40590000 	.word	0x40590000
    1e08:	000004c8 	.word	0x000004c8
    1e0c:	00000486 	.word	0x00000486
    1e10:	0000043c 	.word	0x0000043c
    1e14:	00000416 	.word	0x00000416
    1e18:	0000033a 	.word	0x0000033a
    1e1c:	0000032c 	.word	0x0000032c
    1e20:	00000308 	.word	0x00000308
    1e24:	000002ea 	.word	0x000002ea
    1e28:	000002cc 	.word	0x000002cc
    1e2c:	0000027e 	.word	0x0000027e
	...
    1e38:	0000024e 	.word	0x0000024e
    1e3c:	0000023c 	.word	0x0000023c
    1e40:	00000230 	.word	0x00000230
    1e44:	00000220 	.word	0x00000220
    1e48:	00000210 	.word	0x00000210
    1e4c:	0000020a 	.word	0x0000020a
    1e50:	00000204 	.word	0x00000204
    1e54:	000001e2 	.word	0x000001e2
    1e58:	000001d2 	.word	0x000001d2
    1e5c:	000001ba 	.word	0x000001ba
    1e60:	00000154 	.word	0x00000154
    1e64:	0000014e 	.word	0x0000014e
    1e68:	00000148 	.word	0x00000148
    1e6c:	00000134 	.word	0x00000134
    1e70:	00000124 	.word	0x00000124
    1e74:	0000011e 	.word	0x0000011e
    1e78:	00000118 	.word	0x00000118
    1e7c:	000000fc 	.word	0x000000fc
    1e80:	000000ee 	.word	0x000000ee
    1e84:	000000aa 	.word	0x000000aa
    1e88:	0000009e 	.word	0x0000009e
    1e8c:	f8df 1dd4 	ldr.w	r1, [pc, #3540]	; 2c64 <FUZ_test+0x29d0>
    1e90:	ee1a 2a10 	vmov	r2, s20
    1e94:	465b      	mov	r3, fp
    1e96:	2001      	movs	r0, #1
    1e98:	4479      	add	r1, pc
    1e9a:	f7ff fffe 	bl	0 <__printf_chk>
    1e9e:	f8df 1dc8 	ldr.w	r1, [pc, #3528]	; 2c68 <FUZ_test+0x29d4>
    1ea2:	2001      	movs	r0, #1
    1ea4:	4479      	add	r1, pc
    1ea6:	f7ff fffe 	bl	0 <__printf_chk>
    1eaa:	f8df 1dc0 	ldr.w	r1, [pc, #3520]	; 2c6c <FUZ_test+0x29d8>
    1eae:	2001      	movs	r0, #1
    1eb0:	4479      	add	r1, pc
    1eb2:	f7ff fffe 	bl	0 <__printf_chk>
    1eb6:	f8df 3db8 	ldr.w	r3, [pc, #3512]	; 2c70 <FUZ_test+0x29dc>
    1eba:	9a07      	ldr	r2, [sp, #28]
    1ebc:	58d3      	ldr	r3, [r2, r3]
    1ebe:	6818      	ldr	r0, [r3, #0]
    1ec0:	f7ff fffe 	bl	0 <fflush>
    1ec4:	f7fe bb88 	b.w	5d8 <FUZ_test+0x344>
    1ec8:	f8df 3da4 	ldr.w	r3, [pc, #3492]	; 2c70 <FUZ_test+0x29dc>
    1ecc:	f04f 0b02 	mov.w	fp, #2
    1ed0:	9a07      	ldr	r2, [sp, #28]
    1ed2:	f04f 0801 	mov.w	r8, #1
    1ed6:	58d3      	ldr	r3, [r2, r3]
    1ed8:	9a05      	ldr	r2, [sp, #20]
    1eda:	9101      	str	r1, [sp, #4]
    1edc:	2101      	movs	r1, #1
    1ede:	9202      	str	r2, [sp, #8]
    1ee0:	9500      	str	r5, [sp, #0]
    1ee2:	f8df 2d90 	ldr.w	r2, [pc, #3472]	; 2c74 <FUZ_test+0x29e0>
    1ee6:	6818      	ldr	r0, [r3, #0]
    1ee8:	4633      	mov	r3, r6
    1eea:	447a      	add	r2, pc
    1eec:	f7ff fffe 	bl	0 <__fprintf_chk>
    1ef0:	2d00      	cmp	r5, #0
    1ef2:	d03d      	beq.n	1f70 <FUZ_test+0x1cdc>
    1ef4:	9b0f      	ldr	r3, [sp, #60]	; 0x3c
    1ef6:	f853 1c48 	ldr.w	r1, [r3, #-72]
    1efa:	ee18 0a90 	vmov	r0, s17
    1efe:	2200      	movs	r2, #0
    1f00:	f7ff fffe 	bl	0 <XXH32>
    1f04:	9b0b      	ldr	r3, [sp, #44]	; 0x2c
    1f06:	4607      	mov	r7, r0
    1f08:	fb03 f404 	mul.w	r4, r3, r4
    1f0c:	9b0a      	ldr	r3, [sp, #40]	; 0x28
    1f0e:	405c      	eors	r4, r3
    1f10:	ea4f 44f4 	mov.w	r4, r4, ror #19
    1f14:	b2e5      	uxtb	r5, r4
    1f16:	2e00      	cmp	r6, #0
    1f18:	f001 84a7 	beq.w	386a <FUZ_test+0x35d6>
    1f1c:	f8df 3d58 	ldr.w	r3, [pc, #3416]	; 2c78 <FUZ_test+0x29e4>
    1f20:	447b      	add	r3, pc
    1f22:	681b      	ldr	r3, [r3, #0]
    1f24:	2b03      	cmp	r3, #3
    1f26:	f301 8098 	bgt.w	305a <FUZ_test+0x2dc6>
    1f2a:	9b0f      	ldr	r3, [sp, #60]	; 0x3c
    1f2c:	4632      	mov	r2, r6
    1f2e:	4649      	mov	r1, r9
    1f30:	4650      	mov	r0, sl
    1f32:	f853 3c48 	ldr.w	r3, [r3, #-72]
    1f36:	f809 5003 	strb.w	r5, [r9, r3]
    1f3a:	f7ff fffe 	bl	0 <LZ4_decompress_safe>
    1f3e:	2800      	cmp	r0, #0
    1f40:	f2c1 8479 	blt.w	3836 <FUZ_test+0x35a2>
    1f44:	9b0f      	ldr	r3, [sp, #60]	; 0x3c
    1f46:	f853 1c48 	ldr.w	r1, [r3, #-72]
    1f4a:	4281      	cmp	r1, r0
    1f4c:	f042 82cb 	bne.w	44e6 <FUZ_test+0x4252>
    1f50:	f819 3001 	ldrb.w	r3, [r9, r1]
    1f54:	42ab      	cmp	r3, r5
    1f56:	f042 82ac 	bne.w	44b2 <FUZ_test+0x421e>
    1f5a:	2200      	movs	r2, #0
    1f5c:	4648      	mov	r0, r9
    1f5e:	f7ff fffe 	bl	0 <XXH32>
    1f62:	4287      	cmp	r7, r0
    1f64:	f041 853e 	bne.w	39e4 <FUZ_test+0x3750>
    1f68:	f04f 0b03 	mov.w	fp, #3
    1f6c:	f04f 0802 	mov.w	r8, #2
    1f70:	f8df 5d08 	ldr.w	r5, [pc, #3336]	; 2c7c <FUZ_test+0x29e8>
    1f74:	447d      	add	r5, pc
    1f76:	682b      	ldr	r3, [r5, #0]
    1f78:	2b04      	cmp	r3, #4
    1f7a:	f77e ab2a 	ble.w	5d2 <FUZ_test+0x33e>
    1f7e:	f8df 3cf0 	ldr.w	r3, [pc, #3312]	; 2c70 <FUZ_test+0x29dc>
    1f82:	2101      	movs	r1, #1
    1f84:	9a07      	ldr	r2, [sp, #28]
    1f86:	f8df 0cf8 	ldr.w	r0, [pc, #3320]	; 2c80 <FUZ_test+0x29ec>
    1f8a:	58d3      	ldr	r3, [r2, r3]
    1f8c:	4478      	add	r0, pc
    1f8e:	2205      	movs	r2, #5
    1f90:	681b      	ldr	r3, [r3, #0]
    1f92:	f7ff fffe 	bl	0 <fwrite>
    1f96:	682b      	ldr	r3, [r5, #0]
    1f98:	f7fe bb1b 	b.w	5d2 <FUZ_test+0x33e>
    1f9c:	463e      	mov	r6, r7
    1f9e:	ee08 7a90 	vmov	s17, r7
    1fa2:	f7fe ba9f 	b.w	4e4 <FUZ_test+0x250>
    1fa6:	f8df 3cc8 	ldr.w	r3, [pc, #3272]	; 2c70 <FUZ_test+0x29dc>
    1faa:	2101      	movs	r1, #1
    1fac:	9a07      	ldr	r2, [sp, #28]
    1fae:	58d3      	ldr	r3, [r2, r3]
    1fb0:	9a05      	ldr	r2, [sp, #20]
    1fb2:	9203      	str	r2, [sp, #12]
    1fb4:	e9cd 0400 	strd	r0, r4, [sp]
    1fb8:	f8df 2cc8 	ldr.w	r2, [pc, #3272]	; 2c84 <FUZ_test+0x29f0>
    1fbc:	6818      	ldr	r0, [r3, #0]
    1fbe:	9b0f      	ldr	r3, [sp, #60]	; 0x3c
    1fc0:	447a      	add	r2, pc
    1fc2:	f853 3c48 	ldr.w	r3, [r3, #-72]
    1fc6:	9302      	str	r3, [sp, #8]
    1fc8:	9b0c      	ldr	r3, [sp, #48]	; 0x30
    1fca:	f7ff fffe 	bl	0 <__fprintf_chk>
    1fce:	f7fe bb36 	b.w	63e <FUZ_test+0x3aa>
    1fd2:	f8df 1cb4 	ldr.w	r1, [pc, #3252]	; 2c88 <FUZ_test+0x29f4>
    1fd6:	ee1a 2a10 	vmov	r2, s20
    1fda:	4623      	mov	r3, r4
    1fdc:	2001      	movs	r0, #1
    1fde:	4479      	add	r1, pc
    1fe0:	f7ff fffe 	bl	0 <__printf_chk>
    1fe4:	f8df 1ca4 	ldr.w	r1, [pc, #3236]	; 2c8c <FUZ_test+0x29f8>
    1fe8:	2001      	movs	r0, #1
    1fea:	4479      	add	r1, pc
    1fec:	f7ff fffe 	bl	0 <__printf_chk>
    1ff0:	f8df 1c9c 	ldr.w	r1, [pc, #3228]	; 2c90 <FUZ_test+0x29fc>
    1ff4:	2001      	movs	r0, #1
    1ff6:	4479      	add	r1, pc
    1ff8:	f7ff fffe 	bl	0 <__printf_chk>
    1ffc:	f8df 3c70 	ldr.w	r3, [pc, #3184]	; 2c70 <FUZ_test+0x29dc>
    2000:	9a07      	ldr	r2, [sp, #28]
    2002:	58d3      	ldr	r3, [r2, r3]
    2004:	6818      	ldr	r0, [r3, #0]
    2006:	f7ff fffe 	bl	0 <fflush>
    200a:	f7fe bb4f 	b.w	6ac <FUZ_test+0x418>
    200e:	f8df 1c84 	ldr.w	r1, [pc, #3204]	; 2c94 <FUZ_test+0x2a00>
    2012:	ee1a 2a10 	vmov	r2, s20
    2016:	4623      	mov	r3, r4
    2018:	2001      	movs	r0, #1
    201a:	4479      	add	r1, pc
    201c:	f7ff fffe 	bl	0 <__printf_chk>
    2020:	f8df 1c74 	ldr.w	r1, [pc, #3188]	; 2c98 <FUZ_test+0x2a04>
    2024:	2001      	movs	r0, #1
    2026:	4479      	add	r1, pc
    2028:	f7ff fffe 	bl	0 <__printf_chk>
    202c:	f8df 1c6c 	ldr.w	r1, [pc, #3180]	; 2c9c <FUZ_test+0x2a08>
    2030:	2001      	movs	r0, #1
    2032:	4479      	add	r1, pc
    2034:	f7ff fffe 	bl	0 <__printf_chk>
    2038:	f8df 3c34 	ldr.w	r3, [pc, #3124]	; 2c70 <FUZ_test+0x29dc>
    203c:	9a07      	ldr	r2, [sp, #28]
    203e:	58d3      	ldr	r3, [r2, r3]
    2040:	6818      	ldr	r0, [r3, #0]
    2042:	f7ff fffe 	bl	0 <fflush>
    2046:	f7fe bb1b 	b.w	680 <FUZ_test+0x3ec>
    204a:	f8df 3c24 	ldr.w	r3, [pc, #3108]	; 2c70 <FUZ_test+0x29dc>
    204e:	2101      	movs	r1, #1
    2050:	9a07      	ldr	r2, [sp, #28]
    2052:	f8df 0c4c 	ldr.w	r0, [pc, #3148]	; 2ca0 <FUZ_test+0x2a0c>
    2056:	58d3      	ldr	r3, [r2, r3]
    2058:	4478      	add	r0, pc
    205a:	2205      	movs	r2, #5
    205c:	681b      	ldr	r3, [r3, #0]
    205e:	f7ff fffe 	bl	0 <fwrite>
    2062:	6823      	ldr	r3, [r4, #0]
    2064:	f7fe bb07 	b.w	676 <FUZ_test+0x3e2>
    2068:	2200      	movs	r2, #0
    206a:	ee18 0a90 	vmov	r0, s17
    206e:	f7ff fffe 	bl	0 <XXH32>
    2072:	9b16      	ldr	r3, [sp, #88]	; 0x58
    2074:	9a0b      	ldr	r2, [sp, #44]	; 0x2c
    2076:	4605      	mov	r5, r0
    2078:	fb02 f303 	mul.w	r3, r2, r3
    207c:	9a0a      	ldr	r2, [sp, #40]	; 0x28
    207e:	4053      	eors	r3, r2
    2080:	ea4f 43f3 	mov.w	r3, r3, ror #19
    2084:	9316      	str	r3, [sp, #88]	; 0x58
    2086:	b2dc      	uxtb	r4, r3
    2088:	2e00      	cmp	r6, #0
    208a:	f001 8491 	beq.w	39b0 <FUZ_test+0x371c>
    208e:	f8df 3c14 	ldr.w	r3, [pc, #3092]	; 2ca4 <FUZ_test+0x2a10>
    2092:	f108 0b02 	add.w	fp, r8, #2
    2096:	447b      	add	r3, pc
    2098:	681b      	ldr	r3, [r3, #0]
    209a:	2b03      	cmp	r3, #3
    209c:	f300 87c2 	bgt.w	3024 <FUZ_test+0x2d90>
    20a0:	9b0f      	ldr	r3, [sp, #60]	; 0x3c
    20a2:	4632      	mov	r2, r6
    20a4:	4649      	mov	r1, r9
    20a6:	4650      	mov	r0, sl
    20a8:	f853 3c48 	ldr.w	r3, [r3, #-72]
    20ac:	f809 4003 	strb.w	r4, [r9, r3]
    20b0:	f7ff fffe 	bl	0 <LZ4_decompress_safe>
    20b4:	2800      	cmp	r0, #0
    20b6:	f2c1 845f 	blt.w	3978 <FUZ_test+0x36e4>
    20ba:	9b0f      	ldr	r3, [sp, #60]	; 0x3c
    20bc:	f853 1c48 	ldr.w	r1, [r3, #-72]
    20c0:	4281      	cmp	r1, r0
    20c2:	f041 85d1 	bne.w	3c68 <FUZ_test+0x39d4>
    20c6:	f819 3001 	ldrb.w	r3, [r9, r1]
    20ca:	42a3      	cmp	r3, r4
    20cc:	f041 85b2 	bne.w	3c34 <FUZ_test+0x39a0>
    20d0:	2200      	movs	r2, #0
    20d2:	4648      	mov	r0, r9
    20d4:	f7ff fffe 	bl	0 <XXH32>
    20d8:	4285      	cmp	r5, r0
    20da:	f43e aac5 	beq.w	668 <FUZ_test+0x3d4>
    20de:	f8df 1bc8 	ldr.w	r1, [pc, #3016]	; 2ca8 <FUZ_test+0x2a14>
    20e2:	465a      	mov	r2, fp
    20e4:	2001      	movs	r0, #1
    20e6:	4479      	add	r1, pc
    20e8:	f7ff fffe 	bl	0 <__printf_chk>
    20ec:	f8df 1bbc 	ldr.w	r1, [pc, #3004]	; 2cac <FUZ_test+0x2a18>
    20f0:	2001      	movs	r0, #1
    20f2:	4479      	add	r1, pc
    20f4:	f7ff fffe 	bl	0 <__printf_chk>
    20f8:	f8df 1bb4 	ldr.w	r1, [pc, #2996]	; 2cb0 <FUZ_test+0x2a1c>
    20fc:	ee1a 3a10 	vmov	r3, s20
    2100:	ee1d 2a10 	vmov	r2, s26
    2104:	4479      	add	r1, pc
    2106:	2001      	movs	r0, #1
    2108:	f7ff fffe 	bl	0 <__printf_chk>
    210c:	2001      	movs	r0, #1
    210e:	f7ff fffe 	bl	0 <exit>
    2112:	f8df 1ba0 	ldr.w	r1, [pc, #2976]	; 2cb4 <FUZ_test+0x2a20>
    2116:	ee1a 2a10 	vmov	r2, s20
    211a:	4643      	mov	r3, r8
    211c:	2001      	movs	r0, #1
    211e:	4479      	add	r1, pc
    2120:	f7ff fffe 	bl	0 <__printf_chk>
    2124:	f8df 1b90 	ldr.w	r1, [pc, #2960]	; 2cb8 <FUZ_test+0x2a24>
    2128:	2001      	movs	r0, #1
    212a:	4479      	add	r1, pc
    212c:	f7ff fffe 	bl	0 <__printf_chk>
    2130:	f8df 1b88 	ldr.w	r1, [pc, #2952]	; 2cbc <FUZ_test+0x2a28>
    2134:	2001      	movs	r0, #1
    2136:	4479      	add	r1, pc
    2138:	f7ff fffe 	bl	0 <__printf_chk>
    213c:	f8df 3b30 	ldr.w	r3, [pc, #2864]	; 2c70 <FUZ_test+0x29dc>
    2140:	9a07      	ldr	r2, [sp, #28]
    2142:	58d3      	ldr	r3, [r2, r3]
    2144:	6818      	ldr	r0, [r3, #0]
    2146:	f7ff fffe 	bl	0 <fflush>
    214a:	f7fe bb0d 	b.w	768 <FUZ_test+0x4d4>
    214e:	f8df 1b70 	ldr.w	r1, [pc, #2928]	; 2cc0 <FUZ_test+0x2a2c>
    2152:	ee1a 2a10 	vmov	r2, s20
    2156:	4633      	mov	r3, r6
    2158:	2001      	movs	r0, #1
    215a:	4479      	add	r1, pc
    215c:	f7ff fffe 	bl	0 <__printf_chk>
    2160:	f8df 1b60 	ldr.w	r1, [pc, #2912]	; 2cc4 <FUZ_test+0x2a30>
    2164:	2001      	movs	r0, #1
    2166:	4479      	add	r1, pc
    2168:	f7ff fffe 	bl	0 <__printf_chk>
    216c:	f8df 1b58 	ldr.w	r1, [pc, #2904]	; 2cc8 <FUZ_test+0x2a34>
    2170:	2001      	movs	r0, #1
    2172:	4479      	add	r1, pc
    2174:	f7ff fffe 	bl	0 <__printf_chk>
    2178:	f8df 3af4 	ldr.w	r3, [pc, #2804]	; 2c70 <FUZ_test+0x29dc>
    217c:	9a07      	ldr	r2, [sp, #28]
    217e:	58d3      	ldr	r3, [r2, r3]
    2180:	6818      	ldr	r0, [r3, #0]
    2182:	f7ff fffe 	bl	0 <fflush>
    2186:	f7fe bac0 	b.w	70a <FUZ_test+0x476>
    218a:	f8df 1b40 	ldr.w	r1, [pc, #2880]	; 2ccc <FUZ_test+0x2a38>
    218e:	ee1a 2a10 	vmov	r2, s20
    2192:	4623      	mov	r3, r4
    2194:	2001      	movs	r0, #1
    2196:	4479      	add	r1, pc
    2198:	f7ff fffe 	bl	0 <__printf_chk>
    219c:	f8df 1b30 	ldr.w	r1, [pc, #2864]	; 2cd0 <FUZ_test+0x2a3c>
    21a0:	2001      	movs	r0, #1
    21a2:	4479      	add	r1, pc
    21a4:	f7ff fffe 	bl	0 <__printf_chk>
    21a8:	f8df 1b28 	ldr.w	r1, [pc, #2856]	; 2cd4 <FUZ_test+0x2a40>
    21ac:	2001      	movs	r0, #1
    21ae:	4479      	add	r1, pc
    21b0:	f7ff fffe 	bl	0 <__printf_chk>
    21b4:	f8df 3ab8 	ldr.w	r3, [pc, #2744]	; 2c70 <FUZ_test+0x29dc>
    21b8:	9a07      	ldr	r2, [sp, #28]
    21ba:	58d3      	ldr	r3, [r2, r3]
    21bc:	6818      	ldr	r0, [r3, #0]
    21be:	f7ff fffe 	bl	0 <fflush>
    21c2:	f7fe ba8b 	b.w	6dc <FUZ_test+0x448>
    21c6:	f8df 1b10 	ldr.w	r1, [pc, #2832]	; 2cd8 <FUZ_test+0x2a44>
    21ca:	ee1a 2a10 	vmov	r2, s20
    21ce:	4633      	mov	r3, r6
    21d0:	2001      	movs	r0, #1
    21d2:	4479      	add	r1, pc
    21d4:	f7ff fffe 	bl	0 <__printf_chk>
    21d8:	f8df 1b00 	ldr.w	r1, [pc, #2816]	; 2cdc <FUZ_test+0x2a48>
    21dc:	2001      	movs	r0, #1
    21de:	4479      	add	r1, pc
    21e0:	f7ff fffe 	bl	0 <__printf_chk>
    21e4:	f8df 1af8 	ldr.w	r1, [pc, #2808]	; 2ce0 <FUZ_test+0x2a4c>
    21e8:	2001      	movs	r0, #1
    21ea:	4479      	add	r1, pc
    21ec:	f7ff fffe 	bl	0 <__printf_chk>
    21f0:	f8df 3a7c 	ldr.w	r3, [pc, #2684]	; 2c70 <FUZ_test+0x29dc>
    21f4:	9a07      	ldr	r2, [sp, #28]
    21f6:	58d3      	ldr	r3, [r2, r3]
    21f8:	6818      	ldr	r0, [r3, #0]
    21fa:	f7ff fffe 	bl	0 <fflush>
    21fe:	f7fe ba9c 	b.w	73a <FUZ_test+0x4a6>
    2202:	f8df 1ae0 	ldr.w	r1, [pc, #2784]	; 2ce4 <FUZ_test+0x2a50>
    2206:	ee1a 2a10 	vmov	r2, s20
    220a:	4623      	mov	r3, r4
    220c:	2001      	movs	r0, #1
    220e:	4479      	add	r1, pc
    2210:	f7ff fffe 	bl	0 <__printf_chk>
    2214:	f8df 1ad0 	ldr.w	r1, [pc, #2768]	; 2ce8 <FUZ_test+0x2a54>
    2218:	2001      	movs	r0, #1
    221a:	4479      	add	r1, pc
    221c:	f7ff fffe 	bl	0 <__printf_chk>
    2220:	f8df 1ac8 	ldr.w	r1, [pc, #2760]	; 2cec <FUZ_test+0x2a58>
    2224:	2001      	movs	r0, #1
    2226:	4479      	add	r1, pc
    2228:	f7ff fffe 	bl	0 <__printf_chk>
    222c:	f8df 3a40 	ldr.w	r3, [pc, #2624]	; 2c70 <FUZ_test+0x29dc>
    2230:	9a07      	ldr	r2, [sp, #28]
    2232:	58d3      	ldr	r3, [r2, r3]
    2234:	6818      	ldr	r0, [r3, #0]
    2236:	f7ff fffe 	bl	0 <fflush>
    223a:	f7fe bad5 	b.w	7e8 <FUZ_test+0x554>
    223e:	f8df 1ab0 	ldr.w	r1, [pc, #2736]	; 2cf0 <FUZ_test+0x2a5c>
    2242:	ee1a 2a10 	vmov	r2, s20
    2246:	4623      	mov	r3, r4
    2248:	2001      	movs	r0, #1
    224a:	4479      	add	r1, pc
    224c:	f7ff fffe 	bl	0 <__printf_chk>
    2250:	f8df 1aa0 	ldr.w	r1, [pc, #2720]	; 2cf4 <FUZ_test+0x2a60>
    2254:	2001      	movs	r0, #1
    2256:	4479      	add	r1, pc
    2258:	f7ff fffe 	bl	0 <__printf_chk>
    225c:	f8df 1a98 	ldr.w	r1, [pc, #2712]	; 2cf8 <FUZ_test+0x2a64>
    2260:	2001      	movs	r0, #1
    2262:	4479      	add	r1, pc
    2264:	f7ff fffe 	bl	0 <__printf_chk>
    2268:	f8df 3a04 	ldr.w	r3, [pc, #2564]	; 2c70 <FUZ_test+0x29dc>
    226c:	9a07      	ldr	r2, [sp, #28]
    226e:	58d3      	ldr	r3, [r2, r3]
    2270:	6818      	ldr	r0, [r3, #0]
    2272:	f7ff fffe 	bl	0 <fflush>
    2276:	f7fe baa0 	b.w	7ba <FUZ_test+0x526>
    227a:	f8df 1a80 	ldr.w	r1, [pc, #2688]	; 2cfc <FUZ_test+0x2a68>
    227e:	ee1a 2a10 	vmov	r2, s20
    2282:	4623      	mov	r3, r4
    2284:	2001      	movs	r0, #1
    2286:	4479      	add	r1, pc
    2288:	f7ff fffe 	bl	0 <__printf_chk>
    228c:	f8df 1a70 	ldr.w	r1, [pc, #2672]	; 2d00 <FUZ_test+0x2a6c>
    2290:	2001      	movs	r0, #1
    2292:	4479      	add	r1, pc
    2294:	f7ff fffe 	bl	0 <__printf_chk>
    2298:	f8df 1a68 	ldr.w	r1, [pc, #2664]	; 2d04 <FUZ_test+0x2a70>
    229c:	2001      	movs	r0, #1
    229e:	4479      	add	r1, pc
    22a0:	f7ff fffe 	bl	0 <__printf_chk>
    22a4:	f8df 39c8 	ldr.w	r3, [pc, #2504]	; 2c70 <FUZ_test+0x29dc>
    22a8:	9a07      	ldr	r2, [sp, #28]
    22aa:	58d3      	ldr	r3, [r2, r3]
    22ac:	6818      	ldr	r0, [r3, #0]
    22ae:	f7ff fffe 	bl	0 <fflush>
    22b2:	f7fe baba 	b.w	82a <FUZ_test+0x596>
    22b6:	f8df 1a50 	ldr.w	r1, [pc, #2640]	; 2d08 <FUZ_test+0x2a74>
    22ba:	ee1a 2a10 	vmov	r2, s20
    22be:	4633      	mov	r3, r6
    22c0:	2001      	movs	r0, #1
    22c2:	4479      	add	r1, pc
    22c4:	f7ff fffe 	bl	0 <__printf_chk>
    22c8:	2020      	movs	r0, #32
    22ca:	f7ff fffe 	bl	0 <putchar>
    22ce:	f8df 1a3c 	ldr.w	r1, [pc, #2620]	; 2d0c <FUZ_test+0x2a78>
    22d2:	2001      	movs	r0, #1
    22d4:	4479      	add	r1, pc
    22d6:	f7ff fffe 	bl	0 <__printf_chk>
    22da:	f8df 3994 	ldr.w	r3, [pc, #2452]	; 2c70 <FUZ_test+0x29dc>
    22de:	9a07      	ldr	r2, [sp, #28]
    22e0:	58d3      	ldr	r3, [r2, r3]
    22e2:	6818      	ldr	r0, [r3, #0]
    22e4:	f7ff fffe 	bl	0 <fflush>
    22e8:	f7fe bad9 	b.w	89e <FUZ_test+0x60a>
    22ec:	f8df 1a20 	ldr.w	r1, [pc, #2592]	; 2d10 <FUZ_test+0x2a7c>
    22f0:	ee1a 2a10 	vmov	r2, s20
    22f4:	462b      	mov	r3, r5
    22f6:	2001      	movs	r0, #1
    22f8:	4479      	add	r1, pc
    22fa:	f7ff fffe 	bl	0 <__printf_chk>
    22fe:	2020      	movs	r0, #32
    2300:	f7ff fffe 	bl	0 <putchar>
    2304:	f8df 1a0c 	ldr.w	r1, [pc, #2572]	; 2d14 <FUZ_test+0x2a80>
    2308:	2001      	movs	r0, #1
    230a:	4479      	add	r1, pc
    230c:	f7ff fffe 	bl	0 <__printf_chk>
    2310:	f8df 395c 	ldr.w	r3, [pc, #2396]	; 2c70 <FUZ_test+0x29dc>
    2314:	9a07      	ldr	r2, [sp, #28]
    2316:	58d3      	ldr	r3, [r2, r3]
    2318:	6818      	ldr	r0, [r3, #0]
    231a:	f7ff fffe 	bl	0 <fflush>
    231e:	f7fe bad0 	b.w	8c2 <FUZ_test+0x62e>
    2322:	f8df 19f4 	ldr.w	r1, [pc, #2548]	; 2d18 <FUZ_test+0x2a84>
    2326:	4613      	mov	r3, r2
    2328:	2001      	movs	r0, #1
    232a:	ee1a 2a10 	vmov	r2, s20
    232e:	4479      	add	r1, pc
    2330:	f7ff fffe 	bl	0 <__printf_chk>
    2334:	2020      	movs	r0, #32
    2336:	f7ff fffe 	bl	0 <putchar>
    233a:	f8df 19e0 	ldr.w	r1, [pc, #2528]	; 2d1c <FUZ_test+0x2a88>
    233e:	2001      	movs	r0, #1
    2340:	4479      	add	r1, pc
    2342:	f7ff fffe 	bl	0 <__printf_chk>
    2346:	f8df 3928 	ldr.w	r3, [pc, #2344]	; 2c70 <FUZ_test+0x29dc>
    234a:	9a07      	ldr	r2, [sp, #28]
    234c:	58d3      	ldr	r3, [r2, r3]
    234e:	6818      	ldr	r0, [r3, #0]
    2350:	f7ff fffe 	bl	0 <fflush>
    2354:	f7fe bade 	b.w	914 <FUZ_test+0x680>
    2358:	f8df 19c4 	ldr.w	r1, [pc, #2500]	; 2d20 <FUZ_test+0x2a8c>
    235c:	4613      	mov	r3, r2
    235e:	2001      	movs	r0, #1
    2360:	ee1a 2a10 	vmov	r2, s20
    2364:	4479      	add	r1, pc
    2366:	f7ff fffe 	bl	0 <__printf_chk>
    236a:	2020      	movs	r0, #32
    236c:	f7ff fffe 	bl	0 <putchar>
    2370:	f8df 19b0 	ldr.w	r1, [pc, #2480]	; 2d24 <FUZ_test+0x2a90>
    2374:	2001      	movs	r0, #1
    2376:	4479      	add	r1, pc
    2378:	f7ff fffe 	bl	0 <__printf_chk>
    237c:	f8df 38f0 	ldr.w	r3, [pc, #2288]	; 2c70 <FUZ_test+0x29dc>
    2380:	9a07      	ldr	r2, [sp, #28]
    2382:	58d3      	ldr	r3, [r2, r3]
    2384:	6818      	ldr	r0, [r3, #0]
    2386:	f7ff fffe 	bl	0 <fflush>
    238a:	f7fe bc0c 	b.w	ba6 <FUZ_test+0x912>
    238e:	f8df 1998 	ldr.w	r1, [pc, #2456]	; 2d28 <FUZ_test+0x2a94>
    2392:	ee1a 2a10 	vmov	r2, s20
    2396:	4633      	mov	r3, r6
    2398:	2001      	movs	r0, #1
    239a:	4479      	add	r1, pc
    239c:	f7ff fffe 	bl	0 <__printf_chk>
    23a0:	2020      	movs	r0, #32
    23a2:	f7ff fffe 	bl	0 <putchar>
    23a6:	f8df 1984 	ldr.w	r1, [pc, #2436]	; 2d2c <FUZ_test+0x2a98>
    23aa:	2001      	movs	r0, #1
    23ac:	4479      	add	r1, pc
    23ae:	f7ff fffe 	bl	0 <__printf_chk>
    23b2:	f8df 38bc 	ldr.w	r3, [pc, #2236]	; 2c70 <FUZ_test+0x29dc>
    23b6:	9a07      	ldr	r2, [sp, #28]
    23b8:	58d3      	ldr	r3, [r2, r3]
    23ba:	6818      	ldr	r0, [r3, #0]
    23bc:	f7ff fffe 	bl	0 <fflush>
    23c0:	f7fe bbdb 	b.w	b7a <FUZ_test+0x8e6>
    23c4:	f8df 1968 	ldr.w	r1, [pc, #2408]	; 2d30 <FUZ_test+0x2a9c>
    23c8:	ee1a 2a10 	vmov	r2, s20
    23cc:	4633      	mov	r3, r6
    23ce:	2001      	movs	r0, #1
    23d0:	4479      	add	r1, pc
    23d2:	f7ff fffe 	bl	0 <__printf_chk>
    23d6:	f8df 195c 	ldr.w	r1, [pc, #2396]	; 2d34 <FUZ_test+0x2aa0>
    23da:	2001      	movs	r0, #1
    23dc:	4479      	add	r1, pc
    23de:	f7ff fffe 	bl	0 <__printf_chk>
    23e2:	f8df 1954 	ldr.w	r1, [pc, #2388]	; 2d38 <FUZ_test+0x2aa4>
    23e6:	2001      	movs	r0, #1
    23e8:	4479      	add	r1, pc
    23ea:	f7ff fffe 	bl	0 <__printf_chk>
    23ee:	f8df 3880 	ldr.w	r3, [pc, #2176]	; 2c70 <FUZ_test+0x29dc>
    23f2:	9a07      	ldr	r2, [sp, #28]
    23f4:	58d3      	ldr	r3, [r2, r3]
    23f6:	6818      	ldr	r0, [r3, #0]
    23f8:	f7ff fffe 	bl	0 <fflush>
    23fc:	f7fe bb9f 	b.w	b3e <FUZ_test+0x8aa>
    2400:	f8df 1938 	ldr.w	r1, [pc, #2360]	; 2d3c <FUZ_test+0x2aa8>
    2404:	ee1a 2a10 	vmov	r2, s20
    2408:	4633      	mov	r3, r6
    240a:	2001      	movs	r0, #1
    240c:	4479      	add	r1, pc
    240e:	f7ff fffe 	bl	0 <__printf_chk>
    2412:	f8df 192c 	ldr.w	r1, [pc, #2348]	; 2d40 <FUZ_test+0x2aac>
    2416:	2001      	movs	r0, #1
    2418:	4479      	add	r1, pc
    241a:	f7ff fffe 	bl	0 <__printf_chk>
    241e:	f8df 1924 	ldr.w	r1, [pc, #2340]	; 2d44 <FUZ_test+0x2ab0>
    2422:	2001      	movs	r0, #1
    2424:	4479      	add	r1, pc
    2426:	f7ff fffe 	bl	0 <__printf_chk>
    242a:	f8df 3844 	ldr.w	r3, [pc, #2116]	; 2c70 <FUZ_test+0x29dc>
    242e:	9a07      	ldr	r2, [sp, #28]
    2430:	58d3      	ldr	r3, [r2, r3]
    2432:	6818      	ldr	r0, [r3, #0]
    2434:	f7ff fffe 	bl	0 <fflush>
    2438:	f7fe bcee 	b.w	e18 <FUZ_test+0xb84>
    243c:	f8df 1908 	ldr.w	r1, [pc, #2312]	; 2d48 <FUZ_test+0x2ab4>
    2440:	ee1a 2a10 	vmov	r2, s20
    2444:	4633      	mov	r3, r6
    2446:	2001      	movs	r0, #1
    2448:	4479      	add	r1, pc
    244a:	f7ff fffe 	bl	0 <__printf_chk>
    244e:	f8df 18fc 	ldr.w	r1, [pc, #2300]	; 2d4c <FUZ_test+0x2ab8>
    2452:	2001      	movs	r0, #1
    2454:	4479      	add	r1, pc
    2456:	f7ff fffe 	bl	0 <__printf_chk>
    245a:	f8df 18f4 	ldr.w	r1, [pc, #2292]	; 2d50 <FUZ_test+0x2abc>
    245e:	2001      	movs	r0, #1
    2460:	4479      	add	r1, pc
    2462:	f7ff fffe 	bl	0 <__printf_chk>
    2466:	f8df 3808 	ldr.w	r3, [pc, #2056]	; 2c70 <FUZ_test+0x29dc>
    246a:	9a07      	ldr	r2, [sp, #28]
    246c:	58d3      	ldr	r3, [r2, r3]
    246e:	6818      	ldr	r0, [r3, #0]
    2470:	f7ff fffe 	bl	0 <fflush>
    2474:	f7fe bd28 	b.w	ec8 <FUZ_test+0xc34>
    2478:	f8df 18d8 	ldr.w	r1, [pc, #2264]	; 2d54 <FUZ_test+0x2ac0>
    247c:	ee1a 2a10 	vmov	r2, s20
    2480:	4633      	mov	r3, r6
    2482:	2001      	movs	r0, #1
    2484:	4479      	add	r1, pc
    2486:	f7ff fffe 	bl	0 <__printf_chk>
    248a:	f8df 18cc 	ldr.w	r1, [pc, #2252]	; 2d58 <FUZ_test+0x2ac4>
    248e:	2001      	movs	r0, #1
    2490:	4479      	add	r1, pc
    2492:	f7ff fffe 	bl	0 <__printf_chk>
    2496:	f8df 18c4 	ldr.w	r1, [pc, #2244]	; 2d5c <FUZ_test+0x2ac8>
    249a:	2001      	movs	r0, #1
    249c:	4479      	add	r1, pc
    249e:	f7ff fffe 	bl	0 <__printf_chk>
    24a2:	f8df 37cc 	ldr.w	r3, [pc, #1996]	; 2c70 <FUZ_test+0x29dc>
    24a6:	9a07      	ldr	r2, [sp, #28]
    24a8:	58d3      	ldr	r3, [r2, r3]
    24aa:	6818      	ldr	r0, [r3, #0]
    24ac:	f7ff fffe 	bl	0 <fflush>
    24b0:	f7fe bcf2 	b.w	e98 <FUZ_test+0xc04>
    24b4:	f8df 18a8 	ldr.w	r1, [pc, #2216]	; 2d60 <FUZ_test+0x2acc>
    24b8:	ee1a 2a10 	vmov	r2, s20
    24bc:	462b      	mov	r3, r5
    24be:	4630      	mov	r0, r6
    24c0:	4479      	add	r1, pc
    24c2:	f7ff fffe 	bl	0 <__printf_chk>
    24c6:	f8df 189c 	ldr.w	r1, [pc, #2204]	; 2d64 <FUZ_test+0x2ad0>
    24ca:	4630      	mov	r0, r6
    24cc:	4479      	add	r1, pc
    24ce:	f7ff fffe 	bl	0 <__printf_chk>
    24d2:	f8df 1894 	ldr.w	r1, [pc, #2196]	; 2d68 <FUZ_test+0x2ad4>
    24d6:	4630      	mov	r0, r6
    24d8:	4479      	add	r1, pc
    24da:	f7ff fffe 	bl	0 <__printf_chk>
    24de:	f8df 3790 	ldr.w	r3, [pc, #1936]	; 2c70 <FUZ_test+0x29dc>
    24e2:	9a07      	ldr	r2, [sp, #28]
    24e4:	58d3      	ldr	r3, [r2, r3]
    24e6:	6818      	ldr	r0, [r3, #0]
    24e8:	f7ff fffe 	bl	0 <fflush>
    24ec:	f7fe bcbf 	b.w	e6e <FUZ_test+0xbda>
    24f0:	f8df 1878 	ldr.w	r1, [pc, #2168]	; 2d6c <FUZ_test+0x2ad8>
    24f4:	ee1a 2a10 	vmov	r2, s20
    24f8:	462b      	mov	r3, r5
    24fa:	2001      	movs	r0, #1
    24fc:	4479      	add	r1, pc
    24fe:	f7ff fffe 	bl	0 <__printf_chk>
    2502:	f8df 186c 	ldr.w	r1, [pc, #2156]	; 2d70 <FUZ_test+0x2adc>
    2506:	2001      	movs	r0, #1
    2508:	4479      	add	r1, pc
    250a:	f7ff fffe 	bl	0 <__printf_chk>
    250e:	f8df 1864 	ldr.w	r1, [pc, #2148]	; 2d74 <FUZ_test+0x2ae0>
    2512:	2001      	movs	r0, #1
    2514:	4479      	add	r1, pc
    2516:	f7ff fffe 	bl	0 <__printf_chk>
    251a:	f8df 3754 	ldr.w	r3, [pc, #1876]	; 2c70 <FUZ_test+0x29dc>
    251e:	9a07      	ldr	r2, [sp, #28]
    2520:	58d3      	ldr	r3, [r2, r3]
    2522:	6818      	ldr	r0, [r3, #0]
    2524:	f7ff fffe 	bl	0 <fflush>
    2528:	f7fe bc89 	b.w	e3e <FUZ_test+0xbaa>
    252c:	f8df 1848 	ldr.w	r1, [pc, #2120]	; 2d78 <FUZ_test+0x2ae4>
    2530:	ee1a 2a10 	vmov	r2, s20
    2534:	465b      	mov	r3, fp
    2536:	2001      	movs	r0, #1
    2538:	4479      	add	r1, pc
    253a:	f7ff fffe 	bl	0 <__printf_chk>
    253e:	f8df 183c 	ldr.w	r1, [pc, #2108]	; 2d7c <FUZ_test+0x2ae8>
    2542:	2001      	movs	r0, #1
    2544:	4479      	add	r1, pc
    2546:	f7ff fffe 	bl	0 <__printf_chk>
    254a:	f8df 1834 	ldr.w	r1, [pc, #2100]	; 2d80 <FUZ_test+0x2aec>
    254e:	2001      	movs	r0, #1
    2550:	4479      	add	r1, pc
    2552:	f7ff fffe 	bl	0 <__printf_chk>
    2556:	f8df 3718 	ldr.w	r3, [pc, #1816]	; 2c70 <FUZ_test+0x29dc>
    255a:	9a07      	ldr	r2, [sp, #28]
    255c:	58d3      	ldr	r3, [r2, r3]
    255e:	6818      	ldr	r0, [r3, #0]
    2560:	f7ff fffe 	bl	0 <fflush>
    2564:	f7fe bd77 	b.w	1056 <FUZ_test+0xdc2>
    2568:	461a      	mov	r2, r3
    256a:	9915      	ldr	r1, [sp, #84]	; 0x54
    256c:	f44f 3320 	mov.w	r3, #163840	; 0x28000
    2570:	4648      	mov	r0, r9
    2572:	f7ff fffe 	bl	0 <__memcpy_chk>
    2576:	f7fe bd4e 	b.w	1016 <FUZ_test+0xd82>
    257a:	f8df 1808 	ldr.w	r1, [pc, #2056]	; 2d84 <FUZ_test+0x2af0>
    257e:	ee1a 2a10 	vmov	r2, s20
    2582:	465b      	mov	r3, fp
    2584:	4630      	mov	r0, r6
    2586:	4479      	add	r1, pc
    2588:	f7ff fffe 	bl	0 <__printf_chk>
    258c:	f8df 17f8 	ldr.w	r1, [pc, #2040]	; 2d88 <FUZ_test+0x2af4>
    2590:	4630      	mov	r0, r6
    2592:	4479      	add	r1, pc
    2594:	f7ff fffe 	bl	0 <__printf_chk>
    2598:	f8df 17f0 	ldr.w	r1, [pc, #2032]	; 2d8c <FUZ_test+0x2af8>
    259c:	4630      	mov	r0, r6
    259e:	4479      	add	r1, pc
    25a0:	f7ff fffe 	bl	0 <__printf_chk>
    25a4:	f8df 36c8 	ldr.w	r3, [pc, #1736]	; 2c70 <FUZ_test+0x29dc>
    25a8:	9a07      	ldr	r2, [sp, #28]
    25aa:	58d3      	ldr	r3, [r2, r3]
    25ac:	6818      	ldr	r0, [r3, #0]
    25ae:	f7ff fffe 	bl	0 <fflush>
    25b2:	f7fe bd2c 	b.w	100e <FUZ_test+0xd7a>
    25b6:	f8df 17d8 	ldr.w	r1, [pc, #2008]	; 2d90 <FUZ_test+0x2afc>
    25ba:	465b      	mov	r3, fp
    25bc:	ee1a 2a10 	vmov	r2, s20
    25c0:	2001      	movs	r0, #1
    25c2:	4479      	add	r1, pc
    25c4:	f7ff fffe 	bl	0 <__printf_chk>
    25c8:	f8df 17c8 	ldr.w	r1, [pc, #1992]	; 2d94 <FUZ_test+0x2b00>
    25cc:	9a06      	ldr	r2, [sp, #24]
    25ce:	2001      	movs	r0, #1
    25d0:	4479      	add	r1, pc
    25d2:	f7ff fffe 	bl	0 <__printf_chk>
    25d6:	f8df 17c0 	ldr.w	r1, [pc, #1984]	; 2d98 <FUZ_test+0x2b04>
    25da:	2001      	movs	r0, #1
    25dc:	4479      	add	r1, pc
    25de:	f7ff fffe 	bl	0 <__printf_chk>
    25e2:	f8df 368c 	ldr.w	r3, [pc, #1676]	; 2c70 <FUZ_test+0x29dc>
    25e6:	9a07      	ldr	r2, [sp, #28]
    25e8:	58d3      	ldr	r3, [r2, r3]
    25ea:	6818      	ldr	r0, [r3, #0]
    25ec:	f7ff fffe 	bl	0 <fflush>
    25f0:	f7fe bce4 	b.w	fbc <FUZ_test+0xd28>
    25f4:	f8df 17a4 	ldr.w	r1, [pc, #1956]	; 2d9c <FUZ_test+0x2b08>
    25f8:	ee1a 2a10 	vmov	r2, s20
    25fc:	4633      	mov	r3, r6
    25fe:	2001      	movs	r0, #1
    2600:	4479      	add	r1, pc
    2602:	f7ff fffe 	bl	0 <__printf_chk>
    2606:	f8df 1798 	ldr.w	r1, [pc, #1944]	; 2da0 <FUZ_test+0x2b0c>
    260a:	2001      	movs	r0, #1
    260c:	4479      	add	r1, pc
    260e:	f7ff fffe 	bl	0 <__printf_chk>
    2612:	f8df 1790 	ldr.w	r1, [pc, #1936]	; 2da4 <FUZ_test+0x2b10>
    2616:	2001      	movs	r0, #1
    2618:	4479      	add	r1, pc
    261a:	f7ff fffe 	bl	0 <__printf_chk>
    261e:	f8df 3650 	ldr.w	r3, [pc, #1616]	; 2c70 <FUZ_test+0x29dc>
    2622:	9a07      	ldr	r2, [sp, #28]
    2624:	58d3      	ldr	r3, [r2, r3]
    2626:	6818      	ldr	r0, [r3, #0]
    2628:	f7ff fffe 	bl	0 <fflush>
    262c:	f7fe bc85 	b.w	f3a <FUZ_test+0xca6>
    2630:	f8df 1774 	ldr.w	r1, [pc, #1908]	; 2da8 <FUZ_test+0x2b14>
    2634:	ee1a 2a10 	vmov	r2, s20
    2638:	465b      	mov	r3, fp
    263a:	2001      	movs	r0, #1
    263c:	4479      	add	r1, pc
    263e:	f7ff fffe 	bl	0 <__printf_chk>
    2642:	f8df 1768 	ldr.w	r1, [pc, #1896]	; 2dac <FUZ_test+0x2b18>
    2646:	2001      	movs	r0, #1
    2648:	4479      	add	r1, pc
    264a:	f7ff fffe 	bl	0 <__printf_chk>
    264e:	f8df 1760 	ldr.w	r1, [pc, #1888]	; 2db0 <FUZ_test+0x2b1c>
    2652:	2001      	movs	r0, #1
    2654:	4479      	add	r1, pc
    2656:	f7ff fffe 	bl	0 <__printf_chk>
    265a:	f8df 3614 	ldr.w	r3, [pc, #1556]	; 2c70 <FUZ_test+0x29dc>
    265e:	9a07      	ldr	r2, [sp, #28]
    2660:	58d3      	ldr	r3, [r2, r3]
    2662:	6818      	ldr	r0, [r3, #0]
    2664:	f7ff fffe 	bl	0 <fflush>
    2668:	f7fe bd14 	b.w	1094 <FUZ_test+0xe00>
    266c:	f8df 1744 	ldr.w	r1, [pc, #1860]	; 2db4 <FUZ_test+0x2b20>
    2670:	ee1a 2a10 	vmov	r2, s20
    2674:	4643      	mov	r3, r8
    2676:	4658      	mov	r0, fp
    2678:	4479      	add	r1, pc
    267a:	f7ff fffe 	bl	0 <__printf_chk>
    267e:	f8df 1738 	ldr.w	r1, [pc, #1848]	; 2db8 <FUZ_test+0x2b24>
    2682:	4658      	mov	r0, fp
    2684:	4479      	add	r1, pc
    2686:	f7ff fffe 	bl	0 <__printf_chk>
    268a:	f8df 1730 	ldr.w	r1, [pc, #1840]	; 2dbc <FUZ_test+0x2b28>
    268e:	4658      	mov	r0, fp
    2690:	4479      	add	r1, pc
    2692:	f7ff fffe 	bl	0 <__printf_chk>
    2696:	f8df 35d8 	ldr.w	r3, [pc, #1496]	; 2c70 <FUZ_test+0x29dc>
    269a:	9a07      	ldr	r2, [sp, #28]
    269c:	58d5      	ldr	r5, [r2, r3]
    269e:	6828      	ldr	r0, [r5, #0]
    26a0:	f7ff fffe 	bl	0 <fflush>
    26a4:	6833      	ldr	r3, [r6, #0]
    26a6:	2b04      	cmp	r3, #4
    26a8:	f77e ad4f 	ble.w	114a <FUZ_test+0xeb6>
    26ac:	9b06      	ldr	r3, [sp, #24]
    26ae:	4659      	mov	r1, fp
    26b0:	6828      	ldr	r0, [r5, #0]
    26b2:	9303      	str	r3, [sp, #12]
    26b4:	ee18 3a10 	vmov	r3, s16
    26b8:	f8df 2704 	ldr.w	r2, [pc, #1796]	; 2dc0 <FUZ_test+0x2b2c>
    26bc:	edcd 8a00 	vstr	s17, [sp]
    26c0:	447a      	add	r2, pc
    26c2:	e9cd 9301 	strd	r9, r3, [sp, #4]
    26c6:	463b      	mov	r3, r7
    26c8:	f7ff fffe 	bl	0 <__fprintf_chk>
    26cc:	f7fe bd3d 	b.w	114a <FUZ_test+0xeb6>
    26d0:	f8df 16f0 	ldr.w	r1, [pc, #1776]	; 2dc4 <FUZ_test+0x2b30>
    26d4:	ee1a 2a10 	vmov	r2, s20
    26d8:	4643      	mov	r3, r8
    26da:	4630      	mov	r0, r6
    26dc:	4479      	add	r1, pc
    26de:	f7ff fffe 	bl	0 <__printf_chk>
    26e2:	f8df 16e4 	ldr.w	r1, [pc, #1764]	; 2dc8 <FUZ_test+0x2b34>
    26e6:	4630      	mov	r0, r6
    26e8:	4479      	add	r1, pc
    26ea:	f7ff fffe 	bl	0 <__printf_chk>
    26ee:	f8df 16dc 	ldr.w	r1, [pc, #1756]	; 2dcc <FUZ_test+0x2b38>
    26f2:	4630      	mov	r0, r6
    26f4:	4479      	add	r1, pc
    26f6:	f7ff fffe 	bl	0 <__printf_chk>
    26fa:	f8df 3574 	ldr.w	r3, [pc, #1396]	; 2c70 <FUZ_test+0x29dc>
    26fe:	9a07      	ldr	r2, [sp, #28]
    2700:	58d3      	ldr	r3, [r2, r3]
    2702:	6818      	ldr	r0, [r3, #0]
    2704:	f7ff fffe 	bl	0 <fflush>
    2708:	f7fe bcf9 	b.w	10fe <FUZ_test+0xe6a>
    270c:	f8df 16c0 	ldr.w	r1, [pc, #1728]	; 2dd0 <FUZ_test+0x2b3c>
    2710:	ee1a 2a10 	vmov	r2, s20
    2714:	4643      	mov	r3, r8
    2716:	4658      	mov	r0, fp
    2718:	4479      	add	r1, pc
    271a:	f7ff fffe 	bl	0 <__printf_chk>
    271e:	f8df 16b4 	ldr.w	r1, [pc, #1716]	; 2dd4 <FUZ_test+0x2b40>
    2722:	4658      	mov	r0, fp
    2724:	4479      	add	r1, pc
    2726:	f7ff fffe 	bl	0 <__printf_chk>
    272a:	f8df 16ac 	ldr.w	r1, [pc, #1708]	; 2dd8 <FUZ_test+0x2b44>
    272e:	4658      	mov	r0, fp
    2730:	4479      	add	r1, pc
    2732:	f7ff fffe 	bl	0 <__printf_chk>
    2736:	f8df 3538 	ldr.w	r3, [pc, #1336]	; 2c70 <FUZ_test+0x29dc>
    273a:	9a07      	ldr	r2, [sp, #28]
    273c:	58d5      	ldr	r5, [r2, r3]
    273e:	6828      	ldr	r0, [r5, #0]
    2740:	f7ff fffe 	bl	0 <fflush>
    2744:	6833      	ldr	r3, [r6, #0]
    2746:	2b04      	cmp	r3, #4
    2748:	f77e ad21 	ble.w	118e <FUZ_test+0xefa>
    274c:	9b06      	ldr	r3, [sp, #24]
    274e:	4659      	mov	r1, fp
    2750:	6828      	ldr	r0, [r5, #0]
    2752:	9302      	str	r3, [sp, #8]
    2754:	ee18 3a10 	vmov	r3, s16
    2758:	f8df 2680 	ldr.w	r2, [pc, #1664]	; 2ddc <FUZ_test+0x2b48>
    275c:	447a      	add	r2, pc
    275e:	e9cd 9300 	strd	r9, r3, [sp]
    2762:	463b      	mov	r3, r7
    2764:	f7ff fffe 	bl	0 <__fprintf_chk>
    2768:	f7fe bd11 	b.w	118e <FUZ_test+0xefa>
    276c:	f8df 1670 	ldr.w	r1, [pc, #1648]	; 2de0 <FUZ_test+0x2b4c>
    2770:	ee1a 2a10 	vmov	r2, s20
    2774:	465b      	mov	r3, fp
    2776:	2001      	movs	r0, #1
    2778:	4479      	add	r1, pc
    277a:	f7ff fffe 	bl	0 <__printf_chk>
    277e:	2020      	movs	r0, #32
    2780:	f7ff fffe 	bl	0 <putchar>
    2784:	f8df 165c 	ldr.w	r1, [pc, #1628]	; 2de4 <FUZ_test+0x2b50>
    2788:	2001      	movs	r0, #1
    278a:	4479      	add	r1, pc
    278c:	f7ff fffe 	bl	0 <__printf_chk>
    2790:	f8df 34dc 	ldr.w	r3, [pc, #1244]	; 2c70 <FUZ_test+0x29dc>
    2794:	9a07      	ldr	r2, [sp, #28]
    2796:	58d3      	ldr	r3, [r2, r3]
    2798:	6818      	ldr	r0, [r3, #0]
    279a:	f7ff fffe 	bl	0 <fflush>
    279e:	42be      	cmp	r6, r7
    27a0:	f6be adaf 	bge.w	1302 <FUZ_test+0x106e>
    27a4:	f7fe bd96 	b.w	12d4 <FUZ_test+0x1040>
    27a8:	f8df 163c 	ldr.w	r1, [pc, #1596]	; 2de8 <FUZ_test+0x2b54>
    27ac:	4613      	mov	r3, r2
    27ae:	2001      	movs	r0, #1
    27b0:	ee1a 2a10 	vmov	r2, s20
    27b4:	4479      	add	r1, pc
    27b6:	f7ff fffe 	bl	0 <__printf_chk>
    27ba:	2020      	movs	r0, #32
    27bc:	f7ff fffe 	bl	0 <putchar>
    27c0:	f8df 1628 	ldr.w	r1, [pc, #1576]	; 2dec <FUZ_test+0x2b58>
    27c4:	2001      	movs	r0, #1
    27c6:	4479      	add	r1, pc
    27c8:	f7ff fffe 	bl	0 <__printf_chk>
    27cc:	f8df 34a0 	ldr.w	r3, [pc, #1184]	; 2c70 <FUZ_test+0x29dc>
    27d0:	9a07      	ldr	r2, [sp, #28]
    27d2:	58d3      	ldr	r3, [r2, r3]
    27d4:	6818      	ldr	r0, [r3, #0]
    27d6:	f7ff fffe 	bl	0 <fflush>
    27da:	f7fe bcff 	b.w	11dc <FUZ_test+0xf48>
    27de:	f8df 1610 	ldr.w	r1, [pc, #1552]	; 2df0 <FUZ_test+0x2b5c>
    27e2:	ee1a 2a10 	vmov	r2, s20
    27e6:	462b      	mov	r3, r5
    27e8:	4640      	mov	r0, r8
    27ea:	4479      	add	r1, pc
    27ec:	f7ff fffe 	bl	0 <__printf_chk>
    27f0:	f8df 1600 	ldr.w	r1, [pc, #1536]	; 2df4 <FUZ_test+0x2b60>
    27f4:	4640      	mov	r0, r8
    27f6:	4479      	add	r1, pc
    27f8:	f7ff fffe 	bl	0 <__printf_chk>
    27fc:	f8df 15f8 	ldr.w	r1, [pc, #1528]	; 2df8 <FUZ_test+0x2b64>
    2800:	4640      	mov	r0, r8
    2802:	4479      	add	r1, pc
    2804:	f7ff fffe 	bl	0 <__printf_chk>
    2808:	f8df 3464 	ldr.w	r3, [pc, #1124]	; 2c70 <FUZ_test+0x29dc>
    280c:	9a07      	ldr	r2, [sp, #28]
    280e:	58d3      	ldr	r3, [r2, r3]
    2810:	6818      	ldr	r0, [r3, #0]
    2812:	f7ff fffe 	bl	0 <fflush>
    2816:	f7fe bdc0 	b.w	139a <FUZ_test+0x1106>
    281a:	f8df 15e0 	ldr.w	r1, [pc, #1504]	; 2dfc <FUZ_test+0x2b68>
    281e:	ee1a 2a10 	vmov	r2, s20
    2822:	462b      	mov	r3, r5
    2824:	4658      	mov	r0, fp
    2826:	4479      	add	r1, pc
    2828:	f7ff fffe 	bl	0 <__printf_chk>
    282c:	2020      	movs	r0, #32
    282e:	f7ff fffe 	bl	0 <putchar>
    2832:	f8df 15cc 	ldr.w	r1, [pc, #1484]	; 2e00 <FUZ_test+0x2b6c>
    2836:	4658      	mov	r0, fp
    2838:	4479      	add	r1, pc
    283a:	f7ff fffe 	bl	0 <__printf_chk>
    283e:	f8df 3430 	ldr.w	r3, [pc, #1072]	; 2c70 <FUZ_test+0x29dc>
    2842:	9a07      	ldr	r2, [sp, #28]
    2844:	58d3      	ldr	r3, [r2, r3]
    2846:	6818      	ldr	r0, [r3, #0]
    2848:	f7ff fffe 	bl	0 <fflush>
    284c:	f7fe bdfb 	b.w	1446 <FUZ_test+0x11b2>
    2850:	f8df 15b0 	ldr.w	r1, [pc, #1456]	; 2e04 <FUZ_test+0x2b70>
    2854:	ee1a 2a10 	vmov	r2, s20
    2858:	462b      	mov	r3, r5
    285a:	2001      	movs	r0, #1
    285c:	4479      	add	r1, pc
    285e:	f7ff fffe 	bl	0 <__printf_chk>
    2862:	f8df 15a4 	ldr.w	r1, [pc, #1444]	; 2e08 <FUZ_test+0x2b74>
    2866:	2001      	movs	r0, #1
    2868:	4479      	add	r1, pc
    286a:	f7ff fffe 	bl	0 <__printf_chk>
    286e:	f8df 159c 	ldr.w	r1, [pc, #1436]	; 2e0c <FUZ_test+0x2b78>
    2872:	2001      	movs	r0, #1
    2874:	4479      	add	r1, pc
    2876:	f7ff fffe 	bl	0 <__printf_chk>
    287a:	4bfd      	ldr	r3, [pc, #1012]	; (2c70 <FUZ_test+0x29dc>)
    287c:	9a07      	ldr	r2, [sp, #28]
    287e:	58d3      	ldr	r3, [r2, r3]
    2880:	6818      	ldr	r0, [r3, #0]
    2882:	f7ff fffe 	bl	0 <fflush>
    2886:	f7fe bdbd 	b.w	1404 <FUZ_test+0x1170>
    288a:	f8df 1584 	ldr.w	r1, [pc, #1412]	; 2e10 <FUZ_test+0x2b7c>
    288e:	ee1a 2a10 	vmov	r2, s20
    2892:	4643      	mov	r3, r8
    2894:	4658      	mov	r0, fp
    2896:	4479      	add	r1, pc
    2898:	f7ff fffe 	bl	0 <__printf_chk>
    289c:	2020      	movs	r0, #32
    289e:	f7ff fffe 	bl	0 <putchar>
    28a2:	f8df 1570 	ldr.w	r1, [pc, #1392]	; 2e14 <FUZ_test+0x2b80>
    28a6:	4658      	mov	r0, fp
    28a8:	4479      	add	r1, pc
    28aa:	f7ff fffe 	bl	0 <__printf_chk>
    28ae:	4bf0      	ldr	r3, [pc, #960]	; (2c70 <FUZ_test+0x29dc>)
    28b0:	9a07      	ldr	r2, [sp, #28]
    28b2:	58d3      	ldr	r3, [r2, r3]
    28b4:	6818      	ldr	r0, [r3, #0]
    28b6:	f7ff fffe 	bl	0 <fflush>
    28ba:	f7fe be17 	b.w	14ec <FUZ_test+0x1258>
    28be:	f8df 1558 	ldr.w	r1, [pc, #1368]	; 2e18 <FUZ_test+0x2b84>
    28c2:	ee1a 2a10 	vmov	r2, s20
    28c6:	4643      	mov	r3, r8
    28c8:	4658      	mov	r0, fp
    28ca:	4479      	add	r1, pc
    28cc:	f7ff fffe 	bl	0 <__printf_chk>
    28d0:	2020      	movs	r0, #32
    28d2:	f7ff fffe 	bl	0 <putchar>
    28d6:	f8df 1544 	ldr.w	r1, [pc, #1348]	; 2e1c <FUZ_test+0x2b88>
    28da:	4658      	mov	r0, fp
    28dc:	4479      	add	r1, pc
    28de:	f7ff fffe 	bl	0 <__printf_chk>
    28e2:	4be3      	ldr	r3, [pc, #908]	; (2c70 <FUZ_test+0x29dc>)
    28e4:	9a07      	ldr	r2, [sp, #28]
    28e6:	58d3      	ldr	r3, [r2, r3]
    28e8:	6818      	ldr	r0, [r3, #0]
    28ea:	f7ff fffe 	bl	0 <fflush>
    28ee:	f7fe bdd4 	b.w	149a <FUZ_test+0x1206>
    28f2:	f8df 152c 	ldr.w	r1, [pc, #1324]	; 2e20 <FUZ_test+0x2b8c>
    28f6:	ee1a 2a10 	vmov	r2, s20
    28fa:	465b      	mov	r3, fp
    28fc:	2001      	movs	r0, #1
    28fe:	4479      	add	r1, pc
    2900:	f7ff fffe 	bl	0 <__printf_chk>
    2904:	2020      	movs	r0, #32
    2906:	f7ff fffe 	bl	0 <putchar>
    290a:	f8df 1518 	ldr.w	r1, [pc, #1304]	; 2e24 <FUZ_test+0x2b90>
    290e:	2001      	movs	r0, #1
    2910:	4479      	add	r1, pc
    2912:	f7ff fffe 	bl	0 <__printf_chk>
    2916:	4bd6      	ldr	r3, [pc, #856]	; (2c70 <FUZ_test+0x29dc>)
    2918:	9a07      	ldr	r2, [sp, #28]
    291a:	58d3      	ldr	r3, [r2, r3]
    291c:	6818      	ldr	r0, [r3, #0]
    291e:	f7ff fffe 	bl	0 <fflush>
    2922:	f7fe be08 	b.w	1536 <FUZ_test+0x12a2>
    2926:	f8df 1500 	ldr.w	r1, [pc, #1280]	; 2e28 <FUZ_test+0x2b94>
    292a:	ee1a 2a10 	vmov	r2, s20
    292e:	4643      	mov	r3, r8
    2930:	2001      	movs	r0, #1
    2932:	4479      	add	r1, pc
    2934:	f7ff fffe 	bl	0 <__printf_chk>
    2938:	f8df 14f0 	ldr.w	r1, [pc, #1264]	; 2e2c <FUZ_test+0x2b98>
    293c:	2001      	movs	r0, #1
    293e:	4479      	add	r1, pc
    2940:	f7ff fffe 	bl	0 <__printf_chk>
    2944:	f8df 14e8 	ldr.w	r1, [pc, #1256]	; 2e30 <FUZ_test+0x2b9c>
    2948:	2001      	movs	r0, #1
    294a:	4479      	add	r1, pc
    294c:	f7ff fffe 	bl	0 <__printf_chk>
    2950:	4bc7      	ldr	r3, [pc, #796]	; (2c70 <FUZ_test+0x29dc>)
    2952:	9a07      	ldr	r2, [sp, #28]
    2954:	58d3      	ldr	r3, [r2, r3]
    2956:	6818      	ldr	r0, [r3, #0]
    2958:	f7ff fffe 	bl	0 <fflush>
    295c:	42af      	cmp	r7, r5
    295e:	f77f a9e6 	ble.w	1d2e <FUZ_test+0x1a9a>
    2962:	4632      	mov	r2, r6
    2964:	1b7e      	subs	r6, r7, r5
    2966:	9b06      	ldr	r3, [sp, #24]
    2968:	f04f 0c00 	mov.w	ip, #0
    296c:	9301      	str	r3, [sp, #4]
    296e:	4649      	mov	r1, r9
    2970:	ed8d 8a00 	vstr	s16, [sp]
    2974:	4633      	mov	r3, r6
    2976:	4650      	mov	r0, sl
    2978:	f809 c006 	strb.w	ip, [r9, r6]
    297c:	f7ff fffe 	bl	0 <LZ4_decompress_safe_usingDict>
    2980:	2800      	cmp	r0, #0
    2982:	f281 813c 	bge.w	3bfe <FUZ_test+0x396a>
    2986:	f819 3006 	ldrb.w	r3, [r9, r6]
    298a:	2b00      	cmp	r3, #0
    298c:	f43f a9cf 	beq.w	1d2e <FUZ_test+0x1a9a>
    2990:	f8df 14a0 	ldr.w	r1, [pc, #1184]	; 2e34 <FUZ_test+0x2ba0>
    2994:	4642      	mov	r2, r8
    2996:	2001      	movs	r0, #1
    2998:	4479      	add	r1, pc
    299a:	f7ff fffe 	bl	0 <__printf_chk>
    299e:	f8df 1498 	ldr.w	r1, [pc, #1176]	; 2e38 <FUZ_test+0x2ba4>
    29a2:	463b      	mov	r3, r7
    29a4:	462a      	mov	r2, r5
    29a6:	4479      	add	r1, pc
    29a8:	2001      	movs	r0, #1
    29aa:	f7ff fffe 	bl	0 <__printf_chk>
    29ae:	f8df 148c 	ldr.w	r1, [pc, #1164]	; 2e3c <FUZ_test+0x2ba8>
    29b2:	ee1a 3a10 	vmov	r3, s20
    29b6:	ee1d 2a10 	vmov	r2, s26
    29ba:	4479      	add	r1, pc
    29bc:	2001      	movs	r0, #1
    29be:	f7ff fffe 	bl	0 <__printf_chk>
    29c2:	2001      	movs	r0, #1
    29c4:	f7ff fffe 	bl	0 <exit>
    29c8:	f8df 1474 	ldr.w	r1, [pc, #1140]	; 2e40 <FUZ_test+0x2bac>
    29cc:	ee1a 2a10 	vmov	r2, s20
    29d0:	4633      	mov	r3, r6
    29d2:	2001      	movs	r0, #1
    29d4:	4479      	add	r1, pc
    29d6:	f7ff fffe 	bl	0 <__printf_chk>
    29da:	f8df 1468 	ldr.w	r1, [pc, #1128]	; 2e44 <FUZ_test+0x2bb0>
    29de:	2001      	movs	r0, #1
    29e0:	4479      	add	r1, pc
    29e2:	f7ff fffe 	bl	0 <__printf_chk>
    29e6:	f8df 1460 	ldr.w	r1, [pc, #1120]	; 2e48 <FUZ_test+0x2bb4>
    29ea:	2001      	movs	r0, #1
    29ec:	4479      	add	r1, pc
    29ee:	f7ff fffe 	bl	0 <__printf_chk>
    29f2:	4b9f      	ldr	r3, [pc, #636]	; (2c70 <FUZ_test+0x29dc>)
    29f4:	9a07      	ldr	r2, [sp, #28]
    29f6:	58d3      	ldr	r3, [r2, r3]
    29f8:	6818      	ldr	r0, [r3, #0]
    29fa:	f7ff fffe 	bl	0 <fflush>
    29fe:	f7fe be6d 	b.w	16dc <FUZ_test+0x1448>
    2a02:	f8df 1448 	ldr.w	r1, [pc, #1096]	; 2e4c <FUZ_test+0x2bb8>
    2a06:	ee1a 2a10 	vmov	r2, s20
    2a0a:	4633      	mov	r3, r6
    2a0c:	2001      	movs	r0, #1
    2a0e:	4479      	add	r1, pc
    2a10:	f7ff fffe 	bl	0 <__printf_chk>
    2a14:	f8df 1438 	ldr.w	r1, [pc, #1080]	; 2e50 <FUZ_test+0x2bbc>
    2a18:	2001      	movs	r0, #1
    2a1a:	4479      	add	r1, pc
    2a1c:	f7ff fffe 	bl	0 <__printf_chk>
    2a20:	f8df 1430 	ldr.w	r1, [pc, #1072]	; 2e54 <FUZ_test+0x2bc0>
    2a24:	2001      	movs	r0, #1
    2a26:	4479      	add	r1, pc
    2a28:	f7ff fffe 	bl	0 <__printf_chk>
    2a2c:	4b90      	ldr	r3, [pc, #576]	; (2c70 <FUZ_test+0x29dc>)
    2a2e:	9a07      	ldr	r2, [sp, #28]
    2a30:	58d3      	ldr	r3, [r2, r3]
    2a32:	6818      	ldr	r0, [r3, #0]
    2a34:	f7ff fffe 	bl	0 <fflush>
    2a38:	f7fe be32 	b.w	16a0 <FUZ_test+0x140c>
    2a3c:	f8df 1418 	ldr.w	r1, [pc, #1048]	; 2e58 <FUZ_test+0x2bc4>
    2a40:	ee1a 2a10 	vmov	r2, s20
    2a44:	4623      	mov	r3, r4
    2a46:	2001      	movs	r0, #1
    2a48:	4479      	add	r1, pc
    2a4a:	f7ff fffe 	bl	0 <__printf_chk>
    2a4e:	2020      	movs	r0, #32
    2a50:	f7ff fffe 	bl	0 <putchar>
    2a54:	f8df 1404 	ldr.w	r1, [pc, #1028]	; 2e5c <FUZ_test+0x2bc8>
    2a58:	2001      	movs	r0, #1
    2a5a:	4479      	add	r1, pc
    2a5c:	f7ff fffe 	bl	0 <__printf_chk>
    2a60:	4b83      	ldr	r3, [pc, #524]	; (2c70 <FUZ_test+0x29dc>)
    2a62:	9a07      	ldr	r2, [sp, #28]
    2a64:	58d3      	ldr	r3, [r2, r3]
    2a66:	6818      	ldr	r0, [r3, #0]
    2a68:	f7ff fffe 	bl	0 <fflush>
    2a6c:	f7fe be55 	b.w	171a <FUZ_test+0x1486>
    2a70:	49fb      	ldr	r1, [pc, #1004]	; (2e60 <FUZ_test+0x2bcc>)
    2a72:	4613      	mov	r3, r2
    2a74:	2001      	movs	r0, #1
    2a76:	ee1a 2a10 	vmov	r2, s20
    2a7a:	4479      	add	r1, pc
    2a7c:	f7ff fffe 	bl	0 <__printf_chk>
    2a80:	2020      	movs	r0, #32
    2a82:	f7ff fffe 	bl	0 <putchar>
    2a86:	49f7      	ldr	r1, [pc, #988]	; (2e64 <FUZ_test+0x2bd0>)
    2a88:	2001      	movs	r0, #1
    2a8a:	4479      	add	r1, pc
    2a8c:	f7ff fffe 	bl	0 <__printf_chk>
    2a90:	4b77      	ldr	r3, [pc, #476]	; (2c70 <FUZ_test+0x29dc>)
    2a92:	9a07      	ldr	r2, [sp, #28]
    2a94:	58d3      	ldr	r3, [r2, r3]
    2a96:	6818      	ldr	r0, [r3, #0]
    2a98:	f7ff fffe 	bl	0 <fflush>
    2a9c:	f7fe be62 	b.w	1764 <FUZ_test+0x14d0>
    2aa0:	49f1      	ldr	r1, [pc, #964]	; (2e68 <FUZ_test+0x2bd4>)
    2aa2:	4613      	mov	r3, r2
    2aa4:	2001      	movs	r0, #1
    2aa6:	ee1a 2a10 	vmov	r2, s20
    2aaa:	4479      	add	r1, pc
    2aac:	f7ff fffe 	bl	0 <__printf_chk>
    2ab0:	2020      	movs	r0, #32
    2ab2:	f7ff fffe 	bl	0 <putchar>
    2ab6:	49ed      	ldr	r1, [pc, #948]	; (2e6c <FUZ_test+0x2bd8>)
    2ab8:	2001      	movs	r0, #1
    2aba:	4479      	add	r1, pc
    2abc:	f7ff fffe 	bl	0 <__printf_chk>
    2ac0:	4b6b      	ldr	r3, [pc, #428]	; (2c70 <FUZ_test+0x29dc>)
    2ac2:	9a07      	ldr	r2, [sp, #28]
    2ac4:	58d3      	ldr	r3, [r2, r3]
    2ac6:	6818      	ldr	r0, [r3, #0]
    2ac8:	f7ff fffe 	bl	0 <fflush>
    2acc:	f7fe be9a 	b.w	1804 <FUZ_test+0x1570>
    2ad0:	49e7      	ldr	r1, [pc, #924]	; (2e70 <FUZ_test+0x2bdc>)
    2ad2:	4613      	mov	r3, r2
    2ad4:	2001      	movs	r0, #1
    2ad6:	ee1a 2a10 	vmov	r2, s20
    2ada:	4479      	add	r1, pc
    2adc:	f7ff fffe 	bl	0 <__printf_chk>
    2ae0:	2020      	movs	r0, #32
    2ae2:	f7ff fffe 	bl	0 <putchar>
    2ae6:	49e3      	ldr	r1, [pc, #908]	; (2e74 <FUZ_test+0x2be0>)
    2ae8:	2001      	movs	r0, #1
    2aea:	4479      	add	r1, pc
    2aec:	f7ff fffe 	bl	0 <__printf_chk>
    2af0:	4b5f      	ldr	r3, [pc, #380]	; (2c70 <FUZ_test+0x29dc>)
    2af2:	9a07      	ldr	r2, [sp, #28]
    2af4:	58d3      	ldr	r3, [r2, r3]
    2af6:	6818      	ldr	r0, [r3, #0]
    2af8:	f7ff fffe 	bl	0 <fflush>
    2afc:	f7fe be61 	b.w	17c2 <FUZ_test+0x152e>
    2b00:	49dd      	ldr	r1, [pc, #884]	; (2e78 <FUZ_test+0x2be4>)
    2b02:	4613      	mov	r3, r2
    2b04:	2001      	movs	r0, #1
    2b06:	ee1a 2a10 	vmov	r2, s20
    2b0a:	4479      	add	r1, pc
    2b0c:	f7ff fffe 	bl	0 <__printf_chk>
    2b10:	2020      	movs	r0, #32
    2b12:	f7ff fffe 	bl	0 <putchar>
    2b16:	49d9      	ldr	r1, [pc, #868]	; (2e7c <FUZ_test+0x2be8>)
    2b18:	2001      	movs	r0, #1
    2b1a:	4479      	add	r1, pc
    2b1c:	f7ff fffe 	bl	0 <__printf_chk>
    2b20:	4b53      	ldr	r3, [pc, #332]	; (2c70 <FUZ_test+0x29dc>)
    2b22:	9a07      	ldr	r2, [sp, #28]
    2b24:	58d3      	ldr	r3, [r2, r3]
    2b26:	6818      	ldr	r0, [r3, #0]
    2b28:	f7ff fffe 	bl	0 <fflush>
    2b2c:	f7fe bee6 	b.w	18fc <FUZ_test+0x1668>
    2b30:	49d3      	ldr	r1, [pc, #844]	; (2e80 <FUZ_test+0x2bec>)
    2b32:	ee1a 2a10 	vmov	r2, s20
    2b36:	4623      	mov	r3, r4
    2b38:	2001      	movs	r0, #1
    2b3a:	4479      	add	r1, pc
    2b3c:	f7ff fffe 	bl	0 <__printf_chk>
    2b40:	2020      	movs	r0, #32
    2b42:	f7ff fffe 	bl	0 <putchar>
    2b46:	49cf      	ldr	r1, [pc, #828]	; (2e84 <FUZ_test+0x2bf0>)
    2b48:	2001      	movs	r0, #1
    2b4a:	4479      	add	r1, pc
    2b4c:	f7ff fffe 	bl	0 <__printf_chk>
    2b50:	4b47      	ldr	r3, [pc, #284]	; (2c70 <FUZ_test+0x29dc>)
    2b52:	9a07      	ldr	r2, [sp, #28]
    2b54:	58d3      	ldr	r3, [r2, r3]
    2b56:	6818      	ldr	r0, [r3, #0]
    2b58:	f7ff fffe 	bl	0 <fflush>
    2b5c:	f7fe bef3 	b.w	1946 <FUZ_test+0x16b2>
    2b60:	49c9      	ldr	r1, [pc, #804]	; (2e88 <FUZ_test+0x2bf4>)
    2b62:	ee1a 2a10 	vmov	r2, s20
    2b66:	4633      	mov	r3, r6
    2b68:	2001      	movs	r0, #1
    2b6a:	4479      	add	r1, pc
    2b6c:	f7ff fffe 	bl	0 <__printf_chk>
    2b70:	2020      	movs	r0, #32
    2b72:	f7ff fffe 	bl	0 <putchar>
    2b76:	49c5      	ldr	r1, [pc, #788]	; (2e8c <FUZ_test+0x2bf8>)
    2b78:	2001      	movs	r0, #1
    2b7a:	4479      	add	r1, pc
    2b7c:	f7ff fffe 	bl	0 <__printf_chk>
    2b80:	4b3b      	ldr	r3, [pc, #236]	; (2c70 <FUZ_test+0x29dc>)
    2b82:	9a07      	ldr	r2, [sp, #28]
    2b84:	58d3      	ldr	r3, [r2, r3]
    2b86:	6818      	ldr	r0, [r3, #0]
    2b88:	f7ff fffe 	bl	0 <fflush>
    2b8c:	9b0f      	ldr	r3, [sp, #60]	; 0x3c
    2b8e:	f853 3c48 	ldr.w	r3, [r3, #-72]
    2b92:	f7fe bf37 	b.w	1a04 <FUZ_test+0x1770>
    2b96:	49be      	ldr	r1, [pc, #760]	; (2e90 <FUZ_test+0x2bfc>)
    2b98:	ee1a 2a10 	vmov	r2, s20
    2b9c:	4633      	mov	r3, r6
    2b9e:	2001      	movs	r0, #1
    2ba0:	4479      	add	r1, pc
    2ba2:	f7ff fffe 	bl	0 <__printf_chk>
    2ba6:	2020      	movs	r0, #32
    2ba8:	f7ff fffe 	bl	0 <putchar>
    2bac:	49b9      	ldr	r1, [pc, #740]	; (2e94 <FUZ_test+0x2c00>)
    2bae:	2001      	movs	r0, #1
    2bb0:	4479      	add	r1, pc
    2bb2:	f7ff fffe 	bl	0 <__printf_chk>
    2bb6:	4b2e      	ldr	r3, [pc, #184]	; (2c70 <FUZ_test+0x29dc>)
    2bb8:	9a07      	ldr	r2, [sp, #28]
    2bba:	58d3      	ldr	r3, [r2, r3]
    2bbc:	6818      	ldr	r0, [r3, #0]
    2bbe:	f7ff fffe 	bl	0 <fflush>
    2bc2:	f7fd bece 	b.w	962 <FUZ_test+0x6ce>
    2bc6:	49b4      	ldr	r1, [pc, #720]	; (2e98 <FUZ_test+0x2c04>)
    2bc8:	ee1a 2a10 	vmov	r2, s20
    2bcc:	4623      	mov	r3, r4
    2bce:	2001      	movs	r0, #1
    2bd0:	4479      	add	r1, pc
    2bd2:	f7ff fffe 	bl	0 <__printf_chk>
    2bd6:	49b1      	ldr	r1, [pc, #708]	; (2e9c <FUZ_test+0x2c08>)
    2bd8:	2001      	movs	r0, #1
    2bda:	4479      	add	r1, pc
    2bdc:	f7ff fffe 	bl	0 <__printf_chk>
    2be0:	49af      	ldr	r1, [pc, #700]	; (2ea0 <FUZ_test+0x2c0c>)
    2be2:	2001      	movs	r0, #1
    2be4:	4479      	add	r1, pc
    2be6:	f7ff fffe 	bl	0 <__printf_chk>
    2bea:	4b21      	ldr	r3, [pc, #132]	; (2c70 <FUZ_test+0x29dc>)
    2bec:	9a07      	ldr	r2, [sp, #28]
    2bee:	58d3      	ldr	r3, [r2, r3]
    2bf0:	6818      	ldr	r0, [r3, #0]
    2bf2:	f7ff fffe 	bl	0 <fflush>
    2bf6:	f7fd be39 	b.w	86c <FUZ_test+0x5d8>
    2bfa:	49aa      	ldr	r1, [pc, #680]	; (2ea4 <FUZ_test+0x2c10>)
    2bfc:	ee1a 2a10 	vmov	r2, s20
    2c00:	4633      	mov	r3, r6
    2c02:	2001      	movs	r0, #1
    2c04:	4479      	add	r1, pc
    2c06:	f7ff fffe 	bl	0 <__printf_chk>
    2c0a:	49a7      	ldr	r1, [pc, #668]	; (2ea8 <FUZ_test+0x2c14>)
    2c0c:	2001      	movs	r0, #1
    2c0e:	4479      	add	r1, pc
    2c10:	f7ff fffe 	bl	0 <__printf_chk>
    2c14:	49a5      	ldr	r1, [pc, #660]	; (2eac <FUZ_test+0x2c18>)
    2c16:	2001      	movs	r0, #1
    2c18:	4479      	add	r1, pc
    2c1a:	f7ff fffe 	bl	0 <__printf_chk>
    2c1e:	4b14      	ldr	r3, [pc, #80]	; (2c70 <FUZ_test+0x29dc>)
    2c20:	9a07      	ldr	r2, [sp, #28]
    2c22:	58d3      	ldr	r3, [r2, r3]
    2c24:	6818      	ldr	r0, [r3, #0]
    2c26:	f7ff fffe 	bl	0 <fflush>
    2c2a:	f7fe b866 	b.w	cfa <FUZ_test+0xa66>
    2c2e:	49a0      	ldr	r1, [pc, #640]	; (2eb0 <FUZ_test+0x2c1c>)
    2c30:	ee1a 2a10 	vmov	r2, s20
    2c34:	4633      	mov	r3, r6
    2c36:	2001      	movs	r0, #1
    2c38:	4479      	add	r1, pc
    2c3a:	f7ff fffe 	bl	0 <__printf_chk>
    2c3e:	499d      	ldr	r1, [pc, #628]	; (2eb4 <FUZ_test+0x2c20>)
    2c40:	2001      	movs	r0, #1
    2c42:	4479      	add	r1, pc
    2c44:	f7ff fffe 	bl	0 <__printf_chk>
    2c48:	499b      	ldr	r1, [pc, #620]	; (2eb8 <FUZ_test+0x2c24>)
    2c4a:	2001      	movs	r0, #1
    2c4c:	4479      	add	r1, pc
    2c4e:	f7ff fffe 	bl	0 <__printf_chk>
    2c52:	4b07      	ldr	r3, [pc, #28]	; (2c70 <FUZ_test+0x29dc>)
    2c54:	9a07      	ldr	r2, [sp, #28]
    2c56:	58d3      	ldr	r3, [r2, r3]
    2c58:	6818      	ldr	r0, [r3, #0]
    2c5a:	f7ff fffe 	bl	0 <fflush>
    2c5e:	f7fe b805 	b.w	c6c <FUZ_test+0x9d8>
    2c62:	bf00      	nop
    2c64:	00000dc8 	.word	0x00000dc8
    2c68:	00000dc0 	.word	0x00000dc0
    2c6c:	00000db8 	.word	0x00000db8
    2c70:	00000000 	.word	0x00000000
    2c74:	00000d86 	.word	0x00000d86
    2c78:	00000d54 	.word	0x00000d54
    2c7c:	00000d04 	.word	0x00000d04
    2c80:	00000cf0 	.word	0x00000cf0
    2c84:	00000cc0 	.word	0x00000cc0
    2c88:	00000ca6 	.word	0x00000ca6
    2c8c:	00000c9e 	.word	0x00000c9e
    2c90:	00000c96 	.word	0x00000c96
    2c94:	00000c76 	.word	0x00000c76
    2c98:	00000c6e 	.word	0x00000c6e
    2c9c:	00000c66 	.word	0x00000c66
    2ca0:	00000c44 	.word	0x00000c44
    2ca4:	00000c0a 	.word	0x00000c0a
    2ca8:	00000bbe 	.word	0x00000bbe
    2cac:	00000bb6 	.word	0x00000bb6
    2cb0:	00000ba8 	.word	0x00000ba8
    2cb4:	00000b92 	.word	0x00000b92
    2cb8:	00000b8a 	.word	0x00000b8a
    2cbc:	00000b82 	.word	0x00000b82
    2cc0:	00000b62 	.word	0x00000b62
    2cc4:	00000b5a 	.word	0x00000b5a
    2cc8:	00000b52 	.word	0x00000b52
    2ccc:	00000b32 	.word	0x00000b32
    2cd0:	00000b2a 	.word	0x00000b2a
    2cd4:	00000b22 	.word	0x00000b22
    2cd8:	00000b02 	.word	0x00000b02
    2cdc:	00000afa 	.word	0x00000afa
    2ce0:	00000af2 	.word	0x00000af2
    2ce4:	00000ad2 	.word	0x00000ad2
    2ce8:	00000aca 	.word	0x00000aca
    2cec:	00000ac2 	.word	0x00000ac2
    2cf0:	00000aa2 	.word	0x00000aa2
    2cf4:	00000a9a 	.word	0x00000a9a
    2cf8:	00000a92 	.word	0x00000a92
    2cfc:	00000a72 	.word	0x00000a72
    2d00:	00000a6a 	.word	0x00000a6a
    2d04:	00000a62 	.word	0x00000a62
    2d08:	00000a42 	.word	0x00000a42
    2d0c:	00000a34 	.word	0x00000a34
    2d10:	00000a14 	.word	0x00000a14
    2d14:	00000a06 	.word	0x00000a06
    2d18:	000009e6 	.word	0x000009e6
    2d1c:	000009d8 	.word	0x000009d8
    2d20:	000009b8 	.word	0x000009b8
    2d24:	000009aa 	.word	0x000009aa
    2d28:	0000098a 	.word	0x0000098a
    2d2c:	0000097c 	.word	0x0000097c
    2d30:	0000095c 	.word	0x0000095c
    2d34:	00000954 	.word	0x00000954
    2d38:	0000094c 	.word	0x0000094c
    2d3c:	0000092c 	.word	0x0000092c
    2d40:	00000924 	.word	0x00000924
    2d44:	0000091c 	.word	0x0000091c
    2d48:	000008fc 	.word	0x000008fc
    2d4c:	000008f4 	.word	0x000008f4
    2d50:	000008ec 	.word	0x000008ec
    2d54:	000008cc 	.word	0x000008cc
    2d58:	000008c4 	.word	0x000008c4
    2d5c:	000008bc 	.word	0x000008bc
    2d60:	0000089c 	.word	0x0000089c
    2d64:	00000894 	.word	0x00000894
    2d68:	0000088c 	.word	0x0000088c
    2d6c:	0000086c 	.word	0x0000086c
    2d70:	00000864 	.word	0x00000864
    2d74:	0000085c 	.word	0x0000085c
    2d78:	0000083c 	.word	0x0000083c
    2d7c:	00000834 	.word	0x00000834
    2d80:	0000082c 	.word	0x0000082c
    2d84:	000007fa 	.word	0x000007fa
    2d88:	000007f2 	.word	0x000007f2
    2d8c:	000007ea 	.word	0x000007ea
    2d90:	000007ca 	.word	0x000007ca
    2d94:	000007c0 	.word	0x000007c0
    2d98:	000007b8 	.word	0x000007b8
    2d9c:	00000798 	.word	0x00000798
    2da0:	00000790 	.word	0x00000790
    2da4:	00000788 	.word	0x00000788
    2da8:	00000768 	.word	0x00000768
    2dac:	00000760 	.word	0x00000760
    2db0:	00000758 	.word	0x00000758
    2db4:	00000738 	.word	0x00000738
    2db8:	00000730 	.word	0x00000730
    2dbc:	00000728 	.word	0x00000728
    2dc0:	000006fc 	.word	0x000006fc
    2dc4:	000006e4 	.word	0x000006e4
    2dc8:	000006dc 	.word	0x000006dc
    2dcc:	000006d4 	.word	0x000006d4
    2dd0:	000006b4 	.word	0x000006b4
    2dd4:	000006ac 	.word	0x000006ac
    2dd8:	000006a4 	.word	0x000006a4
    2ddc:	0000067c 	.word	0x0000067c
    2de0:	00000664 	.word	0x00000664
    2de4:	00000656 	.word	0x00000656
    2de8:	00000630 	.word	0x00000630
    2dec:	00000622 	.word	0x00000622
    2df0:	00000602 	.word	0x00000602
    2df4:	000005fa 	.word	0x000005fa
    2df8:	000005f2 	.word	0x000005f2
    2dfc:	000005d2 	.word	0x000005d2
    2e00:	000005c4 	.word	0x000005c4
    2e04:	000005a4 	.word	0x000005a4
    2e08:	0000059c 	.word	0x0000059c
    2e0c:	00000594 	.word	0x00000594
    2e10:	00000576 	.word	0x00000576
    2e14:	00000568 	.word	0x00000568
    2e18:	0000054a 	.word	0x0000054a
    2e1c:	0000053c 	.word	0x0000053c
    2e20:	0000051e 	.word	0x0000051e
    2e24:	00000510 	.word	0x00000510
    2e28:	000004f2 	.word	0x000004f2
    2e2c:	000004ea 	.word	0x000004ea
    2e30:	000004e2 	.word	0x000004e2
    2e34:	00000498 	.word	0x00000498
    2e38:	0000048e 	.word	0x0000048e
    2e3c:	0000047e 	.word	0x0000047e
    2e40:	00000468 	.word	0x00000468
    2e44:	00000460 	.word	0x00000460
    2e48:	00000458 	.word	0x00000458
    2e4c:	0000043a 	.word	0x0000043a
    2e50:	00000432 	.word	0x00000432
    2e54:	0000042a 	.word	0x0000042a
    2e58:	0000040c 	.word	0x0000040c
    2e5c:	000003fe 	.word	0x000003fe
    2e60:	000003e2 	.word	0x000003e2
    2e64:	000003d6 	.word	0x000003d6
    2e68:	000003ba 	.word	0x000003ba
    2e6c:	000003ae 	.word	0x000003ae
    2e70:	00000392 	.word	0x00000392
    2e74:	00000386 	.word	0x00000386
    2e78:	0000036a 	.word	0x0000036a
    2e7c:	0000035e 	.word	0x0000035e
    2e80:	00000342 	.word	0x00000342
    2e84:	00000336 	.word	0x00000336
    2e88:	0000031a 	.word	0x0000031a
    2e8c:	0000030e 	.word	0x0000030e
    2e90:	000002ec 	.word	0x000002ec
    2e94:	000002e0 	.word	0x000002e0
    2e98:	000002c4 	.word	0x000002c4
    2e9c:	000002be 	.word	0x000002be
    2ea0:	000002b8 	.word	0x000002b8
    2ea4:	0000029c 	.word	0x0000029c
    2ea8:	00000296 	.word	0x00000296
    2eac:	00000290 	.word	0x00000290
    2eb0:	00000274 	.word	0x00000274
    2eb4:	0000026e 	.word	0x0000026e
    2eb8:	00000268 	.word	0x00000268
    2ebc:	f8df 1f64 	ldr.w	r1, [pc, #3940]	; 3e24 <FUZ_test+0x3b90>
    2ec0:	ee1a 2a10 	vmov	r2, s20
    2ec4:	4633      	mov	r3, r6
    2ec6:	2001      	movs	r0, #1
    2ec8:	4479      	add	r1, pc
    2eca:	f7ff fffe 	bl	0 <__printf_chk>
    2ece:	f8df 1f58 	ldr.w	r1, [pc, #3928]	; 3e28 <FUZ_test+0x3b94>
    2ed2:	2001      	movs	r0, #1
    2ed4:	4479      	add	r1, pc
    2ed6:	f7ff fffe 	bl	0 <__printf_chk>
    2eda:	f8df 1f50 	ldr.w	r1, [pc, #3920]	; 3e2c <FUZ_test+0x3b98>
    2ede:	2001      	movs	r0, #1
    2ee0:	4479      	add	r1, pc
    2ee2:	f7ff fffe 	bl	0 <__printf_chk>
    2ee6:	f8df 3f48 	ldr.w	r3, [pc, #3912]	; 3e30 <FUZ_test+0x3b9c>
    2eea:	9a07      	ldr	r2, [sp, #28]
    2eec:	58d3      	ldr	r3, [r2, r3]
    2eee:	6818      	ldr	r0, [r3, #0]
    2ef0:	f7ff fffe 	bl	0 <fflush>
    2ef4:	f7fd be76 	b.w	be4 <FUZ_test+0x950>
    2ef8:	9613      	str	r6, [sp, #76]	; 0x4c
    2efa:	4626      	mov	r6, r4
    2efc:	f7fe beb2 	b.w	1c64 <FUZ_test+0x19d0>
    2f00:	f8df 1f30 	ldr.w	r1, [pc, #3888]	; 3e34 <FUZ_test+0x3ba0>
    2f04:	ee1a 2a10 	vmov	r2, s20
    2f08:	9b09      	ldr	r3, [sp, #36]	; 0x24
    2f0a:	2001      	movs	r0, #1
    2f0c:	4479      	add	r1, pc
    2f0e:	f7ff fffe 	bl	0 <__printf_chk>
    2f12:	f8df 1f24 	ldr.w	r1, [pc, #3876]	; 3e38 <FUZ_test+0x3ba4>
    2f16:	2001      	movs	r0, #1
    2f18:	4479      	add	r1, pc
    2f1a:	f7ff fffe 	bl	0 <__printf_chk>
    2f1e:	f8df 1f1c 	ldr.w	r1, [pc, #3868]	; 3e3c <FUZ_test+0x3ba8>
    2f22:	2001      	movs	r0, #1
    2f24:	4479      	add	r1, pc
    2f26:	f7ff fffe 	bl	0 <__printf_chk>
    2f2a:	f8df 3f04 	ldr.w	r3, [pc, #3844]	; 3e30 <FUZ_test+0x3b9c>
    2f2e:	9a07      	ldr	r2, [sp, #28]
    2f30:	58d3      	ldr	r3, [r2, r3]
    2f32:	6818      	ldr	r0, [r3, #0]
    2f34:	f7ff fffe 	bl	0 <fflush>
    2f38:	f7fd bf27 	b.w	d8a <FUZ_test+0xaf6>
    2f3c:	f8df 1f00 	ldr.w	r1, [pc, #3840]	; 3e40 <FUZ_test+0x3bac>
    2f40:	4613      	mov	r3, r2
    2f42:	2001      	movs	r0, #1
    2f44:	ee1a 2a10 	vmov	r2, s20
    2f48:	4479      	add	r1, pc
    2f4a:	f7ff fffe 	bl	0 <__printf_chk>
    2f4e:	2020      	movs	r0, #32
    2f50:	f7ff fffe 	bl	0 <putchar>
    2f54:	f8df 1eec 	ldr.w	r1, [pc, #3820]	; 3e44 <FUZ_test+0x3bb0>
    2f58:	2001      	movs	r0, #1
    2f5a:	4479      	add	r1, pc
    2f5c:	f7ff fffe 	bl	0 <__printf_chk>
    2f60:	f8df 3ecc 	ldr.w	r3, [pc, #3788]	; 3e30 <FUZ_test+0x3b9c>
    2f64:	9a07      	ldr	r2, [sp, #28]
    2f66:	58d3      	ldr	r3, [r2, r3]
    2f68:	6818      	ldr	r0, [r3, #0]
    2f6a:	f7ff fffe 	bl	0 <fflush>
    2f6e:	f7fe b982 	b.w	1276 <FUZ_test+0xfe2>
    2f72:	f8df 1ed4 	ldr.w	r1, [pc, #3796]	; 3e48 <FUZ_test+0x3bb4>
    2f76:	ee1a 2a10 	vmov	r2, s20
    2f7a:	465b      	mov	r3, fp
    2f7c:	2001      	movs	r0, #1
    2f7e:	4479      	add	r1, pc
    2f80:	f7ff fffe 	bl	0 <__printf_chk>
    2f84:	2020      	movs	r0, #32
    2f86:	f7ff fffe 	bl	0 <putchar>
    2f8a:	f8df 1ec0 	ldr.w	r1, [pc, #3776]	; 3e4c <FUZ_test+0x3bb8>
    2f8e:	2001      	movs	r0, #1
    2f90:	4479      	add	r1, pc
    2f92:	f7ff fffe 	bl	0 <__printf_chk>
    2f96:	f8df 3e98 	ldr.w	r3, [pc, #3736]	; 3e30 <FUZ_test+0x3b9c>
    2f9a:	9a07      	ldr	r2, [sp, #28]
    2f9c:	58d3      	ldr	r3, [r2, r3]
    2f9e:	6818      	ldr	r0, [r3, #0]
    2fa0:	f7ff fffe 	bl	0 <fflush>
    2fa4:	f7fe b944 	b.w	1230 <FUZ_test+0xf9c>
    2fa8:	f8df 1ea4 	ldr.w	r1, [pc, #3748]	; 3e50 <FUZ_test+0x3bbc>
    2fac:	ee1a 2a10 	vmov	r2, s20
    2fb0:	465b      	mov	r3, fp
    2fb2:	2001      	movs	r0, #1
    2fb4:	4479      	add	r1, pc
    2fb6:	f7ff fffe 	bl	0 <__printf_chk>
    2fba:	2020      	movs	r0, #32
    2fbc:	f7ff fffe 	bl	0 <putchar>
    2fc0:	f8df 1e90 	ldr.w	r1, [pc, #3728]	; 3e54 <FUZ_test+0x3bc0>
    2fc4:	2001      	movs	r0, #1
    2fc6:	4479      	add	r1, pc
    2fc8:	f7ff fffe 	bl	0 <__printf_chk>
    2fcc:	f8df 3e60 	ldr.w	r3, [pc, #3680]	; 3e30 <FUZ_test+0x3b9c>
    2fd0:	9a07      	ldr	r2, [sp, #28]
    2fd2:	58d3      	ldr	r3, [r2, r3]
    2fd4:	6818      	ldr	r0, [r3, #0]
    2fd6:	f7ff fffe 	bl	0 <fflush>
    2fda:	f7fe bad5 	b.w	1588 <FUZ_test+0x12f4>
    2fde:	f8df 1e78 	ldr.w	r1, [pc, #3704]	; 3e58 <FUZ_test+0x3bc4>
    2fe2:	ee1a 2a10 	vmov	r2, s20
    2fe6:	465b      	mov	r3, fp
    2fe8:	2001      	movs	r0, #1
    2fea:	4479      	add	r1, pc
    2fec:	f7ff fffe 	bl	0 <__printf_chk>
    2ff0:	2020      	movs	r0, #32
    2ff2:	f7ff fffe 	bl	0 <putchar>
    2ff6:	f8df 1e64 	ldr.w	r1, [pc, #3684]	; 3e5c <FUZ_test+0x3bc8>
    2ffa:	2001      	movs	r0, #1
    2ffc:	4479      	add	r1, pc
    2ffe:	f7ff fffe 	bl	0 <__printf_chk>
    3002:	f8df 3e2c 	ldr.w	r3, [pc, #3628]	; 3e30 <FUZ_test+0x3b9c>
    3006:	9a07      	ldr	r2, [sp, #28]
    3008:	58d3      	ldr	r3, [r2, r3]
    300a:	6818      	ldr	r0, [r3, #0]
    300c:	f7ff fffe 	bl	0 <fflush>
    3010:	f7fe badb 	b.w	15ca <FUZ_test+0x1336>
    3014:	9b05      	ldr	r3, [sp, #20]
    3016:	2b00      	cmp	r3, #0
    3018:	d13a      	bne.n	3090 <FUZ_test+0x2dfc>
    301a:	9b25      	ldr	r3, [sp, #148]	; 0x94
    301c:	ee08 3a90 	vmov	s17, r3
    3020:	f7fe bdfd 	b.w	1c1e <FUZ_test+0x198a>
    3024:	f8df 1e38 	ldr.w	r1, [pc, #3640]	; 3e60 <FUZ_test+0x3bcc>
    3028:	ee1a 2a10 	vmov	r2, s20
    302c:	465b      	mov	r3, fp
    302e:	2001      	movs	r0, #1
    3030:	4479      	add	r1, pc
    3032:	f7ff fffe 	bl	0 <__printf_chk>
    3036:	2020      	movs	r0, #32
    3038:	f7ff fffe 	bl	0 <putchar>
    303c:	f8df 1e24 	ldr.w	r1, [pc, #3620]	; 3e64 <FUZ_test+0x3bd0>
    3040:	2001      	movs	r0, #1
    3042:	4479      	add	r1, pc
    3044:	f7ff fffe 	bl	0 <__printf_chk>
    3048:	f8df 3de4 	ldr.w	r3, [pc, #3556]	; 3e30 <FUZ_test+0x3b9c>
    304c:	9a07      	ldr	r2, [sp, #28]
    304e:	58d3      	ldr	r3, [r2, r3]
    3050:	6818      	ldr	r0, [r3, #0]
    3052:	f7ff fffe 	bl	0 <fflush>
    3056:	f7ff b823 	b.w	20a0 <FUZ_test+0x1e0c>
    305a:	f8df 1e0c 	ldr.w	r1, [pc, #3596]	; 3e68 <FUZ_test+0x3bd4>
    305e:	ee1a 2a10 	vmov	r2, s20
    3062:	2302      	movs	r3, #2
    3064:	2001      	movs	r0, #1
    3066:	4479      	add	r1, pc
    3068:	f7ff fffe 	bl	0 <__printf_chk>
    306c:	2020      	movs	r0, #32
    306e:	f7ff fffe 	bl	0 <putchar>
    3072:	f8df 1df8 	ldr.w	r1, [pc, #3576]	; 3e6c <FUZ_test+0x3bd8>
    3076:	2001      	movs	r0, #1
    3078:	4479      	add	r1, pc
    307a:	f7ff fffe 	bl	0 <__printf_chk>
    307e:	f8df 3db0 	ldr.w	r3, [pc, #3504]	; 3e30 <FUZ_test+0x3b9c>
    3082:	9a07      	ldr	r2, [sp, #28]
    3084:	58d3      	ldr	r3, [r2, r3]
    3086:	6818      	ldr	r0, [r3, #0]
    3088:	f7ff fffe 	bl	0 <fflush>
    308c:	f7fe bf4d 	b.w	1f2a <FUZ_test+0x1c96>
    3090:	ee18 3a90 	vmov	r3, s17
    3094:	2b00      	cmp	r3, #0
    3096:	f001 82a4 	beq.w	45e2 <FUZ_test+0x434e>
    309a:	9d25      	ldr	r5, [sp, #148]	; 0x94
    309c:	ee18 1a90 	vmov	r1, s17
    30a0:	9a05      	ldr	r2, [sp, #20]
    30a2:	ee08 5a90 	vmov	s17, r5
    30a6:	4628      	mov	r0, r5
    30a8:	f7ff fffe 	bl	0 <memcpy>
    30ac:	f7fe bdb7 	b.w	1c1e <FUZ_test+0x198a>
    30b0:	9b05      	ldr	r3, [sp, #20]
    30b2:	2b00      	cmp	r3, #0
    30b4:	d1ec      	bne.n	3090 <FUZ_test+0x2dfc>
    30b6:	9b25      	ldr	r3, [sp, #148]	; 0x94
    30b8:	ee08 3a90 	vmov	s17, r3
    30bc:	f7fd ba4b 	b.w	556 <FUZ_test+0x2c2>
    30c0:	ee1d 3a10 	vmov	r3, s26
    30c4:	f7fd b99b 	b.w	3fe <FUZ_test+0x16a>
    30c8:	f8df 1da4 	ldr.w	r1, [pc, #3492]	; 3e70 <FUZ_test+0x3bdc>
    30cc:	4605      	mov	r5, r0
    30ce:	4642      	mov	r2, r8
    30d0:	4658      	mov	r0, fp
    30d2:	4479      	add	r1, pc
    30d4:	f7ff fffe 	bl	0 <__printf_chk>
    30d8:	f8df 1d98 	ldr.w	r1, [pc, #3480]	; 3e74 <FUZ_test+0x3be0>
    30dc:	4633      	mov	r3, r6
    30de:	462a      	mov	r2, r5
    30e0:	4479      	add	r1, pc
    30e2:	4658      	mov	r0, fp
    30e4:	f7ff fffe 	bl	0 <__printf_chk>
    30e8:	f8df 1d8c 	ldr.w	r1, [pc, #3468]	; 3e78 <FUZ_test+0x3be4>
    30ec:	ee1a 3a10 	vmov	r3, s20
    30f0:	ee1d 2a10 	vmov	r2, s26
    30f4:	4479      	add	r1, pc
    30f6:	4658      	mov	r0, fp
    30f8:	f7ff fffe 	bl	0 <__printf_chk>
    30fc:	4658      	mov	r0, fp
    30fe:	f7ff fffe 	bl	0 <exit>
    3102:	f8df 1d78 	ldr.w	r1, [pc, #3448]	; 3e7c <FUZ_test+0x3be8>
    3106:	4604      	mov	r4, r0
    3108:	462a      	mov	r2, r5
    310a:	4658      	mov	r0, fp
    310c:	4479      	add	r1, pc
    310e:	f7ff fffe 	bl	0 <__printf_chk>
    3112:	f8df 1d6c 	ldr.w	r1, [pc, #3436]	; 3e80 <FUZ_test+0x3bec>
    3116:	4633      	mov	r3, r6
    3118:	4622      	mov	r2, r4
    311a:	4479      	add	r1, pc
    311c:	4658      	mov	r0, fp
    311e:	f7ff fffe 	bl	0 <__printf_chk>
    3122:	f8df 1d60 	ldr.w	r1, [pc, #3424]	; 3e84 <FUZ_test+0x3bf0>
    3126:	ee1a 3a10 	vmov	r3, s20
    312a:	ee1d 2a10 	vmov	r2, s26
    312e:	4479      	add	r1, pc
    3130:	4658      	mov	r0, fp
    3132:	f7ff fffe 	bl	0 <__printf_chk>
    3136:	4658      	mov	r0, fp
    3138:	f7ff fffe 	bl	0 <exit>
    313c:	f8df 0d48 	ldr.w	r0, [pc, #3400]	; 3e88 <FUZ_test+0x3bf4>
    3140:	4478      	add	r0, pc
    3142:	f7ff fffe 	bl	0 <perror>
    3146:	f7ff fffe 	bl	0 <abort>
    314a:	f8df 1d40 	ldr.w	r1, [pc, #3392]	; 3e8c <FUZ_test+0x3bf8>
    314e:	465a      	mov	r2, fp
    3150:	2001      	movs	r0, #1
    3152:	4479      	add	r1, pc
    3154:	f7ff fffe 	bl	0 <__printf_chk>
    3158:	f8df 1d34 	ldr.w	r1, [pc, #3380]	; 3e90 <FUZ_test+0x3bfc>
    315c:	2001      	movs	r0, #1
    315e:	4479      	add	r1, pc
    3160:	f7ff fffe 	bl	0 <__printf_chk>
    3164:	f8df 1d2c 	ldr.w	r1, [pc, #3372]	; 3e94 <FUZ_test+0x3c00>
    3168:	ee1a 3a10 	vmov	r3, s20
    316c:	ee1d 2a10 	vmov	r2, s26
    3170:	4479      	add	r1, pc
    3172:	2001      	movs	r0, #1
    3174:	f7ff fffe 	bl	0 <__printf_chk>
    3178:	2001      	movs	r0, #1
    317a:	f7ff fffe 	bl	0 <exit>
    317e:	f8df 1d18 	ldr.w	r1, [pc, #3352]	; 3e98 <FUZ_test+0x3c04>
    3182:	465a      	mov	r2, fp
    3184:	2001      	movs	r0, #1
    3186:	4479      	add	r1, pc
    3188:	f7ff fffe 	bl	0 <__printf_chk>
    318c:	f8df 1d0c 	ldr.w	r1, [pc, #3340]	; 3e9c <FUZ_test+0x3c08>
    3190:	2001      	movs	r0, #1
    3192:	4479      	add	r1, pc
    3194:	f7ff fffe 	bl	0 <__printf_chk>
    3198:	f8df 1d04 	ldr.w	r1, [pc, #3332]	; 3ea0 <FUZ_test+0x3c0c>
    319c:	ee1a 3a10 	vmov	r3, s20
    31a0:	ee1d 2a10 	vmov	r2, s26
    31a4:	4479      	add	r1, pc
    31a6:	2001      	movs	r0, #1
    31a8:	f7ff fffe 	bl	0 <__printf_chk>
    31ac:	2001      	movs	r0, #1
    31ae:	f7ff fffe 	bl	0 <exit>
    31b2:	f8df 1cf0 	ldr.w	r1, [pc, #3312]	; 3ea4 <FUZ_test+0x3c10>
    31b6:	465a      	mov	r2, fp
    31b8:	2001      	movs	r0, #1
    31ba:	4479      	add	r1, pc
    31bc:	f7ff fffe 	bl	0 <__printf_chk>
    31c0:	f8df 1ce4 	ldr.w	r1, [pc, #3300]	; 3ea8 <FUZ_test+0x3c14>
    31c4:	2001      	movs	r0, #1
    31c6:	4479      	add	r1, pc
    31c8:	f7ff fffe 	bl	0 <__printf_chk>
    31cc:	f8df 1cdc 	ldr.w	r1, [pc, #3292]	; 3eac <FUZ_test+0x3c18>
    31d0:	ee1a 3a10 	vmov	r3, s20
    31d4:	ee1d 2a10 	vmov	r2, s26
    31d8:	4479      	add	r1, pc
    31da:	2001      	movs	r0, #1
    31dc:	f7ff fffe 	bl	0 <__printf_chk>
    31e0:	2001      	movs	r0, #1
    31e2:	f7ff fffe 	bl	0 <exit>
    31e6:	f8df 1cc8 	ldr.w	r1, [pc, #3272]	; 3eb0 <FUZ_test+0x3c1c>
    31ea:	465a      	mov	r2, fp
    31ec:	2001      	movs	r0, #1
    31ee:	4479      	add	r1, pc
    31f0:	f7ff fffe 	bl	0 <__printf_chk>
    31f4:	f8df 1cbc 	ldr.w	r1, [pc, #3260]	; 3eb4 <FUZ_test+0x3c20>
    31f8:	2001      	movs	r0, #1
    31fa:	4479      	add	r1, pc
    31fc:	f7ff fffe 	bl	0 <__printf_chk>
    3200:	f8df 1cb4 	ldr.w	r1, [pc, #3252]	; 3eb8 <FUZ_test+0x3c24>
    3204:	ee1a 3a10 	vmov	r3, s20
    3208:	ee1d 2a10 	vmov	r2, s26
    320c:	4479      	add	r1, pc
    320e:	2001      	movs	r0, #1
    3210:	f7ff fffe 	bl	0 <__printf_chk>
    3214:	2001      	movs	r0, #1
    3216:	f7ff fffe 	bl	0 <exit>
    321a:	f8df 1ca0 	ldr.w	r1, [pc, #3232]	; 3ebc <FUZ_test+0x3c28>
    321e:	465a      	mov	r2, fp
    3220:	2001      	movs	r0, #1
    3222:	4479      	add	r1, pc
    3224:	f7ff fffe 	bl	0 <__printf_chk>
    3228:	f8df 1c94 	ldr.w	r1, [pc, #3220]	; 3ec0 <FUZ_test+0x3c2c>
    322c:	2001      	movs	r0, #1
    322e:	4479      	add	r1, pc
    3230:	f7ff fffe 	bl	0 <__printf_chk>
    3234:	f8df 1c8c 	ldr.w	r1, [pc, #3212]	; 3ec4 <FUZ_test+0x3c30>
    3238:	ee1a 3a10 	vmov	r3, s20
    323c:	ee1d 2a10 	vmov	r2, s26
    3240:	4479      	add	r1, pc
    3242:	2001      	movs	r0, #1
    3244:	f7ff fffe 	bl	0 <__printf_chk>
    3248:	2001      	movs	r0, #1
    324a:	f7ff fffe 	bl	0 <exit>
    324e:	f8df 1c78 	ldr.w	r1, [pc, #3192]	; 3ec8 <FUZ_test+0x3c34>
    3252:	4622      	mov	r2, r4
    3254:	2001      	movs	r0, #1
    3256:	4479      	add	r1, pc
    3258:	f7ff fffe 	bl	0 <__printf_chk>
    325c:	f8df 1c6c 	ldr.w	r1, [pc, #3180]	; 3ecc <FUZ_test+0x3c38>
    3260:	2001      	movs	r0, #1
    3262:	4479      	add	r1, pc
    3264:	f7ff fffe 	bl	0 <__printf_chk>
    3268:	f8df 1c64 	ldr.w	r1, [pc, #3172]	; 3ed0 <FUZ_test+0x3c3c>
    326c:	ee1a 3a10 	vmov	r3, s20
    3270:	ee1d 2a10 	vmov	r2, s26
    3274:	4479      	add	r1, pc
    3276:	2001      	movs	r0, #1
    3278:	f7ff fffe 	bl	0 <__printf_chk>
    327c:	2001      	movs	r0, #1
    327e:	f7ff fffe 	bl	0 <exit>
    3282:	f8df 1c50 	ldr.w	r1, [pc, #3152]	; 3ed4 <FUZ_test+0x3c40>
    3286:	4622      	mov	r2, r4
    3288:	2001      	movs	r0, #1
    328a:	4479      	add	r1, pc
    328c:	f7ff fffe 	bl	0 <__printf_chk>
    3290:	f8df 1c44 	ldr.w	r1, [pc, #3140]	; 3ed8 <FUZ_test+0x3c44>
    3294:	2001      	movs	r0, #1
    3296:	4479      	add	r1, pc
    3298:	f7ff fffe 	bl	0 <__printf_chk>
    329c:	f8df 1c3c 	ldr.w	r1, [pc, #3132]	; 3edc <FUZ_test+0x3c48>
    32a0:	ee1a 3a10 	vmov	r3, s20
    32a4:	ee1d 2a10 	vmov	r2, s26
    32a8:	4479      	add	r1, pc
    32aa:	2001      	movs	r0, #1
    32ac:	f7ff fffe 	bl	0 <__printf_chk>
    32b0:	2001      	movs	r0, #1
    32b2:	f7ff fffe 	bl	0 <exit>
    32b6:	f8df 1c28 	ldr.w	r1, [pc, #3112]	; 3ee0 <FUZ_test+0x3c4c>
    32ba:	2001      	movs	r0, #1
    32bc:	9a11      	ldr	r2, [sp, #68]	; 0x44
    32be:	4479      	add	r1, pc
    32c0:	f7ff fffe 	bl	0 <__printf_chk>
    32c4:	f8df 1c1c 	ldr.w	r1, [pc, #3100]	; 3ee4 <FUZ_test+0x3c50>
    32c8:	2001      	movs	r0, #1
    32ca:	4479      	add	r1, pc
    32cc:	f7ff fffe 	bl	0 <__printf_chk>
    32d0:	f8df 1c14 	ldr.w	r1, [pc, #3092]	; 3ee8 <FUZ_test+0x3c54>
    32d4:	ee1a 3a10 	vmov	r3, s20
    32d8:	ee1d 2a10 	vmov	r2, s26
    32dc:	4479      	add	r1, pc
    32de:	2001      	movs	r0, #1
    32e0:	f7ff fffe 	bl	0 <__printf_chk>
    32e4:	2001      	movs	r0, #1
    32e6:	f7ff fffe 	bl	0 <exit>
    32ea:	f8df 1c00 	ldr.w	r1, [pc, #3072]	; 3eec <FUZ_test+0x3c58>
    32ee:	4683      	mov	fp, r0
    32f0:	9a11      	ldr	r2, [sp, #68]	; 0x44
    32f2:	2001      	movs	r0, #1
    32f4:	4479      	add	r1, pc
    32f6:	f7ff fffe 	bl	0 <__printf_chk>
    32fa:	f8df 1bf4 	ldr.w	r1, [pc, #3060]	; 3ef0 <FUZ_test+0x3c5c>
    32fe:	462b      	mov	r3, r5
    3300:	465a      	mov	r2, fp
    3302:	4479      	add	r1, pc
    3304:	2001      	movs	r0, #1
    3306:	f7ff fffe 	bl	0 <__printf_chk>
    330a:	f8df 1be8 	ldr.w	r1, [pc, #3048]	; 3ef4 <FUZ_test+0x3c60>
    330e:	ee1a 3a10 	vmov	r3, s20
    3312:	ee1d 2a10 	vmov	r2, s26
    3316:	4479      	add	r1, pc
    3318:	2001      	movs	r0, #1
    331a:	f7ff fffe 	bl	0 <__printf_chk>
    331e:	2001      	movs	r0, #1
    3320:	f7ff fffe 	bl	0 <exit>
    3324:	f8df 1bd0 	ldr.w	r1, [pc, #3024]	; 3ef8 <FUZ_test+0x3c64>
    3328:	2001      	movs	r0, #1
    332a:	9a11      	ldr	r2, [sp, #68]	; 0x44
    332c:	4479      	add	r1, pc
    332e:	f7ff fffe 	bl	0 <__printf_chk>
    3332:	f8df 1bc8 	ldr.w	r1, [pc, #3016]	; 3efc <FUZ_test+0x3c68>
    3336:	2001      	movs	r0, #1
    3338:	4479      	add	r1, pc
    333a:	f7ff fffe 	bl	0 <__printf_chk>
    333e:	f8df 1bc0 	ldr.w	r1, [pc, #3008]	; 3f00 <FUZ_test+0x3c6c>
    3342:	ee1a 3a10 	vmov	r3, s20
    3346:	ee1d 2a10 	vmov	r2, s26
    334a:	4479      	add	r1, pc
    334c:	2001      	movs	r0, #1
    334e:	f7ff fffe 	bl	0 <__printf_chk>
    3352:	2001      	movs	r0, #1
    3354:	f7ff fffe 	bl	0 <exit>
    3358:	f8df 1ba8 	ldr.w	r1, [pc, #2984]	; 3f04 <FUZ_test+0x3c70>
    335c:	4683      	mov	fp, r0
    335e:	9a11      	ldr	r2, [sp, #68]	; 0x44
    3360:	2001      	movs	r0, #1
    3362:	4479      	add	r1, pc
    3364:	f7ff fffe 	bl	0 <__printf_chk>
    3368:	f8df 1b9c 	ldr.w	r1, [pc, #2972]	; 3f08 <FUZ_test+0x3c74>
    336c:	462b      	mov	r3, r5
    336e:	465a      	mov	r2, fp
    3370:	4479      	add	r1, pc
    3372:	2001      	movs	r0, #1
    3374:	f7ff fffe 	bl	0 <__printf_chk>
    3378:	f8df 1b90 	ldr.w	r1, [pc, #2960]	; 3f0c <FUZ_test+0x3c78>
    337c:	ee1a 3a10 	vmov	r3, s20
    3380:	ee1d 2a10 	vmov	r2, s26
    3384:	4479      	add	r1, pc
    3386:	2001      	movs	r0, #1
    3388:	f7ff fffe 	bl	0 <__printf_chk>
    338c:	2001      	movs	r0, #1
    338e:	f7ff fffe 	bl	0 <exit>
    3392:	f8dd b044 	ldr.w	fp, [sp, #68]	; 0x44
    3396:	4604      	mov	r4, r0
    3398:	f8df 1b74 	ldr.w	r1, [pc, #2932]	; 3f10 <FUZ_test+0x3c7c>
    339c:	2001      	movs	r0, #1
    339e:	465a      	mov	r2, fp
    33a0:	4479      	add	r1, pc
    33a2:	f7ff fffe 	bl	0 <__printf_chk>
    33a6:	f8df 1b6c 	ldr.w	r1, [pc, #2924]	; 3f14 <FUZ_test+0x3c80>
    33aa:	462b      	mov	r3, r5
    33ac:	4622      	mov	r2, r4
    33ae:	4479      	add	r1, pc
    33b0:	2001      	movs	r0, #1
    33b2:	f7ff fffe 	bl	0 <__printf_chk>
    33b6:	f8df 1b60 	ldr.w	r1, [pc, #2912]	; 3f18 <FUZ_test+0x3c84>
    33ba:	ee1a 3a10 	vmov	r3, s20
    33be:	ee1d 2a10 	vmov	r2, s26
    33c2:	4479      	add	r1, pc
    33c4:	2001      	movs	r0, #1
    33c6:	f7ff fffe 	bl	0 <__printf_chk>
    33ca:	2001      	movs	r0, #1
    33cc:	f7ff fffe 	bl	0 <exit>
    33d0:	f8df 3b48 	ldr.w	r3, [pc, #2888]	; 3f1c <FUZ_test+0x3c88>
    33d4:	f240 32e9 	movw	r2, #1001	; 0x3e9
    33d8:	f8df 1b44 	ldr.w	r1, [pc, #2884]	; 3f20 <FUZ_test+0x3c8c>
    33dc:	f8df 0b44 	ldr.w	r0, [pc, #2884]	; 3f24 <FUZ_test+0x3c90>
    33e0:	447b      	add	r3, pc
    33e2:	4479      	add	r1, pc
    33e4:	4478      	add	r0, pc
    33e6:	f7ff fffe 	bl	0 <__assert_fail>
    33ea:	f8dd b044 	ldr.w	fp, [sp, #68]	; 0x44
    33ee:	2001      	movs	r0, #1
    33f0:	f8df 1b34 	ldr.w	r1, [pc, #2868]	; 3f28 <FUZ_test+0x3c94>
    33f4:	465a      	mov	r2, fp
    33f6:	4479      	add	r1, pc
    33f8:	f7ff fffe 	bl	0 <__printf_chk>
    33fc:	f8df 1b2c 	ldr.w	r1, [pc, #2860]	; 3f2c <FUZ_test+0x3c98>
    3400:	2001      	movs	r0, #1
    3402:	4479      	add	r1, pc
    3404:	f7ff fffe 	bl	0 <__printf_chk>
    3408:	f8df 1b24 	ldr.w	r1, [pc, #2852]	; 3f30 <FUZ_test+0x3c9c>
    340c:	ee1a 3a10 	vmov	r3, s20
    3410:	ee1d 2a10 	vmov	r2, s26
    3414:	4479      	add	r1, pc
    3416:	2001      	movs	r0, #1
    3418:	f7ff fffe 	bl	0 <__printf_chk>
    341c:	2001      	movs	r0, #1
    341e:	f7ff fffe 	bl	0 <exit>
    3422:	f8dd b044 	ldr.w	fp, [sp, #68]	; 0x44
    3426:	2001      	movs	r0, #1
    3428:	f8df 1b08 	ldr.w	r1, [pc, #2824]	; 3f34 <FUZ_test+0x3ca0>
    342c:	465a      	mov	r2, fp
    342e:	4479      	add	r1, pc
    3430:	f7ff fffe 	bl	0 <__printf_chk>
    3434:	f8df 1b00 	ldr.w	r1, [pc, #2816]	; 3f38 <FUZ_test+0x3ca4>
    3438:	2001      	movs	r0, #1
    343a:	4479      	add	r1, pc
    343c:	f7ff fffe 	bl	0 <__printf_chk>
    3440:	f8df 1af8 	ldr.w	r1, [pc, #2808]	; 3f3c <FUZ_test+0x3ca8>
    3444:	ee1a 3a10 	vmov	r3, s20
    3448:	ee1d 2a10 	vmov	r2, s26
    344c:	4479      	add	r1, pc
    344e:	2001      	movs	r0, #1
    3450:	f7ff fffe 	bl	0 <__printf_chk>
    3454:	2001      	movs	r0, #1
    3456:	f7ff fffe 	bl	0 <exit>
    345a:	ee18 0a90 	vmov	r0, s17
    345e:	4649      	mov	r1, r9
    3460:	f7fc fee2 	bl	228 <FUZ_findDiff>
    3464:	f8df 1ad8 	ldr.w	r1, [pc, #2776]	; 3f40 <FUZ_test+0x3cac>
    3468:	4622      	mov	r2, r4
    346a:	2001      	movs	r0, #1
    346c:	4479      	add	r1, pc
    346e:	f7ff fffe 	bl	0 <__printf_chk>
    3472:	f8df 1ad0 	ldr.w	r1, [pc, #2768]	; 3f44 <FUZ_test+0x3cb0>
    3476:	2001      	movs	r0, #1
    3478:	4479      	add	r1, pc
    347a:	f7ff fffe 	bl	0 <__printf_chk>
    347e:	f8df 1ac8 	ldr.w	r1, [pc, #2760]	; 3f48 <FUZ_test+0x3cb4>
    3482:	ee1a 3a10 	vmov	r3, s20
    3486:	ee1d 2a10 	vmov	r2, s26
    348a:	4479      	add	r1, pc
    348c:	2001      	movs	r0, #1
    348e:	f7ff fffe 	bl	0 <__printf_chk>
    3492:	2001      	movs	r0, #1
    3494:	f7ff fffe 	bl	0 <exit>
    3498:	f8df 1ab0 	ldr.w	r1, [pc, #2736]	; 3f4c <FUZ_test+0x3cb8>
    349c:	4622      	mov	r2, r4
    349e:	2001      	movs	r0, #1
    34a0:	4479      	add	r1, pc
    34a2:	f7ff fffe 	bl	0 <__printf_chk>
    34a6:	f8df 1aa8 	ldr.w	r1, [pc, #2728]	; 3f50 <FUZ_test+0x3cbc>
    34aa:	2001      	movs	r0, #1
    34ac:	4479      	add	r1, pc
    34ae:	f7ff fffe 	bl	0 <__printf_chk>
    34b2:	f8df 1aa0 	ldr.w	r1, [pc, #2720]	; 3f54 <FUZ_test+0x3cc0>
    34b6:	ee1a 3a10 	vmov	r3, s20
    34ba:	ee1d 2a10 	vmov	r2, s26
    34be:	4479      	add	r1, pc
    34c0:	2001      	movs	r0, #1
    34c2:	f7ff fffe 	bl	0 <__printf_chk>
    34c6:	2001      	movs	r0, #1
    34c8:	f7ff fffe 	bl	0 <exit>
    34cc:	f8df 1a88 	ldr.w	r1, [pc, #2696]	; 3f58 <FUZ_test+0x3cc4>
    34d0:	4622      	mov	r2, r4
    34d2:	2001      	movs	r0, #1
    34d4:	4479      	add	r1, pc
    34d6:	f7ff fffe 	bl	0 <__printf_chk>
    34da:	f8df 1a80 	ldr.w	r1, [pc, #2688]	; 3f5c <FUZ_test+0x3cc8>
    34de:	2001      	movs	r0, #1
    34e0:	4479      	add	r1, pc
    34e2:	f7ff fffe 	bl	0 <__printf_chk>
    34e6:	f8df 1a78 	ldr.w	r1, [pc, #2680]	; 3f60 <FUZ_test+0x3ccc>
    34ea:	ee1a 3a10 	vmov	r3, s20
    34ee:	ee1d 2a10 	vmov	r2, s26
    34f2:	4479      	add	r1, pc
    34f4:	2001      	movs	r0, #1
    34f6:	f7ff fffe 	bl	0 <__printf_chk>
    34fa:	2001      	movs	r0, #1
    34fc:	f7ff fffe 	bl	0 <exit>
    3500:	f7ff fffe 	bl	0 <__stack_chk_fail>
    3504:	f8df 1a5c 	ldr.w	r1, [pc, #2652]	; 3f64 <FUZ_test+0x3cd0>
    3508:	4642      	mov	r2, r8
    350a:	2001      	movs	r0, #1
    350c:	4479      	add	r1, pc
    350e:	f7ff fffe 	bl	0 <__printf_chk>
    3512:	f8df 1a54 	ldr.w	r1, [pc, #2644]	; 3f68 <FUZ_test+0x3cd4>
    3516:	2001      	movs	r0, #1
    3518:	4479      	add	r1, pc
    351a:	f7ff fffe 	bl	0 <__printf_chk>
    351e:	f8df 1a4c 	ldr.w	r1, [pc, #2636]	; 3f6c <FUZ_test+0x3cd8>
    3522:	ee1a 3a10 	vmov	r3, s20
    3526:	ee1d 2a10 	vmov	r2, s26
    352a:	4479      	add	r1, pc
    352c:	2001      	movs	r0, #1
    352e:	f7ff fffe 	bl	0 <__printf_chk>
    3532:	2001      	movs	r0, #1
    3534:	f7ff fffe 	bl	0 <exit>
    3538:	f8df 1a34 	ldr.w	r1, [pc, #2612]	; 3f70 <FUZ_test+0x3cdc>
    353c:	4632      	mov	r2, r6
    353e:	2001      	movs	r0, #1
    3540:	4479      	add	r1, pc
    3542:	f7ff fffe 	bl	0 <__printf_chk>
    3546:	f8df 1a2c 	ldr.w	r1, [pc, #2604]	; 3f74 <FUZ_test+0x3ce0>
    354a:	2001      	movs	r0, #1
    354c:	4479      	add	r1, pc
    354e:	f7ff fffe 	bl	0 <__printf_chk>
    3552:	f8df 1a24 	ldr.w	r1, [pc, #2596]	; 3f78 <FUZ_test+0x3ce4>
    3556:	ee1a 3a10 	vmov	r3, s20
    355a:	ee1d 2a10 	vmov	r2, s26
    355e:	4479      	add	r1, pc
    3560:	2001      	movs	r0, #1
    3562:	f7ff fffe 	bl	0 <__printf_chk>
    3566:	2001      	movs	r0, #1
    3568:	f7ff fffe 	bl	0 <exit>
    356c:	f8df 1a0c 	ldr.w	r1, [pc, #2572]	; 3f7c <FUZ_test+0x3ce8>
    3570:	4632      	mov	r2, r6
    3572:	2001      	movs	r0, #1
    3574:	4479      	add	r1, pc
    3576:	f7ff fffe 	bl	0 <__printf_chk>
    357a:	f8df 1a04 	ldr.w	r1, [pc, #2564]	; 3f80 <FUZ_test+0x3cec>
    357e:	2001      	movs	r0, #1
    3580:	4479      	add	r1, pc
    3582:	f7ff fffe 	bl	0 <__printf_chk>
    3586:	f8df 19fc 	ldr.w	r1, [pc, #2556]	; 3f84 <FUZ_test+0x3cf0>
    358a:	ee1a 3a10 	vmov	r3, s20
    358e:	ee1d 2a10 	vmov	r2, s26
    3592:	4479      	add	r1, pc
    3594:	2001      	movs	r0, #1
    3596:	f7ff fffe 	bl	0 <__printf_chk>
    359a:	2001      	movs	r0, #1
    359c:	f7ff fffe 	bl	0 <exit>
    35a0:	f8df 19e4 	ldr.w	r1, [pc, #2532]	; 3f88 <FUZ_test+0x3cf4>
    35a4:	4632      	mov	r2, r6
    35a6:	2001      	movs	r0, #1
    35a8:	4479      	add	r1, pc
    35aa:	f7ff fffe 	bl	0 <__printf_chk>
    35ae:	f8df 19dc 	ldr.w	r1, [pc, #2524]	; 3f8c <FUZ_test+0x3cf8>
    35b2:	2001      	movs	r0, #1
    35b4:	4479      	add	r1, pc
    35b6:	f7ff fffe 	bl	0 <__printf_chk>
    35ba:	f8df 19d4 	ldr.w	r1, [pc, #2516]	; 3f90 <FUZ_test+0x3cfc>
    35be:	ee1a 3a10 	vmov	r3, s20
    35c2:	ee1d 2a10 	vmov	r2, s26
    35c6:	4479      	add	r1, pc
    35c8:	2001      	movs	r0, #1
    35ca:	f7ff fffe 	bl	0 <__printf_chk>
    35ce:	2001      	movs	r0, #1
    35d0:	f7ff fffe 	bl	0 <exit>
    35d4:	f8df 19bc 	ldr.w	r1, [pc, #2492]	; 3f94 <FUZ_test+0x3d00>
    35d8:	4605      	mov	r5, r0
    35da:	4632      	mov	r2, r6
    35dc:	2001      	movs	r0, #1
    35de:	4479      	add	r1, pc
    35e0:	f7ff fffe 	bl	0 <__printf_chk>
    35e4:	f8df 19b0 	ldr.w	r1, [pc, #2480]	; 3f98 <FUZ_test+0x3d04>
    35e8:	9b05      	ldr	r3, [sp, #20]
    35ea:	462a      	mov	r2, r5
    35ec:	4479      	add	r1, pc
    35ee:	2001      	movs	r0, #1
    35f0:	f7ff fffe 	bl	0 <__printf_chk>
    35f4:	f8df 19a4 	ldr.w	r1, [pc, #2468]	; 3f9c <FUZ_test+0x3d08>
    35f8:	ee1a 3a10 	vmov	r3, s20
    35fc:	ee1d 2a10 	vmov	r2, s26
    3600:	4479      	add	r1, pc
    3602:	2001      	movs	r0, #1
    3604:	f7ff fffe 	bl	0 <__printf_chk>
    3608:	2001      	movs	r0, #1
    360a:	f7ff fffe 	bl	0 <exit>
    360e:	f8df 1990 	ldr.w	r1, [pc, #2448]	; 3fa0 <FUZ_test+0x3d0c>
    3612:	4622      	mov	r2, r4
    3614:	2001      	movs	r0, #1
    3616:	4479      	add	r1, pc
    3618:	f7ff fffe 	bl	0 <__printf_chk>
    361c:	f8df 1984 	ldr.w	r1, [pc, #2436]	; 3fa4 <FUZ_test+0x3d10>
    3620:	2001      	movs	r0, #1
    3622:	4479      	add	r1, pc
    3624:	f7ff fffe 	bl	0 <__printf_chk>
    3628:	f8df 197c 	ldr.w	r1, [pc, #2428]	; 3fa8 <FUZ_test+0x3d14>
    362c:	ee1a 3a10 	vmov	r3, s20
    3630:	ee1d 2a10 	vmov	r2, s26
    3634:	4479      	add	r1, pc
    3636:	2001      	movs	r0, #1
    3638:	f7ff fffe 	bl	0 <__printf_chk>
    363c:	2001      	movs	r0, #1
    363e:	f7ff fffe 	bl	0 <exit>
    3642:	f8df 1968 	ldr.w	r1, [pc, #2408]	; 3fac <FUZ_test+0x3d18>
    3646:	4622      	mov	r2, r4
    3648:	2001      	movs	r0, #1
    364a:	4479      	add	r1, pc
    364c:	f7ff fffe 	bl	0 <__printf_chk>
    3650:	f8df 195c 	ldr.w	r1, [pc, #2396]	; 3fb0 <FUZ_test+0x3d1c>
    3654:	2001      	movs	r0, #1
    3656:	4479      	add	r1, pc
    3658:	f7ff fffe 	bl	0 <__printf_chk>
    365c:	f8df 1954 	ldr.w	r1, [pc, #2388]	; 3fb4 <FUZ_test+0x3d20>
    3660:	ee1a 3a10 	vmov	r3, s20
    3664:	ee1d 2a10 	vmov	r2, s26
    3668:	4479      	add	r1, pc
    366a:	2001      	movs	r0, #1
    366c:	f7ff fffe 	bl	0 <__printf_chk>
    3670:	2001      	movs	r0, #1
    3672:	f7ff fffe 	bl	0 <exit>
    3676:	f8df 1940 	ldr.w	r1, [pc, #2368]	; 3fb8 <FUZ_test+0x3d24>
    367a:	4632      	mov	r2, r6
    367c:	4680      	mov	r8, r0
    367e:	2001      	movs	r0, #1
    3680:	4479      	add	r1, pc
    3682:	f7ff fffe 	bl	0 <__printf_chk>
    3686:	f8df 1934 	ldr.w	r1, [pc, #2356]	; 3fbc <FUZ_test+0x3d28>
    368a:	4642      	mov	r2, r8
    368c:	2001      	movs	r0, #1
    368e:	4479      	add	r1, pc
    3690:	f7ff fffe 	bl	0 <__printf_chk>
    3694:	f8df 1928 	ldr.w	r1, [pc, #2344]	; 3fc0 <FUZ_test+0x3d2c>
    3698:	ee1a 3a10 	vmov	r3, s20
    369c:	ee1d 2a10 	vmov	r2, s26
    36a0:	4479      	add	r1, pc
    36a2:	2001      	movs	r0, #1
    36a4:	f7ff fffe 	bl	0 <__printf_chk>
    36a8:	2001      	movs	r0, #1
    36aa:	f7ff fffe 	bl	0 <exit>
    36ae:	f8df 1914 	ldr.w	r1, [pc, #2324]	; 3fc4 <FUZ_test+0x3d30>
    36b2:	4632      	mov	r2, r6
    36b4:	2001      	movs	r0, #1
    36b6:	4479      	add	r1, pc
    36b8:	f7ff fffe 	bl	0 <__printf_chk>
    36bc:	f8df 1908 	ldr.w	r1, [pc, #2312]	; 3fc8 <FUZ_test+0x3d34>
    36c0:	2001      	movs	r0, #1
    36c2:	4479      	add	r1, pc
    36c4:	f7ff fffe 	bl	0 <__printf_chk>
    36c8:	f8df 1900 	ldr.w	r1, [pc, #2304]	; 3fcc <FUZ_test+0x3d38>
    36cc:	ee1a 3a10 	vmov	r3, s20
    36d0:	ee1d 2a10 	vmov	r2, s26
    36d4:	4479      	add	r1, pc
    36d6:	2001      	movs	r0, #1
    36d8:	f7ff fffe 	bl	0 <__printf_chk>
    36dc:	2001      	movs	r0, #1
    36de:	f7ff fffe 	bl	0 <exit>
    36e2:	f8df 18ec 	ldr.w	r1, [pc, #2284]	; 3fd0 <FUZ_test+0x3d3c>
    36e6:	4632      	mov	r2, r6
    36e8:	2001      	movs	r0, #1
    36ea:	4479      	add	r1, pc
    36ec:	f7ff fffe 	bl	0 <__printf_chk>
    36f0:	f8df 18e0 	ldr.w	r1, [pc, #2272]	; 3fd4 <FUZ_test+0x3d40>
    36f4:	465b      	mov	r3, fp
    36f6:	465a      	mov	r2, fp
    36f8:	4479      	add	r1, pc
    36fa:	2001      	movs	r0, #1
    36fc:	9700      	str	r7, [sp, #0]
    36fe:	f7ff fffe 	bl	0 <__printf_chk>
    3702:	f8df 18d4 	ldr.w	r1, [pc, #2260]	; 3fd8 <FUZ_test+0x3d44>
    3706:	ee1a 3a10 	vmov	r3, s20
    370a:	ee1d 2a10 	vmov	r2, s26
    370e:	4479      	add	r1, pc
    3710:	2001      	movs	r0, #1
    3712:	f7ff fffe 	bl	0 <__printf_chk>
    3716:	2001      	movs	r0, #1
    3718:	f7ff fffe 	bl	0 <exit>
    371c:	f8df 18bc 	ldr.w	r1, [pc, #2236]	; 3fdc <FUZ_test+0x3d48>
    3720:	4632      	mov	r2, r6
    3722:	4680      	mov	r8, r0
    3724:	2001      	movs	r0, #1
    3726:	4479      	add	r1, pc
    3728:	f7ff fffe 	bl	0 <__printf_chk>
    372c:	f8df 18b0 	ldr.w	r1, [pc, #2224]	; 3fe0 <FUZ_test+0x3d4c>
    3730:	465b      	mov	r3, fp
    3732:	4642      	mov	r2, r8
    3734:	4479      	add	r1, pc
    3736:	2001      	movs	r0, #1
    3738:	9700      	str	r7, [sp, #0]
    373a:	f7ff fffe 	bl	0 <__printf_chk>
    373e:	f8df 18a4 	ldr.w	r1, [pc, #2212]	; 3fe4 <FUZ_test+0x3d50>
    3742:	ee1a 3a10 	vmov	r3, s20
    3746:	ee1d 2a10 	vmov	r2, s26
    374a:	4479      	add	r1, pc
    374c:	2001      	movs	r0, #1
    374e:	f7ff fffe 	bl	0 <__printf_chk>
    3752:	2001      	movs	r0, #1
    3754:	f7ff fffe 	bl	0 <exit>
    3758:	f8df 188c 	ldr.w	r1, [pc, #2188]	; 3fe8 <FUZ_test+0x3d54>
    375c:	4632      	mov	r2, r6
    375e:	4680      	mov	r8, r0
    3760:	2001      	movs	r0, #1
    3762:	4479      	add	r1, pc
    3764:	f7ff fffe 	bl	0 <__printf_chk>
    3768:	f8df 1880 	ldr.w	r1, [pc, #2176]	; 3fec <FUZ_test+0x3d58>
    376c:	4642      	mov	r2, r8
    376e:	2001      	movs	r0, #1
    3770:	4479      	add	r1, pc
    3772:	f7ff fffe 	bl	0 <__printf_chk>
    3776:	f8df 1878 	ldr.w	r1, [pc, #2168]	; 3ff0 <FUZ_test+0x3d5c>
    377a:	ee1a 3a10 	vmov	r3, s20
    377e:	ee1d 2a10 	vmov	r2, s26
    3782:	4479      	add	r1, pc
    3784:	2001      	movs	r0, #1
    3786:	f7ff fffe 	bl	0 <__printf_chk>
    378a:	2001      	movs	r0, #1
    378c:	f7ff fffe 	bl	0 <exit>
    3790:	f8df 1860 	ldr.w	r1, [pc, #2144]	; 3ff4 <FUZ_test+0x3d60>
    3794:	2001      	movs	r0, #1
    3796:	9a09      	ldr	r2, [sp, #36]	; 0x24
    3798:	4479      	add	r1, pc
    379a:	f7ff fffe 	bl	0 <__printf_chk>
    379e:	f8df 1858 	ldr.w	r1, [pc, #2136]	; 3ff8 <FUZ_test+0x3d64>
    37a2:	2001      	movs	r0, #1
    37a4:	4479      	add	r1, pc
    37a6:	f7ff fffe 	bl	0 <__printf_chk>
    37aa:	f8df 1850 	ldr.w	r1, [pc, #2128]	; 3ffc <FUZ_test+0x3d68>
    37ae:	ee1a 3a10 	vmov	r3, s20
    37b2:	ee1d 2a10 	vmov	r2, s26
    37b6:	4479      	add	r1, pc
    37b8:	2001      	movs	r0, #1
    37ba:	f7ff fffe 	bl	0 <__printf_chk>
    37be:	2001      	movs	r0, #1
    37c0:	f7ff fffe 	bl	0 <exit>
    37c4:	f8df 1838 	ldr.w	r1, [pc, #2104]	; 4000 <FUZ_test+0x3d6c>
    37c8:	2001      	movs	r0, #1
    37ca:	9a09      	ldr	r2, [sp, #36]	; 0x24
    37cc:	4479      	add	r1, pc
    37ce:	f7ff fffe 	bl	0 <__printf_chk>
    37d2:	f8df 1830 	ldr.w	r1, [pc, #2096]	; 4004 <FUZ_test+0x3d70>
    37d6:	2001      	movs	r0, #1
    37d8:	4479      	add	r1, pc
    37da:	f7ff fffe 	bl	0 <__printf_chk>
    37de:	f8df 1828 	ldr.w	r1, [pc, #2088]	; 4008 <FUZ_test+0x3d74>
    37e2:	ee1a 3a10 	vmov	r3, s20
    37e6:	ee1d 2a10 	vmov	r2, s26
    37ea:	4479      	add	r1, pc
    37ec:	2001      	movs	r0, #1
    37ee:	f7ff fffe 	bl	0 <__printf_chk>
    37f2:	2001      	movs	r0, #1
    37f4:	f7ff fffe 	bl	0 <exit>
    37f8:	f8df 1810 	ldr.w	r1, [pc, #2064]	; 400c <FUZ_test+0x3d78>
    37fc:	4680      	mov	r8, r0
    37fe:	4632      	mov	r2, r6
    3800:	2001      	movs	r0, #1
    3802:	4479      	add	r1, pc
    3804:	f7ff fffe 	bl	0 <__printf_chk>
    3808:	9911      	ldr	r1, [sp, #68]	; 0x44
    380a:	9100      	str	r1, [sp, #0]
    380c:	4643      	mov	r3, r8
    380e:	f8df 1800 	ldr.w	r1, [pc, #2048]	; 4010 <FUZ_test+0x3d7c>
    3812:	463a      	mov	r2, r7
    3814:	2001      	movs	r0, #1
    3816:	4479      	add	r1, pc
    3818:	f7ff fffe 	bl	0 <__printf_chk>
    381c:	f8df 17f4 	ldr.w	r1, [pc, #2036]	; 4014 <FUZ_test+0x3d80>
    3820:	ee1a 3a10 	vmov	r3, s20
    3824:	ee1d 2a10 	vmov	r2, s26
    3828:	4479      	add	r1, pc
    382a:	2001      	movs	r0, #1
    382c:	f7ff fffe 	bl	0 <__printf_chk>
    3830:	2001      	movs	r0, #1
    3832:	f7ff fffe 	bl	0 <exit>
    3836:	f8df 17e0 	ldr.w	r1, [pc, #2016]	; 4018 <FUZ_test+0x3d84>
    383a:	2202      	movs	r2, #2
    383c:	2001      	movs	r0, #1
    383e:	4479      	add	r1, pc
    3840:	f7ff fffe 	bl	0 <__printf_chk>
    3844:	f8df 17d4 	ldr.w	r1, [pc, #2004]	; 401c <FUZ_test+0x3d88>
    3848:	2001      	movs	r0, #1
    384a:	4479      	add	r1, pc
    384c:	f7ff fffe 	bl	0 <__printf_chk>
    3850:	f8df 17cc 	ldr.w	r1, [pc, #1996]	; 4020 <FUZ_test+0x3d8c>
    3854:	ee1a 3a10 	vmov	r3, s20
    3858:	ee1d 2a10 	vmov	r2, s26
    385c:	4479      	add	r1, pc
    385e:	2001      	movs	r0, #1
    3860:	f7ff fffe 	bl	0 <__printf_chk>
    3864:	2001      	movs	r0, #1
    3866:	f7ff fffe 	bl	0 <exit>
    386a:	f8df 17b8 	ldr.w	r1, [pc, #1976]	; 4024 <FUZ_test+0x3d90>
    386e:	2201      	movs	r2, #1
    3870:	4610      	mov	r0, r2
    3872:	4479      	add	r1, pc
    3874:	f7ff fffe 	bl	0 <__printf_chk>
    3878:	f8df 17ac 	ldr.w	r1, [pc, #1964]	; 4028 <FUZ_test+0x3d94>
    387c:	2001      	movs	r0, #1
    387e:	4479      	add	r1, pc
    3880:	f7ff fffe 	bl	0 <__printf_chk>
    3884:	f8df 17a4 	ldr.w	r1, [pc, #1956]	; 402c <FUZ_test+0x3d98>
    3888:	ee1a 3a10 	vmov	r3, s20
    388c:	ee1d 2a10 	vmov	r2, s26
    3890:	4479      	add	r1, pc
    3892:	2001      	movs	r0, #1
    3894:	f7ff fffe 	bl	0 <__printf_chk>
    3898:	2001      	movs	r0, #1
    389a:	f7ff fffe 	bl	0 <exit>
    389e:	f8df 3790 	ldr.w	r3, [pc, #1936]	; 4030 <FUZ_test+0x3d9c>
    38a2:	f44f 6286 	mov.w	r2, #1072	; 0x430
    38a6:	f8df 178c 	ldr.w	r1, [pc, #1932]	; 4034 <FUZ_test+0x3da0>
    38aa:	f8df 078c 	ldr.w	r0, [pc, #1932]	; 4038 <FUZ_test+0x3da4>
    38ae:	447b      	add	r3, pc
    38b0:	4479      	add	r1, pc
    38b2:	4478      	add	r0, pc
    38b4:	f7ff fffe 	bl	0 <__assert_fail>
    38b8:	f8df 3780 	ldr.w	r3, [pc, #1920]	; 403c <FUZ_test+0x3da8>
    38bc:	f240 422e 	movw	r2, #1070	; 0x42e
    38c0:	f8df 177c 	ldr.w	r1, [pc, #1916]	; 4040 <FUZ_test+0x3dac>
    38c4:	f8df 077c 	ldr.w	r0, [pc, #1916]	; 4044 <FUZ_test+0x3db0>
    38c8:	447b      	add	r3, pc
    38ca:	4479      	add	r1, pc
    38cc:	4478      	add	r0, pc
    38ce:	f7ff fffe 	bl	0 <__assert_fail>
    38d2:	ee18 0a90 	vmov	r0, s17
    38d6:	4649      	mov	r1, r9
    38d8:	f7fc fca6 	bl	228 <FUZ_findDiff>
    38dc:	f8df 1768 	ldr.w	r1, [pc, #1896]	; 4048 <FUZ_test+0x3db4>
    38e0:	4632      	mov	r2, r6
    38e2:	2001      	movs	r0, #1
    38e4:	4479      	add	r1, pc
    38e6:	f7ff fffe 	bl	0 <__printf_chk>
    38ea:	f8df 1760 	ldr.w	r1, [pc, #1888]	; 404c <FUZ_test+0x3db8>
    38ee:	2001      	movs	r0, #1
    38f0:	4479      	add	r1, pc
    38f2:	f7ff fffe 	bl	0 <__printf_chk>
    38f6:	f8df 1758 	ldr.w	r1, [pc, #1880]	; 4050 <FUZ_test+0x3dbc>
    38fa:	ee1a 3a10 	vmov	r3, s20
    38fe:	ee1d 2a10 	vmov	r2, s26
    3902:	4479      	add	r1, pc
    3904:	2001      	movs	r0, #1
    3906:	f7ff fffe 	bl	0 <__printf_chk>
    390a:	2001      	movs	r0, #1
    390c:	f7ff fffe 	bl	0 <exit>
    3910:	f8df 1740 	ldr.w	r1, [pc, #1856]	; 4054 <FUZ_test+0x3dc0>
    3914:	4632      	mov	r2, r6
    3916:	2001      	movs	r0, #1
    3918:	4479      	add	r1, pc
    391a:	f7ff fffe 	bl	0 <__printf_chk>
    391e:	f8df 1738 	ldr.w	r1, [pc, #1848]	; 4058 <FUZ_test+0x3dc4>
    3922:	2001      	movs	r0, #1
    3924:	4479      	add	r1, pc
    3926:	f7ff fffe 	bl	0 <__printf_chk>
    392a:	f8df 1730 	ldr.w	r1, [pc, #1840]	; 405c <FUZ_test+0x3dc8>
    392e:	ee1a 3a10 	vmov	r3, s20
    3932:	ee1d 2a10 	vmov	r2, s26
    3936:	4479      	add	r1, pc
    3938:	2001      	movs	r0, #1
    393a:	f7ff fffe 	bl	0 <__printf_chk>
    393e:	2001      	movs	r0, #1
    3940:	f7ff fffe 	bl	0 <exit>
    3944:	f8df 1718 	ldr.w	r1, [pc, #1816]	; 4060 <FUZ_test+0x3dcc>
    3948:	4642      	mov	r2, r8
    394a:	4658      	mov	r0, fp
    394c:	4479      	add	r1, pc
    394e:	f7ff fffe 	bl	0 <__printf_chk>
    3952:	f8df 1710 	ldr.w	r1, [pc, #1808]	; 4064 <FUZ_test+0x3dd0>
    3956:	4658      	mov	r0, fp
    3958:	4479      	add	r1, pc
    395a:	f7ff fffe 	bl	0 <__printf_chk>
    395e:	f8df 1708 	ldr.w	r1, [pc, #1800]	; 4068 <FUZ_test+0x3dd4>
    3962:	ee1a 3a10 	vmov	r3, s20
    3966:	ee1d 2a10 	vmov	r2, s26
    396a:	4479      	add	r1, pc
    396c:	4658      	mov	r0, fp
    396e:	f7ff fffe 	bl	0 <__printf_chk>
    3972:	4658      	mov	r0, fp
    3974:	f7ff fffe 	bl	0 <exit>
    3978:	f8df 16f0 	ldr.w	r1, [pc, #1776]	; 406c <FUZ_test+0x3dd8>
    397c:	4680      	mov	r8, r0
    397e:	465a      	mov	r2, fp
    3980:	2001      	movs	r0, #1
    3982:	4479      	add	r1, pc
    3984:	f7ff fffe 	bl	0 <__printf_chk>
    3988:	f8df 16e4 	ldr.w	r1, [pc, #1764]	; 4070 <FUZ_test+0x3ddc>
    398c:	4642      	mov	r2, r8
    398e:	2001      	movs	r0, #1
    3990:	4479      	add	r1, pc
    3992:	f7ff fffe 	bl	0 <__printf_chk>
    3996:	f8df 16dc 	ldr.w	r1, [pc, #1756]	; 4074 <FUZ_test+0x3de0>
    399a:	ee1a 3a10 	vmov	r3, s20
    399e:	ee1d 2a10 	vmov	r2, s26
    39a2:	4479      	add	r1, pc
    39a4:	2001      	movs	r0, #1
    39a6:	f7ff fffe 	bl	0 <__printf_chk>
    39aa:	2001      	movs	r0, #1
    39ac:	f7ff fffe 	bl	0 <exit>
    39b0:	f8df 16c4 	ldr.w	r1, [pc, #1732]	; 4078 <FUZ_test+0x3de4>
    39b4:	465a      	mov	r2, fp
    39b6:	2001      	movs	r0, #1
    39b8:	4479      	add	r1, pc
    39ba:	f7ff fffe 	bl	0 <__printf_chk>
    39be:	f8df 16bc 	ldr.w	r1, [pc, #1724]	; 407c <FUZ_test+0x3de8>
    39c2:	2001      	movs	r0, #1
    39c4:	4479      	add	r1, pc
    39c6:	f7ff fffe 	bl	0 <__printf_chk>
    39ca:	f8df 16b4 	ldr.w	r1, [pc, #1716]	; 4080 <FUZ_test+0x3dec>
    39ce:	ee1a 3a10 	vmov	r3, s20
    39d2:	ee1d 2a10 	vmov	r2, s26
    39d6:	4479      	add	r1, pc
    39d8:	2001      	movs	r0, #1
    39da:	f7ff fffe 	bl	0 <__printf_chk>
    39de:	2001      	movs	r0, #1
    39e0:	f7ff fffe 	bl	0 <exit>
    39e4:	f8df 169c 	ldr.w	r1, [pc, #1692]	; 4084 <FUZ_test+0x3df0>
    39e8:	2202      	movs	r2, #2
    39ea:	2001      	movs	r0, #1
    39ec:	4479      	add	r1, pc
    39ee:	f7ff fffe 	bl	0 <__printf_chk>
    39f2:	f8df 1694 	ldr.w	r1, [pc, #1684]	; 4088 <FUZ_test+0x3df4>
    39f6:	2001      	movs	r0, #1
    39f8:	4479      	add	r1, pc
    39fa:	f7ff fffe 	bl	0 <__printf_chk>
    39fe:	f8df 168c 	ldr.w	r1, [pc, #1676]	; 408c <FUZ_test+0x3df8>
    3a02:	ee1a 3a10 	vmov	r3, s20
    3a06:	ee1d 2a10 	vmov	r2, s26
    3a0a:	4479      	add	r1, pc
    3a0c:	2001      	movs	r0, #1
    3a0e:	f7ff fffe 	bl	0 <__printf_chk>
    3a12:	2001      	movs	r0, #1
    3a14:	f7ff fffe 	bl	0 <exit>
    3a18:	f8df 1674 	ldr.w	r1, [pc, #1652]	; 4090 <FUZ_test+0x3dfc>
    3a1c:	2001      	movs	r0, #1
    3a1e:	9a13      	ldr	r2, [sp, #76]	; 0x4c
    3a20:	4479      	add	r1, pc
    3a22:	f7ff fffe 	bl	0 <__printf_chk>
    3a26:	f8df 166c 	ldr.w	r1, [pc, #1644]	; 4094 <FUZ_test+0x3e00>
    3a2a:	2001      	movs	r0, #1
    3a2c:	4479      	add	r1, pc
    3a2e:	f7ff fffe 	bl	0 <__printf_chk>
    3a32:	f8df 1664 	ldr.w	r1, [pc, #1636]	; 4098 <FUZ_test+0x3e04>
    3a36:	ee1a 3a10 	vmov	r3, s20
    3a3a:	ee1d 2a10 	vmov	r2, s26
    3a3e:	4479      	add	r1, pc
    3a40:	2001      	movs	r0, #1
    3a42:	f7ff fffe 	bl	0 <__printf_chk>
    3a46:	2001      	movs	r0, #1
    3a48:	f7ff fffe 	bl	0 <exit>
    3a4c:	f8df 164c 	ldr.w	r1, [pc, #1612]	; 409c <FUZ_test+0x3e08>
    3a50:	2001      	movs	r0, #1
    3a52:	9a13      	ldr	r2, [sp, #76]	; 0x4c
    3a54:	4479      	add	r1, pc
    3a56:	f7ff fffe 	bl	0 <__printf_chk>
    3a5a:	f8df 1644 	ldr.w	r1, [pc, #1604]	; 40a0 <FUZ_test+0x3e0c>
    3a5e:	2001      	movs	r0, #1
    3a60:	4479      	add	r1, pc
    3a62:	f7ff fffe 	bl	0 <__printf_chk>
    3a66:	f8df 163c 	ldr.w	r1, [pc, #1596]	; 40a4 <FUZ_test+0x3e10>
    3a6a:	ee1a 3a10 	vmov	r3, s20
    3a6e:	ee1d 2a10 	vmov	r2, s26
    3a72:	4479      	add	r1, pc
    3a74:	2001      	movs	r0, #1
    3a76:	f7ff fffe 	bl	0 <__printf_chk>
    3a7a:	2001      	movs	r0, #1
    3a7c:	f7ff fffe 	bl	0 <exit>
    3a80:	f8df 1624 	ldr.w	r1, [pc, #1572]	; 40a8 <FUZ_test+0x3e14>
    3a84:	2001      	movs	r0, #1
    3a86:	9a13      	ldr	r2, [sp, #76]	; 0x4c
    3a88:	4479      	add	r1, pc
    3a8a:	f7ff fffe 	bl	0 <__printf_chk>
    3a8e:	f8df 161c 	ldr.w	r1, [pc, #1564]	; 40ac <FUZ_test+0x3e18>
    3a92:	2001      	movs	r0, #1
    3a94:	4479      	add	r1, pc
    3a96:	f7ff fffe 	bl	0 <__printf_chk>
    3a9a:	f8df 1614 	ldr.w	r1, [pc, #1556]	; 40b0 <FUZ_test+0x3e1c>
    3a9e:	ee1a 3a10 	vmov	r3, s20
    3aa2:	ee1d 2a10 	vmov	r2, s26
    3aa6:	4479      	add	r1, pc
    3aa8:	2001      	movs	r0, #1
    3aaa:	f7ff fffe 	bl	0 <__printf_chk>
    3aae:	2001      	movs	r0, #1
    3ab0:	f7ff fffe 	bl	0 <exit>
    3ab4:	f8df 15fc 	ldr.w	r1, [pc, #1532]	; 40b4 <FUZ_test+0x3e20>
    3ab8:	2001      	movs	r0, #1
    3aba:	9a13      	ldr	r2, [sp, #76]	; 0x4c
    3abc:	4479      	add	r1, pc
    3abe:	f7ff fffe 	bl	0 <__printf_chk>
    3ac2:	f8df 15f4 	ldr.w	r1, [pc, #1524]	; 40b8 <FUZ_test+0x3e24>
    3ac6:	2001      	movs	r0, #1
    3ac8:	4479      	add	r1, pc
    3aca:	f7ff fffe 	bl	0 <__printf_chk>
    3ace:	f8df 15ec 	ldr.w	r1, [pc, #1516]	; 40bc <FUZ_test+0x3e28>
    3ad2:	ee1a 3a10 	vmov	r3, s20
    3ad6:	ee1d 2a10 	vmov	r2, s26
    3ada:	4479      	add	r1, pc
    3adc:	2001      	movs	r0, #1
    3ade:	f7ff fffe 	bl	0 <__printf_chk>
    3ae2:	2001      	movs	r0, #1
    3ae4:	f7ff fffe 	bl	0 <exit>
    3ae8:	f8df 15d4 	ldr.w	r1, [pc, #1492]	; 40c0 <FUZ_test+0x3e2c>
    3aec:	4632      	mov	r2, r6
    3aee:	2001      	movs	r0, #1
    3af0:	4479      	add	r1, pc
    3af2:	f7ff fffe 	bl	0 <__printf_chk>
    3af6:	f8df 15cc 	ldr.w	r1, [pc, #1484]	; 40c4 <FUZ_test+0x3e30>
    3afa:	465b      	mov	r3, fp
    3afc:	465a      	mov	r2, fp
    3afe:	4479      	add	r1, pc
    3b00:	2001      	movs	r0, #1
    3b02:	9700      	str	r7, [sp, #0]
    3b04:	f7ff fffe 	bl	0 <__printf_chk>
    3b08:	f8df 15bc 	ldr.w	r1, [pc, #1468]	; 40c8 <FUZ_test+0x3e34>
    3b0c:	ee1a 3a10 	vmov	r3, s20
    3b10:	ee1d 2a10 	vmov	r2, s26
    3b14:	4479      	add	r1, pc
    3b16:	2001      	movs	r0, #1
    3b18:	f7ff fffe 	bl	0 <__printf_chk>
    3b1c:	2001      	movs	r0, #1
    3b1e:	f7ff fffe 	bl	0 <exit>
    3b22:	f8df 15a8 	ldr.w	r1, [pc, #1448]	; 40cc <FUZ_test+0x3e38>
    3b26:	4632      	mov	r2, r6
    3b28:	4680      	mov	r8, r0
    3b2a:	2001      	movs	r0, #1
    3b2c:	4479      	add	r1, pc
    3b2e:	f7ff fffe 	bl	0 <__printf_chk>
    3b32:	f8df 159c 	ldr.w	r1, [pc, #1436]	; 40d0 <FUZ_test+0x3e3c>
    3b36:	465b      	mov	r3, fp
    3b38:	4642      	mov	r2, r8
    3b3a:	4479      	add	r1, pc
    3b3c:	2001      	movs	r0, #1
    3b3e:	9700      	str	r7, [sp, #0]
    3b40:	f7ff fffe 	bl	0 <__printf_chk>
    3b44:	f8df 158c 	ldr.w	r1, [pc, #1420]	; 40d4 <FUZ_test+0x3e40>
    3b48:	ee1a 3a10 	vmov	r3, s20
    3b4c:	ee1d 2a10 	vmov	r2, s26
    3b50:	4479      	add	r1, pc
    3b52:	2001      	movs	r0, #1
    3b54:	f7ff fffe 	bl	0 <__printf_chk>
    3b58:	2001      	movs	r0, #1
    3b5a:	f7ff fffe 	bl	0 <exit>
    3b5e:	f8df 1578 	ldr.w	r1, [pc, #1400]	; 40d8 <FUZ_test+0x3e44>
    3b62:	4632      	mov	r2, r6
    3b64:	2001      	movs	r0, #1
    3b66:	4479      	add	r1, pc
    3b68:	f7ff fffe 	bl	0 <__printf_chk>
    3b6c:	f8df 156c 	ldr.w	r1, [pc, #1388]	; 40dc <FUZ_test+0x3e48>
    3b70:	462a      	mov	r2, r5
    3b72:	2001      	movs	r0, #1
    3b74:	4479      	add	r1, pc
    3b76:	f7ff fffe 	bl	0 <__printf_chk>
    3b7a:	f8df 1564 	ldr.w	r1, [pc, #1380]	; 40e0 <FUZ_test+0x3e4c>
    3b7e:	ee1a 3a10 	vmov	r3, s20
    3b82:	ee1d 2a10 	vmov	r2, s26
    3b86:	4479      	add	r1, pc
    3b88:	2001      	movs	r0, #1
    3b8a:	f7ff fffe 	bl	0 <__printf_chk>
    3b8e:	2001      	movs	r0, #1
    3b90:	f7ff fffe 	bl	0 <exit>
    3b94:	f8df 154c 	ldr.w	r1, [pc, #1356]	; 40e4 <FUZ_test+0x3e50>
    3b98:	4632      	mov	r2, r6
    3b9a:	2001      	movs	r0, #1
    3b9c:	4479      	add	r1, pc
    3b9e:	f7ff fffe 	bl	0 <__printf_chk>
    3ba2:	f8df 1544 	ldr.w	r1, [pc, #1348]	; 40e8 <FUZ_test+0x3e54>
    3ba6:	462a      	mov	r2, r5
    3ba8:	2001      	movs	r0, #1
    3baa:	4479      	add	r1, pc
    3bac:	f7ff fffe 	bl	0 <__printf_chk>
    3bb0:	f8df 1538 	ldr.w	r1, [pc, #1336]	; 40ec <FUZ_test+0x3e58>
    3bb4:	ee1a 3a10 	vmov	r3, s20
    3bb8:	ee1d 2a10 	vmov	r2, s26
    3bbc:	4479      	add	r1, pc
    3bbe:	2001      	movs	r0, #1
    3bc0:	f7ff fffe 	bl	0 <__printf_chk>
    3bc4:	2001      	movs	r0, #1
    3bc6:	f7ff fffe 	bl	0 <exit>
    3bca:	f8df 1524 	ldr.w	r1, [pc, #1316]	; 40f0 <FUZ_test+0x3e5c>
    3bce:	4632      	mov	r2, r6
    3bd0:	2001      	movs	r0, #1
    3bd2:	4479      	add	r1, pc
    3bd4:	f7ff fffe 	bl	0 <__printf_chk>
    3bd8:	f8df 1518 	ldr.w	r1, [pc, #1304]	; 40f4 <FUZ_test+0x3e60>
    3bdc:	2001      	movs	r0, #1
    3bde:	4479      	add	r1, pc
    3be0:	f7ff fffe 	bl	0 <__printf_chk>
    3be4:	f8df 1510 	ldr.w	r1, [pc, #1296]	; 40f8 <FUZ_test+0x3e64>
    3be8:	ee1a 3a10 	vmov	r3, s20
    3bec:	ee1d 2a10 	vmov	r2, s26
    3bf0:	4479      	add	r1, pc
    3bf2:	2001      	movs	r0, #1
    3bf4:	f7ff fffe 	bl	0 <__printf_chk>
    3bf8:	2001      	movs	r0, #1
    3bfa:	f7ff fffe 	bl	0 <exit>
    3bfe:	f8df 14fc 	ldr.w	r1, [pc, #1276]	; 40fc <FUZ_test+0x3e68>
    3c02:	4642      	mov	r2, r8
    3c04:	2001      	movs	r0, #1
    3c06:	4479      	add	r1, pc
    3c08:	f7ff fffe 	bl	0 <__printf_chk>
    3c0c:	f8df 14f0 	ldr.w	r1, [pc, #1264]	; 4100 <FUZ_test+0x3e6c>
    3c10:	462a      	mov	r2, r5
    3c12:	2001      	movs	r0, #1
    3c14:	4479      	add	r1, pc
    3c16:	f7ff fffe 	bl	0 <__printf_chk>
    3c1a:	f8df 14e8 	ldr.w	r1, [pc, #1256]	; 4104 <FUZ_test+0x3e70>
    3c1e:	ee1a 3a10 	vmov	r3, s20
    3c22:	ee1d 2a10 	vmov	r2, s26
    3c26:	4479      	add	r1, pc
    3c28:	2001      	movs	r0, #1
    3c2a:	f7ff fffe 	bl	0 <__printf_chk>
    3c2e:	2001      	movs	r0, #1
    3c30:	f7ff fffe 	bl	0 <exit>
    3c34:	f8df 14d0 	ldr.w	r1, [pc, #1232]	; 4108 <FUZ_test+0x3e74>
    3c38:	465a      	mov	r2, fp
    3c3a:	2001      	movs	r0, #1
    3c3c:	4479      	add	r1, pc
    3c3e:	f7ff fffe 	bl	0 <__printf_chk>
    3c42:	f8df 14c8 	ldr.w	r1, [pc, #1224]	; 410c <FUZ_test+0x3e78>
    3c46:	2001      	movs	r0, #1
    3c48:	4479      	add	r1, pc
    3c4a:	f7ff fffe 	bl	0 <__printf_chk>
    3c4e:	f8df 14c0 	ldr.w	r1, [pc, #1216]	; 4110 <FUZ_test+0x3e7c>
    3c52:	ee1a 3a10 	vmov	r3, s20
    3c56:	ee1d 2a10 	vmov	r2, s26
    3c5a:	4479      	add	r1, pc
    3c5c:	2001      	movs	r0, #1
    3c5e:	f7ff fffe 	bl	0 <__printf_chk>
    3c62:	2001      	movs	r0, #1
    3c64:	f7ff fffe 	bl	0 <exit>
    3c68:	f8df 14a8 	ldr.w	r1, [pc, #1192]	; 4114 <FUZ_test+0x3e80>
    3c6c:	4680      	mov	r8, r0
    3c6e:	465a      	mov	r2, fp
    3c70:	2001      	movs	r0, #1
    3c72:	4479      	add	r1, pc
    3c74:	f7ff fffe 	bl	0 <__printf_chk>
    3c78:	9b0f      	ldr	r3, [sp, #60]	; 0x3c
    3c7a:	f8df 149c 	ldr.w	r1, [pc, #1180]	; 4118 <FUZ_test+0x3e84>
    3c7e:	4642      	mov	r2, r8
    3c80:	2001      	movs	r0, #1
    3c82:	f853 3c48 	ldr.w	r3, [r3, #-72]
    3c86:	4479      	add	r1, pc
    3c88:	f7ff fffe 	bl	0 <__printf_chk>
    3c8c:	f8df 148c 	ldr.w	r1, [pc, #1164]	; 411c <FUZ_test+0x3e88>
    3c90:	ee1a 3a10 	vmov	r3, s20
    3c94:	ee1d 2a10 	vmov	r2, s26
    3c98:	4479      	add	r1, pc
    3c9a:	2001      	movs	r0, #1
    3c9c:	f7ff fffe 	bl	0 <__printf_chk>
    3ca0:	2001      	movs	r0, #1
    3ca2:	f7ff fffe 	bl	0 <exit>
    3ca6:	f8df 1478 	ldr.w	r1, [pc, #1144]	; 4120 <FUZ_test+0x3e8c>
    3caa:	465a      	mov	r2, fp
    3cac:	2001      	movs	r0, #1
    3cae:	4479      	add	r1, pc
    3cb0:	f7ff fffe 	bl	0 <__printf_chk>
    3cb4:	f8df 146c 	ldr.w	r1, [pc, #1132]	; 4124 <FUZ_test+0x3e90>
    3cb8:	2001      	movs	r0, #1
    3cba:	4479      	add	r1, pc
    3cbc:	f7ff fffe 	bl	0 <__printf_chk>
    3cc0:	f8df 1464 	ldr.w	r1, [pc, #1124]	; 4128 <FUZ_test+0x3e94>
    3cc4:	ee1a 3a10 	vmov	r3, s20
    3cc8:	ee1d 2a10 	vmov	r2, s26
    3ccc:	4479      	add	r1, pc
    3cce:	2001      	movs	r0, #1
    3cd0:	f7ff fffe 	bl	0 <__printf_chk>
    3cd4:	2001      	movs	r0, #1
    3cd6:	f7ff fffe 	bl	0 <exit>
    3cda:	f8df 1450 	ldr.w	r1, [pc, #1104]	; 412c <FUZ_test+0x3e98>
    3cde:	465a      	mov	r2, fp
    3ce0:	2001      	movs	r0, #1
    3ce2:	4479      	add	r1, pc
    3ce4:	f7ff fffe 	bl	0 <__printf_chk>
    3ce8:	f8df 1444 	ldr.w	r1, [pc, #1092]	; 4130 <FUZ_test+0x3e9c>
    3cec:	2001      	movs	r0, #1
    3cee:	4479      	add	r1, pc
    3cf0:	f7ff fffe 	bl	0 <__printf_chk>
    3cf4:	f8df 143c 	ldr.w	r1, [pc, #1084]	; 4134 <FUZ_test+0x3ea0>
    3cf8:	ee1a 3a10 	vmov	r3, s20
    3cfc:	ee1d 2a10 	vmov	r2, s26
    3d00:	4479      	add	r1, pc
    3d02:	2001      	movs	r0, #1
    3d04:	f7ff fffe 	bl	0 <__printf_chk>
    3d08:	2001      	movs	r0, #1
    3d0a:	f7ff fffe 	bl	0 <exit>
    3d0e:	ee18 0a90 	vmov	r0, s17
    3d12:	4649      	mov	r1, r9
    3d14:	f7fc fa88 	bl	228 <FUZ_findDiff>
    3d18:	f8df 141c 	ldr.w	r1, [pc, #1052]	; 4138 <FUZ_test+0x3ea4>
    3d1c:	4642      	mov	r2, r8
    3d1e:	2001      	movs	r0, #1
    3d20:	4479      	add	r1, pc
    3d22:	f7ff fffe 	bl	0 <__printf_chk>
    3d26:	f8df 1414 	ldr.w	r1, [pc, #1044]	; 413c <FUZ_test+0x3ea8>
    3d2a:	9a06      	ldr	r2, [sp, #24]
    3d2c:	2001      	movs	r0, #1
    3d2e:	4479      	add	r1, pc
    3d30:	f7ff fffe 	bl	0 <__printf_chk>
    3d34:	f8df 1408 	ldr.w	r1, [pc, #1032]	; 4140 <FUZ_test+0x3eac>
    3d38:	ee1a 3a10 	vmov	r3, s20
    3d3c:	ee1d 2a10 	vmov	r2, s26
    3d40:	4479      	add	r1, pc
    3d42:	2001      	movs	r0, #1
    3d44:	f7ff fffe 	bl	0 <__printf_chk>
    3d48:	2001      	movs	r0, #1
    3d4a:	f7ff fffe 	bl	0 <exit>
    3d4e:	49fd      	ldr	r1, [pc, #1012]	; (4144 <FUZ_test+0x3eb0>)
    3d50:	4642      	mov	r2, r8
    3d52:	2001      	movs	r0, #1
    3d54:	4479      	add	r1, pc
    3d56:	f7ff fffe 	bl	0 <__printf_chk>
    3d5a:	49fb      	ldr	r1, [pc, #1004]	; (4148 <FUZ_test+0x3eb4>)
    3d5c:	2001      	movs	r0, #1
    3d5e:	4479      	add	r1, pc
    3d60:	f7ff fffe 	bl	0 <__printf_chk>
    3d64:	49f9      	ldr	r1, [pc, #996]	; (414c <FUZ_test+0x3eb8>)
    3d66:	ee1a 3a10 	vmov	r3, s20
    3d6a:	ee1d 2a10 	vmov	r2, s26
    3d6e:	4479      	add	r1, pc
    3d70:	2001      	movs	r0, #1
    3d72:	f7ff fffe 	bl	0 <__printf_chk>
    3d76:	2001      	movs	r0, #1
    3d78:	f7ff fffe 	bl	0 <exit>
    3d7c:	4bf4      	ldr	r3, [pc, #976]	; (4150 <FUZ_test+0x3ebc>)
    3d7e:	f44f 7271 	mov.w	r2, #964	; 0x3c4
    3d82:	49f4      	ldr	r1, [pc, #976]	; (4154 <FUZ_test+0x3ec0>)
    3d84:	48f4      	ldr	r0, [pc, #976]	; (4158 <FUZ_test+0x3ec4>)
    3d86:	447b      	add	r3, pc
    3d88:	4479      	add	r1, pc
    3d8a:	4478      	add	r0, pc
    3d8c:	f7ff fffe 	bl	0 <__assert_fail>
    3d90:	49f2      	ldr	r1, [pc, #968]	; (415c <FUZ_test+0x3ec8>)
    3d92:	4632      	mov	r2, r6
    3d94:	2001      	movs	r0, #1
    3d96:	4479      	add	r1, pc
    3d98:	f7ff fffe 	bl	0 <__printf_chk>
    3d9c:	49f0      	ldr	r1, [pc, #960]	; (4160 <FUZ_test+0x3ecc>)
    3d9e:	2001      	movs	r0, #1
    3da0:	4479      	add	r1, pc
    3da2:	f7ff fffe 	bl	0 <__printf_chk>
    3da6:	49ef      	ldr	r1, [pc, #956]	; (4164 <FUZ_test+0x3ed0>)
    3da8:	ee1a 3a10 	vmov	r3, s20
    3dac:	ee1d 2a10 	vmov	r2, s26
    3db0:	4479      	add	r1, pc
    3db2:	2001      	movs	r0, #1
    3db4:	f7ff fffe 	bl	0 <__printf_chk>
    3db8:	2001      	movs	r0, #1
    3dba:	f7ff fffe 	bl	0 <exit>
    3dbe:	49ea      	ldr	r1, [pc, #936]	; (4168 <FUZ_test+0x3ed4>)
    3dc0:	4632      	mov	r2, r6
    3dc2:	2001      	movs	r0, #1
    3dc4:	4479      	add	r1, pc
    3dc6:	f7ff fffe 	bl	0 <__printf_chk>
    3dca:	49e8      	ldr	r1, [pc, #928]	; (416c <FUZ_test+0x3ed8>)
    3dcc:	2001      	movs	r0, #1
    3dce:	4479      	add	r1, pc
    3dd0:	f7ff fffe 	bl	0 <__printf_chk>
    3dd4:	49e6      	ldr	r1, [pc, #920]	; (4170 <FUZ_test+0x3edc>)
    3dd6:	ee1a 3a10 	vmov	r3, s20
    3dda:	ee1d 2a10 	vmov	r2, s26
    3dde:	4479      	add	r1, pc
    3de0:	2001      	movs	r0, #1
    3de2:	f7ff fffe 	bl	0 <__printf_chk>
    3de6:	2001      	movs	r0, #1
    3de8:	f7ff fffe 	bl	0 <exit>
    3dec:	49e1      	ldr	r1, [pc, #900]	; (4174 <FUZ_test+0x3ee0>)
    3dee:	4605      	mov	r5, r0
    3df0:	4632      	mov	r2, r6
    3df2:	2001      	movs	r0, #1
    3df4:	4479      	add	r1, pc
    3df6:	f7ff fffe 	bl	0 <__printf_chk>
    3dfa:	9b0f      	ldr	r3, [sp, #60]	; 0x3c
    3dfc:	49de      	ldr	r1, [pc, #888]	; (4178 <FUZ_test+0x3ee4>)
    3dfe:	462a      	mov	r2, r5
    3e00:	2001      	movs	r0, #1
    3e02:	f853 3c48 	ldr.w	r3, [r3, #-72]
    3e06:	4479      	add	r1, pc
    3e08:	f7ff fffe 	bl	0 <__printf_chk>
    3e0c:	49db      	ldr	r1, [pc, #876]	; (417c <FUZ_test+0x3ee8>)
    3e0e:	ee1a 3a10 	vmov	r3, s20
    3e12:	ee1d 2a10 	vmov	r2, s26
    3e16:	4479      	add	r1, pc
    3e18:	2001      	movs	r0, #1
    3e1a:	f7ff fffe 	bl	0 <__printf_chk>
    3e1e:	2001      	movs	r0, #1
    3e20:	f7ff fffe 	bl	0 <exit>
    3e24:	00000f58 	.word	0x00000f58
    3e28:	00000f50 	.word	0x00000f50
    3e2c:	00000f48 	.word	0x00000f48
    3e30:	00000000 	.word	0x00000000
    3e34:	00000f24 	.word	0x00000f24
    3e38:	00000f1c 	.word	0x00000f1c
    3e3c:	00000f14 	.word	0x00000f14
    3e40:	00000ef4 	.word	0x00000ef4
    3e44:	00000ee6 	.word	0x00000ee6
    3e48:	00000ec6 	.word	0x00000ec6
    3e4c:	00000eb8 	.word	0x00000eb8
    3e50:	00000e98 	.word	0x00000e98
    3e54:	00000e8a 	.word	0x00000e8a
    3e58:	00000e6a 	.word	0x00000e6a
    3e5c:	00000e5c 	.word	0x00000e5c
    3e60:	00000e2c 	.word	0x00000e2c
    3e64:	00000e1e 	.word	0x00000e1e
    3e68:	00000dfe 	.word	0x00000dfe
    3e6c:	00000df0 	.word	0x00000df0
    3e70:	00000d9a 	.word	0x00000d9a
    3e74:	00000d90 	.word	0x00000d90
    3e78:	00000d80 	.word	0x00000d80
    3e7c:	00000d6c 	.word	0x00000d6c
    3e80:	00000d62 	.word	0x00000d62
    3e84:	00000d52 	.word	0x00000d52
    3e88:	00000d44 	.word	0x00000d44
    3e8c:	00000d36 	.word	0x00000d36
    3e90:	00000d2e 	.word	0x00000d2e
    3e94:	00000d20 	.word	0x00000d20
    3e98:	00000d0e 	.word	0x00000d0e
    3e9c:	00000d06 	.word	0x00000d06
    3ea0:	00000cf8 	.word	0x00000cf8
    3ea4:	00000ce6 	.word	0x00000ce6
    3ea8:	00000cde 	.word	0x00000cde
    3eac:	00000cd0 	.word	0x00000cd0
    3eb0:	00000cbe 	.word	0x00000cbe
    3eb4:	00000cb6 	.word	0x00000cb6
    3eb8:	00000ca8 	.word	0x00000ca8
    3ebc:	00000c96 	.word	0x00000c96
    3ec0:	00000c8e 	.word	0x00000c8e
    3ec4:	00000c80 	.word	0x00000c80
    3ec8:	00000c6e 	.word	0x00000c6e
    3ecc:	00000c66 	.word	0x00000c66
    3ed0:	00000c58 	.word	0x00000c58
    3ed4:	00000c46 	.word	0x00000c46
    3ed8:	00000c3e 	.word	0x00000c3e
    3edc:	00000c30 	.word	0x00000c30
    3ee0:	00000c1e 	.word	0x00000c1e
    3ee4:	00000c16 	.word	0x00000c16
    3ee8:	00000c08 	.word	0x00000c08
    3eec:	00000bf4 	.word	0x00000bf4
    3ef0:	00000bea 	.word	0x00000bea
    3ef4:	00000bda 	.word	0x00000bda
    3ef8:	00000bc8 	.word	0x00000bc8
    3efc:	00000bc0 	.word	0x00000bc0
    3f00:	00000bb2 	.word	0x00000bb2
    3f04:	00000b9e 	.word	0x00000b9e
    3f08:	00000b94 	.word	0x00000b94
    3f0c:	00000b84 	.word	0x00000b84
    3f10:	00000b6c 	.word	0x00000b6c
    3f14:	00000b62 	.word	0x00000b62
    3f18:	00000b52 	.word	0x00000b52
    3f1c:	00000b38 	.word	0x00000b38
    3f20:	00000b3a 	.word	0x00000b3a
    3f24:	00000b3c 	.word	0x00000b3c
    3f28:	00000b2e 	.word	0x00000b2e
    3f2c:	00000b26 	.word	0x00000b26
    3f30:	00000b18 	.word	0x00000b18
    3f34:	00000b02 	.word	0x00000b02
    3f38:	00000afa 	.word	0x00000afa
    3f3c:	00000aec 	.word	0x00000aec
    3f40:	00000ad0 	.word	0x00000ad0
    3f44:	00000ac8 	.word	0x00000ac8
    3f48:	00000aba 	.word	0x00000aba
    3f4c:	00000aa8 	.word	0x00000aa8
    3f50:	00000aa0 	.word	0x00000aa0
    3f54:	00000a92 	.word	0x00000a92
    3f58:	00000a80 	.word	0x00000a80
    3f5c:	00000a78 	.word	0x00000a78
    3f60:	00000a6a 	.word	0x00000a6a
    3f64:	00000a54 	.word	0x00000a54
    3f68:	00000a4c 	.word	0x00000a4c
    3f6c:	00000a3e 	.word	0x00000a3e
    3f70:	00000a2c 	.word	0x00000a2c
    3f74:	00000a24 	.word	0x00000a24
    3f78:	00000a16 	.word	0x00000a16
    3f7c:	00000a04 	.word	0x00000a04
    3f80:	000009fc 	.word	0x000009fc
    3f84:	000009ee 	.word	0x000009ee
    3f88:	000009dc 	.word	0x000009dc
    3f8c:	000009d4 	.word	0x000009d4
    3f90:	000009c6 	.word	0x000009c6
    3f94:	000009b2 	.word	0x000009b2
    3f98:	000009a8 	.word	0x000009a8
    3f9c:	00000998 	.word	0x00000998
    3fa0:	00000986 	.word	0x00000986
    3fa4:	0000097e 	.word	0x0000097e
    3fa8:	00000970 	.word	0x00000970
    3fac:	0000095e 	.word	0x0000095e
    3fb0:	00000956 	.word	0x00000956
    3fb4:	00000948 	.word	0x00000948
    3fb8:	00000934 	.word	0x00000934
    3fbc:	0000092a 	.word	0x0000092a
    3fc0:	0000091c 	.word	0x0000091c
    3fc4:	0000090a 	.word	0x0000090a
    3fc8:	00000902 	.word	0x00000902
    3fcc:	000008f4 	.word	0x000008f4
    3fd0:	000008e2 	.word	0x000008e2
    3fd4:	000008d8 	.word	0x000008d8
    3fd8:	000008c6 	.word	0x000008c6
    3fdc:	000008b2 	.word	0x000008b2
    3fe0:	000008a8 	.word	0x000008a8
    3fe4:	00000896 	.word	0x00000896
    3fe8:	00000882 	.word	0x00000882
    3fec:	00000878 	.word	0x00000878
    3ff0:	0000086a 	.word	0x0000086a
    3ff4:	00000858 	.word	0x00000858
    3ff8:	00000850 	.word	0x00000850
    3ffc:	00000842 	.word	0x00000842
    4000:	00000830 	.word	0x00000830
    4004:	00000828 	.word	0x00000828
    4008:	0000081a 	.word	0x0000081a
    400c:	00000806 	.word	0x00000806
    4010:	000007f6 	.word	0x000007f6
    4014:	000007e8 	.word	0x000007e8
    4018:	000007d6 	.word	0x000007d6
    401c:	000007ce 	.word	0x000007ce
    4020:	000007c0 	.word	0x000007c0
    4024:	000007ae 	.word	0x000007ae
    4028:	000007a6 	.word	0x000007a6
    402c:	00000798 	.word	0x00000798
    4030:	0000077e 	.word	0x0000077e
    4034:	00000780 	.word	0x00000780
    4038:	00000782 	.word	0x00000782
    403c:	00000770 	.word	0x00000770
    4040:	00000772 	.word	0x00000772
    4044:	00000774 	.word	0x00000774
    4048:	00000760 	.word	0x00000760
    404c:	00000758 	.word	0x00000758
    4050:	0000074a 	.word	0x0000074a
    4054:	00000738 	.word	0x00000738
    4058:	00000730 	.word	0x00000730
    405c:	00000722 	.word	0x00000722
    4060:	00000710 	.word	0x00000710
    4064:	00000708 	.word	0x00000708
    4068:	000006fa 	.word	0x000006fa
    406c:	000006e6 	.word	0x000006e6
    4070:	000006dc 	.word	0x000006dc
    4074:	000006ce 	.word	0x000006ce
    4078:	000006bc 	.word	0x000006bc
    407c:	000006b4 	.word	0x000006b4
    4080:	000006a6 	.word	0x000006a6
    4084:	00000694 	.word	0x00000694
    4088:	0000068c 	.word	0x0000068c
    408c:	0000067e 	.word	0x0000067e
    4090:	0000066c 	.word	0x0000066c
    4094:	00000664 	.word	0x00000664
    4098:	00000656 	.word	0x00000656
    409c:	00000644 	.word	0x00000644
    40a0:	0000063c 	.word	0x0000063c
    40a4:	0000062e 	.word	0x0000062e
    40a8:	0000061c 	.word	0x0000061c
    40ac:	00000614 	.word	0x00000614
    40b0:	00000606 	.word	0x00000606
    40b4:	000005f4 	.word	0x000005f4
    40b8:	000005ec 	.word	0x000005ec
    40bc:	000005de 	.word	0x000005de
    40c0:	000005cc 	.word	0x000005cc
    40c4:	000005c2 	.word	0x000005c2
    40c8:	000005b0 	.word	0x000005b0
    40cc:	0000059c 	.word	0x0000059c
    40d0:	00000592 	.word	0x00000592
    40d4:	00000580 	.word	0x00000580
    40d8:	0000056e 	.word	0x0000056e
    40dc:	00000564 	.word	0x00000564
    40e0:	00000556 	.word	0x00000556
    40e4:	00000544 	.word	0x00000544
    40e8:	0000053a 	.word	0x0000053a
    40ec:	0000052c 	.word	0x0000052c
    40f0:	0000051a 	.word	0x0000051a
    40f4:	00000512 	.word	0x00000512
    40f8:	00000504 	.word	0x00000504
    40fc:	000004f2 	.word	0x000004f2
    4100:	000004e8 	.word	0x000004e8
    4104:	000004da 	.word	0x000004da
    4108:	000004c8 	.word	0x000004c8
    410c:	000004c0 	.word	0x000004c0
    4110:	000004b2 	.word	0x000004b2
    4114:	0000049e 	.word	0x0000049e
    4118:	0000048e 	.word	0x0000048e
    411c:	00000480 	.word	0x00000480
    4120:	0000046e 	.word	0x0000046e
    4124:	00000466 	.word	0x00000466
    4128:	00000458 	.word	0x00000458
    412c:	00000446 	.word	0x00000446
    4130:	0000043e 	.word	0x0000043e
    4134:	00000430 	.word	0x00000430
    4138:	00000414 	.word	0x00000414
    413c:	0000040a 	.word	0x0000040a
    4140:	000003fc 	.word	0x000003fc
    4144:	000003ec 	.word	0x000003ec
    4148:	000003e6 	.word	0x000003e6
    414c:	000003da 	.word	0x000003da
    4150:	000003c6 	.word	0x000003c6
    4154:	000003c8 	.word	0x000003c8
    4158:	000003ca 	.word	0x000003ca
    415c:	000003c2 	.word	0x000003c2
    4160:	000003bc 	.word	0x000003bc
    4164:	000003b0 	.word	0x000003b0
    4168:	000003a0 	.word	0x000003a0
    416c:	0000039a 	.word	0x0000039a
    4170:	0000038e 	.word	0x0000038e
    4174:	0000037c 	.word	0x0000037c
    4178:	0000036e 	.word	0x0000036e
    417c:	00000362 	.word	0x00000362
    4180:	f8dd 8020 	ldr.w	r8, [sp, #32]
    4184:	2001      	movs	r0, #1
    4186:	f8df 1f94 	ldr.w	r1, [pc, #3988]	; 511c <FUZ_test+0x4e88>
    418a:	4642      	mov	r2, r8
    418c:	4479      	add	r1, pc
    418e:	f7ff fffe 	bl	0 <__printf_chk>
    4192:	f8df 1f8c 	ldr.w	r1, [pc, #3980]	; 5120 <FUZ_test+0x4e8c>
    4196:	2001      	movs	r0, #1
    4198:	4479      	add	r1, pc
    419a:	f7ff fffe 	bl	0 <__printf_chk>
    419e:	f8df 1f84 	ldr.w	r1, [pc, #3972]	; 5124 <FUZ_test+0x4e90>
    41a2:	ee1a 3a10 	vmov	r3, s20
    41a6:	ee1d 2a10 	vmov	r2, s26
    41aa:	4479      	add	r1, pc
    41ac:	2001      	movs	r0, #1
    41ae:	f7ff fffe 	bl	0 <__printf_chk>
    41b2:	2001      	movs	r0, #1
    41b4:	f7ff fffe 	bl	0 <exit>
    41b8:	f8dd 8020 	ldr.w	r8, [sp, #32]
    41bc:	2001      	movs	r0, #1
    41be:	f8df 1f68 	ldr.w	r1, [pc, #3944]	; 5128 <FUZ_test+0x4e94>
    41c2:	4642      	mov	r2, r8
    41c4:	4479      	add	r1, pc
    41c6:	f7ff fffe 	bl	0 <__printf_chk>
    41ca:	f8df 1f60 	ldr.w	r1, [pc, #3936]	; 512c <FUZ_test+0x4e98>
    41ce:	2001      	movs	r0, #1
    41d0:	4479      	add	r1, pc
    41d2:	f7ff fffe 	bl	0 <__printf_chk>
    41d6:	f8df 1f58 	ldr.w	r1, [pc, #3928]	; 5130 <FUZ_test+0x4e9c>
    41da:	ee1a 3a10 	vmov	r3, s20
    41de:	ee1d 2a10 	vmov	r2, s26
    41e2:	4479      	add	r1, pc
    41e4:	2001      	movs	r0, #1
    41e6:	f7ff fffe 	bl	0 <__printf_chk>
    41ea:	2001      	movs	r0, #1
    41ec:	f7ff fffe 	bl	0 <exit>
    41f0:	f8dd 8020 	ldr.w	r8, [sp, #32]
    41f4:	2001      	movs	r0, #1
    41f6:	f8df 1f3c 	ldr.w	r1, [pc, #3900]	; 5134 <FUZ_test+0x4ea0>
    41fa:	4642      	mov	r2, r8
    41fc:	4479      	add	r1, pc
    41fe:	f7ff fffe 	bl	0 <__printf_chk>
    4202:	f8df 1f34 	ldr.w	r1, [pc, #3892]	; 5138 <FUZ_test+0x4ea4>
    4206:	2001      	movs	r0, #1
    4208:	4479      	add	r1, pc
    420a:	f7ff fffe 	bl	0 <__printf_chk>
    420e:	f8df 1f2c 	ldr.w	r1, [pc, #3884]	; 513c <FUZ_test+0x4ea8>
    4212:	ee1a 3a10 	vmov	r3, s20
    4216:	ee1d 2a10 	vmov	r2, s26
    421a:	4479      	add	r1, pc
    421c:	2001      	movs	r0, #1
    421e:	f7ff fffe 	bl	0 <__printf_chk>
    4222:	2001      	movs	r0, #1
    4224:	f7ff fffe 	bl	0 <exit>
    4228:	ee18 0a90 	vmov	r0, s17
    422c:	4649      	mov	r1, r9
    422e:	f7fb fffb 	bl	228 <FUZ_findDiff>
    4232:	f8df 1f0c 	ldr.w	r1, [pc, #3852]	; 5140 <FUZ_test+0x4eac>
    4236:	4622      	mov	r2, r4
    4238:	2001      	movs	r0, #1
    423a:	4479      	add	r1, pc
    423c:	f7ff fffe 	bl	0 <__printf_chk>
    4240:	f8df 1f00 	ldr.w	r1, [pc, #3840]	; 5144 <FUZ_test+0x4eb0>
    4244:	2001      	movs	r0, #1
    4246:	4479      	add	r1, pc
    4248:	f7ff fffe 	bl	0 <__printf_chk>
    424c:	f8df 1ef8 	ldr.w	r1, [pc, #3832]	; 5148 <FUZ_test+0x4eb4>
    4250:	ee1a 3a10 	vmov	r3, s20
    4254:	ee1d 2a10 	vmov	r2, s26
    4258:	4479      	add	r1, pc
    425a:	2001      	movs	r0, #1
    425c:	f7ff fffe 	bl	0 <__printf_chk>
    4260:	2001      	movs	r0, #1
    4262:	f7ff fffe 	bl	0 <exit>
    4266:	f8df 1ee4 	ldr.w	r1, [pc, #3812]	; 514c <FUZ_test+0x4eb8>
    426a:	462a      	mov	r2, r5
    426c:	4658      	mov	r0, fp
    426e:	4479      	add	r1, pc
    4270:	f7ff fffe 	bl	0 <__printf_chk>
    4274:	f8df 1ed8 	ldr.w	r1, [pc, #3800]	; 5150 <FUZ_test+0x4ebc>
    4278:	4658      	mov	r0, fp
    427a:	4479      	add	r1, pc
    427c:	f7ff fffe 	bl	0 <__printf_chk>
    4280:	f8df 1ed0 	ldr.w	r1, [pc, #3792]	; 5154 <FUZ_test+0x4ec0>
    4284:	ee1a 3a10 	vmov	r3, s20
    4288:	ee1d 2a10 	vmov	r2, s26
    428c:	4479      	add	r1, pc
    428e:	4658      	mov	r0, fp
    4290:	f7ff fffe 	bl	0 <__printf_chk>
    4294:	4658      	mov	r0, fp
    4296:	f7ff fffe 	bl	0 <exit>
    429a:	f8df 1ebc 	ldr.w	r1, [pc, #3772]	; 5158 <FUZ_test+0x4ec4>
    429e:	462a      	mov	r2, r5
    42a0:	4604      	mov	r4, r0
    42a2:	4658      	mov	r0, fp
    42a4:	4479      	add	r1, pc
    42a6:	f7ff fffe 	bl	0 <__printf_chk>
    42aa:	f8df 1eb0 	ldr.w	r1, [pc, #3760]	; 515c <FUZ_test+0x4ec8>
    42ae:	4633      	mov	r3, r6
    42b0:	4622      	mov	r2, r4
    42b2:	4479      	add	r1, pc
    42b4:	4658      	mov	r0, fp
    42b6:	f7ff fffe 	bl	0 <__printf_chk>
    42ba:	f8df 1ea4 	ldr.w	r1, [pc, #3748]	; 5160 <FUZ_test+0x4ecc>
    42be:	ee1a 3a10 	vmov	r3, s20
    42c2:	ee1d 2a10 	vmov	r2, s26
    42c6:	4479      	add	r1, pc
    42c8:	4658      	mov	r0, fp
    42ca:	f7ff fffe 	bl	0 <__printf_chk>
    42ce:	4658      	mov	r0, fp
    42d0:	f7ff fffe 	bl	0 <exit>
    42d4:	f8df 1e8c 	ldr.w	r1, [pc, #3724]	; 5164 <FUZ_test+0x4ed0>
    42d8:	462a      	mov	r2, r5
    42da:	2001      	movs	r0, #1
    42dc:	4479      	add	r1, pc
    42de:	f7ff fffe 	bl	0 <__printf_chk>
    42e2:	f8df 1e84 	ldr.w	r1, [pc, #3716]	; 5168 <FUZ_test+0x4ed4>
    42e6:	2001      	movs	r0, #1
    42e8:	4479      	add	r1, pc
    42ea:	f7ff fffe 	bl	0 <__printf_chk>
    42ee:	f8df 1e7c 	ldr.w	r1, [pc, #3708]	; 516c <FUZ_test+0x4ed8>
    42f2:	ee1a 3a10 	vmov	r3, s20
    42f6:	ee1d 2a10 	vmov	r2, s26
    42fa:	4479      	add	r1, pc
    42fc:	2001      	movs	r0, #1
    42fe:	f7ff fffe 	bl	0 <__printf_chk>
    4302:	2001      	movs	r0, #1
    4304:	f7ff fffe 	bl	0 <exit>
    4308:	f8df 1e64 	ldr.w	r1, [pc, #3684]	; 5170 <FUZ_test+0x4edc>
    430c:	462a      	mov	r2, r5
    430e:	2001      	movs	r0, #1
    4310:	4479      	add	r1, pc
    4312:	f7ff fffe 	bl	0 <__printf_chk>
    4316:	f8df 1e5c 	ldr.w	r1, [pc, #3676]	; 5174 <FUZ_test+0x4ee0>
    431a:	4633      	mov	r3, r6
    431c:	465a      	mov	r2, fp
    431e:	4479      	add	r1, pc
    4320:	2001      	movs	r0, #1
    4322:	f7ff fffe 	bl	0 <__printf_chk>
    4326:	f8df 1e50 	ldr.w	r1, [pc, #3664]	; 5178 <FUZ_test+0x4ee4>
    432a:	ee1a 3a10 	vmov	r3, s20
    432e:	ee1d 2a10 	vmov	r2, s26
    4332:	4479      	add	r1, pc
    4334:	2001      	movs	r0, #1
    4336:	f7ff fffe 	bl	0 <__printf_chk>
    433a:	2001      	movs	r0, #1
    433c:	f7ff fffe 	bl	0 <exit>
    4340:	f8df 1e38 	ldr.w	r1, [pc, #3640]	; 517c <FUZ_test+0x4ee8>
    4344:	462a      	mov	r2, r5
    4346:	2001      	movs	r0, #1
    4348:	4479      	add	r1, pc
    434a:	f7ff fffe 	bl	0 <__printf_chk>
    434e:	f8df 1e30 	ldr.w	r1, [pc, #3632]	; 5180 <FUZ_test+0x4eec>
    4352:	2001      	movs	r0, #1
    4354:	4479      	add	r1, pc
    4356:	f7ff fffe 	bl	0 <__printf_chk>
    435a:	f8df 1e28 	ldr.w	r1, [pc, #3624]	; 5184 <FUZ_test+0x4ef0>
    435e:	ee1a 3a10 	vmov	r3, s20
    4362:	ee1d 2a10 	vmov	r2, s26
    4366:	4479      	add	r1, pc
    4368:	2001      	movs	r0, #1
    436a:	f7ff fffe 	bl	0 <__printf_chk>
    436e:	2001      	movs	r0, #1
    4370:	f7ff fffe 	bl	0 <exit>
    4374:	f8df 1e10 	ldr.w	r1, [pc, #3600]	; 5188 <FUZ_test+0x4ef4>
    4378:	4632      	mov	r2, r6
    437a:	4640      	mov	r0, r8
    437c:	4479      	add	r1, pc
    437e:	f7ff fffe 	bl	0 <__printf_chk>
    4382:	f8df 1e08 	ldr.w	r1, [pc, #3592]	; 518c <FUZ_test+0x4ef8>
    4386:	4640      	mov	r0, r8
    4388:	4479      	add	r1, pc
    438a:	f7ff fffe 	bl	0 <__printf_chk>
    438e:	f8df 1e00 	ldr.w	r1, [pc, #3584]	; 5190 <FUZ_test+0x4efc>
    4392:	ee1a 3a10 	vmov	r3, s20
    4396:	ee1d 2a10 	vmov	r2, s26
    439a:	4479      	add	r1, pc
    439c:	4640      	mov	r0, r8
    439e:	f7ff fffe 	bl	0 <__printf_chk>
    43a2:	4640      	mov	r0, r8
    43a4:	f7ff fffe 	bl	0 <exit>
    43a8:	f8df 1de8 	ldr.w	r1, [pc, #3560]	; 5194 <FUZ_test+0x4f00>
    43ac:	465a      	mov	r2, fp
    43ae:	2001      	movs	r0, #1
    43b0:	4479      	add	r1, pc
    43b2:	f7ff fffe 	bl	0 <__printf_chk>
    43b6:	f8df 1de0 	ldr.w	r1, [pc, #3552]	; 5198 <FUZ_test+0x4f04>
    43ba:	463b      	mov	r3, r7
    43bc:	4632      	mov	r2, r6
    43be:	4479      	add	r1, pc
    43c0:	2001      	movs	r0, #1
    43c2:	f7ff fffe 	bl	0 <__printf_chk>
    43c6:	f8df 1dd4 	ldr.w	r1, [pc, #3540]	; 519c <FUZ_test+0x4f08>
    43ca:	ee1a 3a10 	vmov	r3, s20
    43ce:	ee1d 2a10 	vmov	r2, s26
    43d2:	4479      	add	r1, pc
    43d4:	2001      	movs	r0, #1
    43d6:	f7ff fffe 	bl	0 <__printf_chk>
    43da:	2001      	movs	r0, #1
    43dc:	f7ff fffe 	bl	0 <exit>
    43e0:	f8df 1dbc 	ldr.w	r1, [pc, #3516]	; 51a0 <FUZ_test+0x4f0c>
    43e4:	465a      	mov	r2, fp
    43e6:	2001      	movs	r0, #1
    43e8:	4479      	add	r1, pc
    43ea:	f7ff fffe 	bl	0 <__printf_chk>
    43ee:	f8df 1db4 	ldr.w	r1, [pc, #3508]	; 51a4 <FUZ_test+0x4f10>
    43f2:	4632      	mov	r2, r6
    43f4:	2001      	movs	r0, #1
    43f6:	4479      	add	r1, pc
    43f8:	f7ff fffe 	bl	0 <__printf_chk>
    43fc:	f8df 1da8 	ldr.w	r1, [pc, #3496]	; 51a8 <FUZ_test+0x4f14>
    4400:	ee1a 3a10 	vmov	r3, s20
    4404:	ee1d 2a10 	vmov	r2, s26
    4408:	4479      	add	r1, pc
    440a:	2001      	movs	r0, #1
    440c:	f7ff fffe 	bl	0 <__printf_chk>
    4410:	2001      	movs	r0, #1
    4412:	f7ff fffe 	bl	0 <exit>
    4416:	f8df 1d94 	ldr.w	r1, [pc, #3476]	; 51ac <FUZ_test+0x4f18>
    441a:	2001      	movs	r0, #1
    441c:	9a11      	ldr	r2, [sp, #68]	; 0x44
    441e:	4479      	add	r1, pc
    4420:	f7ff fffe 	bl	0 <__printf_chk>
    4424:	f8df 1d88 	ldr.w	r1, [pc, #3464]	; 51b0 <FUZ_test+0x4f1c>
    4428:	2001      	movs	r0, #1
    442a:	4479      	add	r1, pc
    442c:	f7ff fffe 	bl	0 <__printf_chk>
    4430:	f8df 1d80 	ldr.w	r1, [pc, #3456]	; 51b4 <FUZ_test+0x4f20>
    4434:	ee1a 3a10 	vmov	r3, s20
    4438:	ee1d 2a10 	vmov	r2, s26
    443c:	4479      	add	r1, pc
    443e:	2001      	movs	r0, #1
    4440:	f7ff fffe 	bl	0 <__printf_chk>
    4444:	2001      	movs	r0, #1
    4446:	f7ff fffe 	bl	0 <exit>
    444a:	f8df 1d6c 	ldr.w	r1, [pc, #3436]	; 51b8 <FUZ_test+0x4f24>
    444e:	2001      	movs	r0, #1
    4450:	9a11      	ldr	r2, [sp, #68]	; 0x44
    4452:	4479      	add	r1, pc
    4454:	f7ff fffe 	bl	0 <__printf_chk>
    4458:	f8df 1d60 	ldr.w	r1, [pc, #3424]	; 51bc <FUZ_test+0x4f28>
    445c:	2001      	movs	r0, #1
    445e:	4479      	add	r1, pc
    4460:	f7ff fffe 	bl	0 <__printf_chk>
    4464:	f8df 1d58 	ldr.w	r1, [pc, #3416]	; 51c0 <FUZ_test+0x4f2c>
    4468:	ee1a 3a10 	vmov	r3, s20
    446c:	ee1d 2a10 	vmov	r2, s26
    4470:	4479      	add	r1, pc
    4472:	2001      	movs	r0, #1
    4474:	f7ff fffe 	bl	0 <__printf_chk>
    4478:	2001      	movs	r0, #1
    447a:	f7ff fffe 	bl	0 <exit>
    447e:	f8df 1d44 	ldr.w	r1, [pc, #3396]	; 51c4 <FUZ_test+0x4f30>
    4482:	465a      	mov	r2, fp
    4484:	2001      	movs	r0, #1
    4486:	4479      	add	r1, pc
    4488:	f7ff fffe 	bl	0 <__printf_chk>
    448c:	f8df 1d38 	ldr.w	r1, [pc, #3384]	; 51c8 <FUZ_test+0x4f34>
    4490:	2001      	movs	r0, #1
    4492:	4479      	add	r1, pc
    4494:	f7ff fffe 	bl	0 <__printf_chk>
    4498:	f8df 1d30 	ldr.w	r1, [pc, #3376]	; 51cc <FUZ_test+0x4f38>
    449c:	ee1a 3a10 	vmov	r3, s20
    44a0:	ee1d 2a10 	vmov	r2, s26
    44a4:	4479      	add	r1, pc
    44a6:	2001      	movs	r0, #1
    44a8:	f7ff fffe 	bl	0 <__printf_chk>
    44ac:	2001      	movs	r0, #1
    44ae:	f7ff fffe 	bl	0 <exit>
    44b2:	f8df 1d1c 	ldr.w	r1, [pc, #3356]	; 51d0 <FUZ_test+0x4f3c>
    44b6:	2202      	movs	r2, #2
    44b8:	2001      	movs	r0, #1
    44ba:	4479      	add	r1, pc
    44bc:	f7ff fffe 	bl	0 <__printf_chk>
    44c0:	f8df 1d10 	ldr.w	r1, [pc, #3344]	; 51d4 <FUZ_test+0x4f40>
    44c4:	2001      	movs	r0, #1
    44c6:	4479      	add	r1, pc
    44c8:	f7ff fffe 	bl	0 <__printf_chk>
    44cc:	f8df 1d08 	ldr.w	r1, [pc, #3336]	; 51d8 <FUZ_test+0x4f44>
    44d0:	ee1a 3a10 	vmov	r3, s20
    44d4:	ee1d 2a10 	vmov	r2, s26
    44d8:	4479      	add	r1, pc
    44da:	2001      	movs	r0, #1
    44dc:	f7ff fffe 	bl	0 <__printf_chk>
    44e0:	2001      	movs	r0, #1
    44e2:	f7ff fffe 	bl	0 <exit>
    44e6:	f8df 1cf4 	ldr.w	r1, [pc, #3316]	; 51dc <FUZ_test+0x4f48>
    44ea:	2202      	movs	r2, #2
    44ec:	2001      	movs	r0, #1
    44ee:	4479      	add	r1, pc
    44f0:	f7ff fffe 	bl	0 <__printf_chk>
    44f4:	f8df 1ce8 	ldr.w	r1, [pc, #3304]	; 51e0 <FUZ_test+0x4f4c>
    44f8:	2001      	movs	r0, #1
    44fa:	4479      	add	r1, pc
    44fc:	f7ff fffe 	bl	0 <__printf_chk>
    4500:	f8df 1ce0 	ldr.w	r1, [pc, #3296]	; 51e4 <FUZ_test+0x4f50>
    4504:	ee1a 3a10 	vmov	r3, s20
    4508:	ee1d 2a10 	vmov	r2, s26
    450c:	4479      	add	r1, pc
    450e:	2001      	movs	r0, #1
    4510:	f7ff fffe 	bl	0 <__printf_chk>
    4514:	2001      	movs	r0, #1
    4516:	f7ff fffe 	bl	0 <exit>
    451a:	f8df 1ccc 	ldr.w	r1, [pc, #3276]	; 51e8 <FUZ_test+0x4f54>
    451e:	4632      	mov	r2, r6
    4520:	2001      	movs	r0, #1
    4522:	4479      	add	r1, pc
    4524:	f7ff fffe 	bl	0 <__printf_chk>
    4528:	f8df 1cc0 	ldr.w	r1, [pc, #3264]	; 51ec <FUZ_test+0x4f58>
    452c:	2001      	movs	r0, #1
    452e:	4479      	add	r1, pc
    4530:	f7ff fffe 	bl	0 <__printf_chk>
    4534:	f8df 1cb8 	ldr.w	r1, [pc, #3256]	; 51f0 <FUZ_test+0x4f5c>
    4538:	ee1a 3a10 	vmov	r3, s20
    453c:	ee1d 2a10 	vmov	r2, s26
    4540:	4479      	add	r1, pc
    4542:	2001      	movs	r0, #1
    4544:	f7ff fffe 	bl	0 <__printf_chk>
    4548:	2001      	movs	r0, #1
    454a:	f7ff fffe 	bl	0 <exit>
    454e:	f8df 1ca4 	ldr.w	r1, [pc, #3236]	; 51f4 <FUZ_test+0x4f60>
    4552:	46b0      	mov	r8, r6
    4554:	4642      	mov	r2, r8
    4556:	4606      	mov	r6, r0
    4558:	4479      	add	r1, pc
    455a:	2001      	movs	r0, #1
    455c:	f7ff fffe 	bl	0 <__printf_chk>
    4560:	f8df 1c94 	ldr.w	r1, [pc, #3220]	; 51f8 <FUZ_test+0x4f64>
    4564:	462b      	mov	r3, r5
    4566:	4632      	mov	r2, r6
    4568:	4479      	add	r1, pc
    456a:	2001      	movs	r0, #1
    456c:	f7ff fffe 	bl	0 <__printf_chk>
    4570:	f8df 1c88 	ldr.w	r1, [pc, #3208]	; 51fc <FUZ_test+0x4f68>
    4574:	ee1a 3a10 	vmov	r3, s20
    4578:	ee1d 2a10 	vmov	r2, s26
    457c:	4479      	add	r1, pc
    457e:	2001      	movs	r0, #1
    4580:	f7ff fffe 	bl	0 <__printf_chk>
    4584:	2001      	movs	r0, #1
    4586:	f7ff fffe 	bl	0 <exit>
    458a:	f8df 1c74 	ldr.w	r1, [pc, #3188]	; 5200 <FUZ_test+0x4f6c>
    458e:	4680      	mov	r8, r0
    4590:	4632      	mov	r2, r6
    4592:	2001      	movs	r0, #1
    4594:	4479      	add	r1, pc
    4596:	f7ff fffe 	bl	0 <__printf_chk>
    459a:	f8df 1c68 	ldr.w	r1, [pc, #3176]	; 5204 <FUZ_test+0x4f70>
    459e:	4643      	mov	r3, r8
    45a0:	462a      	mov	r2, r5
    45a2:	4479      	add	r1, pc
    45a4:	2001      	movs	r0, #1
    45a6:	f7ff fffe 	bl	0 <__printf_chk>
    45aa:	f8df 1c5c 	ldr.w	r1, [pc, #3164]	; 5208 <FUZ_test+0x4f74>
    45ae:	ee1a 3a10 	vmov	r3, s20
    45b2:	ee1d 2a10 	vmov	r2, s26
    45b6:	4479      	add	r1, pc
    45b8:	2001      	movs	r0, #1
    45ba:	f7ff fffe 	bl	0 <__printf_chk>
    45be:	2001      	movs	r0, #1
    45c0:	f7ff fffe 	bl	0 <exit>
    45c4:	f8df 3c44 	ldr.w	r3, [pc, #3140]	; 520c <FUZ_test+0x4f78>
    45c8:	2227      	movs	r2, #39	; 0x27
    45ca:	9c07      	ldr	r4, [sp, #28]
    45cc:	2101      	movs	r1, #1
    45ce:	f8df 0c40 	ldr.w	r0, [pc, #3136]	; 5210 <FUZ_test+0x4f7c>
    45d2:	58e3      	ldr	r3, [r4, r3]
    45d4:	4478      	add	r0, pc
    45d6:	681b      	ldr	r3, [r3, #0]
    45d8:	f7ff fffe 	bl	0 <fwrite>
    45dc:	2001      	movs	r0, #1
    45de:	f7ff fffe 	bl	0 <exit>
    45e2:	f8df 3c30 	ldr.w	r3, [pc, #3120]	; 5214 <FUZ_test+0x4f80>
    45e6:	f240 128f 	movw	r2, #399	; 0x18f
    45ea:	f8df 1c2c 	ldr.w	r1, [pc, #3116]	; 5218 <FUZ_test+0x4f84>
    45ee:	f8df 0c2c 	ldr.w	r0, [pc, #3116]	; 521c <FUZ_test+0x4f88>
    45f2:	447b      	add	r3, pc
    45f4:	4479      	add	r1, pc
    45f6:	4478      	add	r0, pc
    45f8:	f7ff fffe 	bl	0 <__assert_fail>
    45fc:	f8df 1c20 	ldr.w	r1, [pc, #3104]	; 5220 <FUZ_test+0x4f8c>
    4600:	465a      	mov	r2, fp
    4602:	2001      	movs	r0, #1
    4604:	4479      	add	r1, pc
    4606:	f7ff fffe 	bl	0 <__printf_chk>
    460a:	f8df 1c18 	ldr.w	r1, [pc, #3096]	; 5224 <FUZ_test+0x4f90>
    460e:	2001      	movs	r0, #1
    4610:	4479      	add	r1, pc
    4612:	f7ff fffe 	bl	0 <__printf_chk>
    4616:	f8df 1c10 	ldr.w	r1, [pc, #3088]	; 5228 <FUZ_test+0x4f94>
    461a:	ee1a 3a10 	vmov	r3, s20
    461e:	ee1d 2a10 	vmov	r2, s26
    4622:	4479      	add	r1, pc
    4624:	2001      	movs	r0, #1
    4626:	f7ff fffe 	bl	0 <__printf_chk>
    462a:	2001      	movs	r0, #1
    462c:	f7ff fffe 	bl	0 <exit>
    4630:	f8df 1bf8 	ldr.w	r1, [pc, #3064]	; 522c <FUZ_test+0x4f98>
    4634:	2201      	movs	r2, #1
    4636:	4610      	mov	r0, r2
    4638:	4479      	add	r1, pc
    463a:	f7ff fffe 	bl	0 <__printf_chk>
    463e:	f8df 1bf0 	ldr.w	r1, [pc, #3056]	; 5230 <FUZ_test+0x4f9c>
    4642:	2001      	movs	r0, #1
    4644:	4479      	add	r1, pc
    4646:	f7ff fffe 	bl	0 <__printf_chk>
    464a:	f8df 1be8 	ldr.w	r1, [pc, #3048]	; 5234 <FUZ_test+0x4fa0>
    464e:	ee1a 3a10 	vmov	r3, s20
    4652:	ee1d 2a10 	vmov	r2, s26
    4656:	4479      	add	r1, pc
    4658:	2001      	movs	r0, #1
    465a:	f7ff fffe 	bl	0 <__printf_chk>
    465e:	2001      	movs	r0, #1
    4660:	f7ff fffe 	bl	0 <exit>
    4664:	f8df 1bd0 	ldr.w	r1, [pc, #3024]	; 5238 <FUZ_test+0x4fa4>
    4668:	2201      	movs	r2, #1
    466a:	4610      	mov	r0, r2
    466c:	4479      	add	r1, pc
    466e:	f7ff fffe 	bl	0 <__printf_chk>
    4672:	f8df 1bc8 	ldr.w	r1, [pc, #3016]	; 523c <FUZ_test+0x4fa8>
    4676:	2001      	movs	r0, #1
    4678:	4479      	add	r1, pc
    467a:	f7ff fffe 	bl	0 <__printf_chk>
    467e:	f8df 1bc0 	ldr.w	r1, [pc, #3008]	; 5240 <FUZ_test+0x4fac>
    4682:	ee1a 3a10 	vmov	r3, s20
    4686:	ee1d 2a10 	vmov	r2, s26
    468a:	4479      	add	r1, pc
    468c:	2001      	movs	r0, #1
    468e:	f7ff fffe 	bl	0 <__printf_chk>
    4692:	2001      	movs	r0, #1
    4694:	f7ff fffe 	bl	0 <exit>
    4698:	f8df 1ba8 	ldr.w	r1, [pc, #2984]	; 5244 <FUZ_test+0x4fb0>
    469c:	2201      	movs	r2, #1
    469e:	4610      	mov	r0, r2
    46a0:	4479      	add	r1, pc
    46a2:	f7ff fffe 	bl	0 <__printf_chk>
    46a6:	f8df 1ba0 	ldr.w	r1, [pc, #2976]	; 5248 <FUZ_test+0x4fb4>
    46aa:	2001      	movs	r0, #1
    46ac:	4479      	add	r1, pc
    46ae:	f7ff fffe 	bl	0 <__printf_chk>
    46b2:	f8df 1b98 	ldr.w	r1, [pc, #2968]	; 524c <FUZ_test+0x4fb8>
    46b6:	ee1a 3a10 	vmov	r3, s20
    46ba:	ee1d 2a10 	vmov	r2, s26
    46be:	4479      	add	r1, pc
    46c0:	2001      	movs	r0, #1
    46c2:	f7ff fffe 	bl	0 <__printf_chk>
    46c6:	2001      	movs	r0, #1
    46c8:	f7ff fffe 	bl	0 <exit>
    46cc:	f8df 1b80 	ldr.w	r1, [pc, #2944]	; 5250 <FUZ_test+0x4fbc>
    46d0:	4632      	mov	r2, r6
    46d2:	2001      	movs	r0, #1
    46d4:	4479      	add	r1, pc
    46d6:	f7ff fffe 	bl	0 <__printf_chk>
    46da:	f8df 1b78 	ldr.w	r1, [pc, #2936]	; 5254 <FUZ_test+0x4fc0>
    46de:	2001      	movs	r0, #1
    46e0:	4479      	add	r1, pc
    46e2:	f7ff fffe 	bl	0 <__printf_chk>
    46e6:	f8df 1b70 	ldr.w	r1, [pc, #2928]	; 5258 <FUZ_test+0x4fc4>
    46ea:	ee1a 3a10 	vmov	r3, s20
    46ee:	ee1d 2a10 	vmov	r2, s26
    46f2:	4479      	add	r1, pc
    46f4:	2001      	movs	r0, #1
    46f6:	f7ff fffe 	bl	0 <__printf_chk>
    46fa:	2001      	movs	r0, #1
    46fc:	f7ff fffe 	bl	0 <exit>
    4700:	f8df 1b58 	ldr.w	r1, [pc, #2904]	; 525c <FUZ_test+0x4fc8>
    4704:	4632      	mov	r2, r6
    4706:	2001      	movs	r0, #1
    4708:	4479      	add	r1, pc
    470a:	f7ff fffe 	bl	0 <__printf_chk>
    470e:	f8df 1b50 	ldr.w	r1, [pc, #2896]	; 5260 <FUZ_test+0x4fcc>
    4712:	2001      	movs	r0, #1
    4714:	4479      	add	r1, pc
    4716:	f7ff fffe 	bl	0 <__printf_chk>
    471a:	f8df 1b48 	ldr.w	r1, [pc, #2888]	; 5264 <FUZ_test+0x4fd0>
    471e:	ee1a 3a10 	vmov	r3, s20
    4722:	ee1d 2a10 	vmov	r2, s26
    4726:	4479      	add	r1, pc
    4728:	2001      	movs	r0, #1
    472a:	f7ff fffe 	bl	0 <__printf_chk>
    472e:	2001      	movs	r0, #1
    4730:	f7ff fffe 	bl	0 <exit>
    4734:	f8df 1b30 	ldr.w	r1, [pc, #2864]	; 5268 <FUZ_test+0x4fd4>
    4738:	4622      	mov	r2, r4
    473a:	2001      	movs	r0, #1
    473c:	4479      	add	r1, pc
    473e:	f7ff fffe 	bl	0 <__printf_chk>
    4742:	f8df 1b28 	ldr.w	r1, [pc, #2856]	; 526c <FUZ_test+0x4fd8>
    4746:	2001      	movs	r0, #1
    4748:	4479      	add	r1, pc
    474a:	f7ff fffe 	bl	0 <__printf_chk>
    474e:	f8df 1b20 	ldr.w	r1, [pc, #2848]	; 5270 <FUZ_test+0x4fdc>
    4752:	ee1a 3a10 	vmov	r3, s20
    4756:	ee1d 2a10 	vmov	r2, s26
    475a:	4479      	add	r1, pc
    475c:	2001      	movs	r0, #1
    475e:	f7ff fffe 	bl	0 <__printf_chk>
    4762:	2001      	movs	r0, #1
    4764:	f7ff fffe 	bl	0 <exit>
    4768:	f8df 1b08 	ldr.w	r1, [pc, #2824]	; 5274 <FUZ_test+0x4fe0>
    476c:	4622      	mov	r2, r4
    476e:	2001      	movs	r0, #1
    4770:	4479      	add	r1, pc
    4772:	f7ff fffe 	bl	0 <__printf_chk>
    4776:	f8df 1b00 	ldr.w	r1, [pc, #2816]	; 5278 <FUZ_test+0x4fe4>
    477a:	2001      	movs	r0, #1
    477c:	4479      	add	r1, pc
    477e:	f7ff fffe 	bl	0 <__printf_chk>
    4782:	f8df 1af8 	ldr.w	r1, [pc, #2808]	; 527c <FUZ_test+0x4fe8>
    4786:	ee1a 3a10 	vmov	r3, s20
    478a:	ee1d 2a10 	vmov	r2, s26
    478e:	4479      	add	r1, pc
    4790:	2001      	movs	r0, #1
    4792:	f7ff fffe 	bl	0 <__printf_chk>
    4796:	2001      	movs	r0, #1
    4798:	f7ff fffe 	bl	0 <exit>
    479c:	f8df 1ae0 	ldr.w	r1, [pc, #2784]	; 5280 <FUZ_test+0x4fec>
    47a0:	4622      	mov	r2, r4
    47a2:	2001      	movs	r0, #1
    47a4:	4479      	add	r1, pc
    47a6:	f7ff fffe 	bl	0 <__printf_chk>
    47aa:	f8df 1ad8 	ldr.w	r1, [pc, #2776]	; 5284 <FUZ_test+0x4ff0>
    47ae:	2001      	movs	r0, #1
