
/root/projects/compiled/non_crypto/unstripped/r-lib_zip.git_miniz_eb1b6ba9.o:     file format elf32-littlearm


Disassembly of section .text:

00000000 <tdefl_calculate_minimum_redundancy>:
       0:	2900      	cmp	r1, #0
       2:	f000 80a0 	beq.w	146 <tdefl_calculate_minimum_redundancy+0x146>
       6:	2901      	cmp	r1, #1
       8:	f000 809e 	beq.w	148 <tdefl_calculate_minimum_redundancy+0x148>
       c:	e92d 41f0 	stmdb	sp!, {r4, r5, r6, r7, r8, lr}
      10:	1e4e      	subs	r6, r1, #1
      12:	8807      	ldrh	r7, [r0, #0]
      14:	8883      	ldrh	r3, [r0, #4]
      16:	2e01      	cmp	r6, #1
      18:	441f      	add	r7, r3
      1a:	b2bf      	uxth	r7, r7
      1c:	8007      	strh	r7, [r0, #0]
      1e:	dd38      	ble.n	92 <tdefl_calculate_minimum_redundancy+0x92>
      20:	2301      	movs	r3, #1
      22:	2502      	movs	r5, #2
      24:	2200      	movs	r2, #0
      26:	e00e      	b.n	46 <tdefl_calculate_minimum_redundancy+0x46>
      28:	f830 7022 	ldrh.w	r7, [r0, r2, lsl #2]
      2c:	eb00 0c82 	add.w	ip, r0, r2, lsl #2
      30:	443c      	add	r4, r7
      32:	f820 4023 	strh.w	r4, [r0, r3, lsl #2]
      36:	f8ac 3000 	strh.w	r3, [ip]
      3a:	3301      	adds	r3, #1
      3c:	3201      	adds	r2, #1
      3e:	42b3      	cmp	r3, r6
      40:	d027      	beq.n	92 <tdefl_calculate_minimum_redundancy+0x92>
      42:	f830 7022 	ldrh.w	r7, [r0, r2, lsl #2]
      46:	ea4f 0c82 	mov.w	ip, r2, lsl #2
      4a:	42a9      	cmp	r1, r5
      4c:	dd07      	ble.n	5e <tdefl_calculate_minimum_redundancy+0x5e>
      4e:	f830 4025 	ldrh.w	r4, [r0, r5, lsl #2]
      52:	42bc      	cmp	r4, r7
      54:	bf9c      	itt	ls
      56:	f820 4023 	strhls.w	r4, [r0, r3, lsl #2]
      5a:	3501      	addls	r5, #1
      5c:	d906      	bls.n	6c <tdefl_calculate_minimum_redundancy+0x6c>
      5e:	f820 7023 	strh.w	r7, [r0, r3, lsl #2]
      62:	3201      	adds	r2, #1
      64:	f820 300c 	strh.w	r3, [r0, ip]
      68:	f830 4023 	ldrh.w	r4, [r0, r3, lsl #2]
      6c:	428d      	cmp	r5, r1
      6e:	dadb      	bge.n	28 <tdefl_calculate_minimum_redundancy+0x28>
      70:	f830 e025 	ldrh.w	lr, [r0, r5, lsl #2]
      74:	429a      	cmp	r2, r3
      76:	da05      	bge.n	84 <tdefl_calculate_minimum_redundancy+0x84>
      78:	f830 7022 	ldrh.w	r7, [r0, r2, lsl #2]
      7c:	eb00 0c82 	add.w	ip, r0, r2, lsl #2
      80:	4577      	cmp	r7, lr
      82:	d3d5      	bcc.n	30 <tdefl_calculate_minimum_redundancy+0x30>
      84:	4474      	add	r4, lr
      86:	f820 4023 	strh.w	r4, [r0, r3, lsl #2]
      8a:	3301      	adds	r3, #1
      8c:	3501      	adds	r5, #1
      8e:	42b3      	cmp	r3, r6
      90:	d1d7      	bne.n	42 <tdefl_calculate_minimum_redundancy+0x42>
      92:	f101 4280 	add.w	r2, r1, #1073741824	; 0x40000000
      96:	2902      	cmp	r1, #2
      98:	f1a2 0202 	sub.w	r2, r2, #2
      9c:	f04f 0400 	mov.w	r4, #0
      a0:	ea4f 0382 	mov.w	r3, r2, lsl #2
      a4:	bfc8      	it	gt
      a6:	3308      	addgt	r3, #8
      a8:	f820 4022 	strh.w	r4, [r0, r2, lsl #2]
      ac:	bfc4      	itt	gt
      ae:	181b      	addgt	r3, r3, r0
      b0:	f100 0408 	addgt.w	r4, r0, #8
      b4:	dd0a      	ble.n	cc <tdefl_calculate_minimum_redundancy+0xcc>
      b6:	f833 2c0c 	ldrh.w	r2, [r3, #-12]
      ba:	3b04      	subs	r3, #4
      bc:	42a3      	cmp	r3, r4
      be:	f830 2022 	ldrh.w	r2, [r0, r2, lsl #2]
      c2:	f102 0201 	add.w	r2, r2, #1
      c6:	f823 2c08 	strh.w	r2, [r3, #-8]
      ca:	d1f4      	bne.n	b6 <tdefl_calculate_minimum_redundancy+0xb6>
      cc:	3902      	subs	r1, #2
      ce:	f04f 0e00 	mov.w	lr, #0
      d2:	2900      	cmp	r1, #0
      d4:	f04f 0801 	mov.w	r8, #1
      d8:	bfa4      	itt	ge
      da:	460b      	movge	r3, r1
      dc:	2400      	movge	r4, #0
      de:	da04      	bge.n	ea <tdefl_calculate_minimum_redundancy+0xea>
      e0:	e024      	b.n	12c <tdefl_calculate_minimum_redundancy+0x12c>
      e2:	3b01      	subs	r3, #1
      e4:	3401      	adds	r4, #1
      e6:	1c5a      	adds	r2, r3, #1
      e8:	d003      	beq.n	f2 <tdefl_calculate_minimum_redundancy+0xf2>
      ea:	f830 2023 	ldrh.w	r2, [r0, r3, lsl #2]
      ee:	4572      	cmp	r2, lr
      f0:	d0f7      	beq.n	e2 <tdefl_calculate_minimum_redundancy+0xe2>
      f2:	0067      	lsls	r7, r4, #1
      f4:	4544      	cmp	r4, r8
      f6:	da20      	bge.n	13a <tdefl_calculate_minimum_redundancy+0x13a>
      f8:	eba6 0c08 	sub.w	ip, r6, r8
      fc:	fa1f f58e 	uxth.w	r5, lr
     100:	44a4      	add	ip, r4
     102:	4632      	mov	r2, r6
     104:	f820 5022 	strh.w	r5, [r0, r2, lsl #2]
     108:	3a01      	subs	r2, #1
     10a:	4562      	cmp	r2, ip
     10c:	d1fa      	bne.n	104 <tdefl_calculate_minimum_redundancy+0x104>
     10e:	eba4 0808 	sub.w	r8, r4, r8
     112:	f10e 0e01 	add.w	lr, lr, #1
     116:	4446      	add	r6, r8
     118:	b19c      	cbz	r4, 142 <tdefl_calculate_minimum_redundancy+0x142>
     11a:	2900      	cmp	r1, #0
     11c:	db16      	blt.n	14c <tdefl_calculate_minimum_redundancy+0x14c>
     11e:	4619      	mov	r1, r3
     120:	46b8      	mov	r8, r7
     122:	2900      	cmp	r1, #0
     124:	bfa4      	itt	ge
     126:	460b      	movge	r3, r1
     128:	2400      	movge	r4, #0
     12a:	dade      	bge.n	ea <tdefl_calculate_minimum_redundancy+0xea>
     12c:	f1b8 0f00 	cmp.w	r8, #0
     130:	d007      	beq.n	142 <tdefl_calculate_minimum_redundancy+0x142>
     132:	2700      	movs	r7, #0
     134:	460b      	mov	r3, r1
     136:	463c      	mov	r4, r7
     138:	e7de      	b.n	f8 <tdefl_calculate_minimum_redundancy+0xf8>
     13a:	f10e 0e01 	add.w	lr, lr, #1
     13e:	2c00      	cmp	r4, #0
     140:	d1ed      	bne.n	11e <tdefl_calculate_minimum_redundancy+0x11e>
     142:	e8bd 81f0 	ldmia.w	sp!, {r4, r5, r6, r7, r8, pc}
     146:	4770      	bx	lr
     148:	8001      	strh	r1, [r0, #0]
     14a:	4770      	bx	lr
     14c:	2f00      	cmp	r7, #0
     14e:	d0f8      	beq.n	142 <tdefl_calculate_minimum_redundancy+0x142>
     150:	1bf6      	subs	r6, r6, r7
     152:	fa1f fe8e 	uxth.w	lr, lr
     156:	eb00 0086 	add.w	r0, r0, r6, lsl #2
     15a:	f820 e027 	strh.w	lr, [r0, r7, lsl #2]
     15e:	3f01      	subs	r7, #1
     160:	d1fb      	bne.n	15a <tdefl_calculate_minimum_redundancy+0x15a>
     162:	e7ee      	b.n	142 <tdefl_calculate_minimum_redundancy+0x142>

00000164 <mz_zip_writer_create_zip64_extra_data>:
     164:	b510      	push	{r4, lr}
     166:	f100 0c04 	add.w	ip, r0, #4
     16a:	2401      	movs	r4, #1
     16c:	6004      	str	r4, [r0, #0]
     16e:	2408      	movs	r4, #8
     170:	b1a9      	cbz	r1, 19e <mz_zip_writer_create_zip64_extra_data+0x3a>
     172:	e9d1 1400 	ldrd	r1, r4, [r1]
     176:	6041      	str	r1, [r0, #4]
     178:	2100      	movs	r1, #0
     17a:	ea4f 2c14 	mov.w	ip, r4, lsr #8
     17e:	f364 0107 	bfi	r1, r4, #0, #8
     182:	f36c 210f 	bfi	r1, ip, #8, #8
     186:	ea4f 4c14 	mov.w	ip, r4, lsr #16
     18a:	0e24      	lsrs	r4, r4, #24
     18c:	f36c 4117 	bfi	r1, ip, #16, #8
     190:	f100 0c0c 	add.w	ip, r0, #12
     194:	f364 611f 	bfi	r1, r4, #24, #8
     198:	2410      	movs	r4, #16
     19a:	6081      	str	r1, [r0, #8]
     19c:	2108      	movs	r1, #8
     19e:	b38a      	cbz	r2, 204 <mz_zip_writer_create_zip64_extra_data+0xa0>
     1a0:	e9d2 2100 	ldrd	r2, r1, [r2]
     1a4:	f8cc 2000 	str.w	r2, [ip]
     1a8:	2200      	movs	r2, #0
     1aa:	f10c 0c08 	add.w	ip, ip, #8
     1ae:	ea4f 2e11 	mov.w	lr, r1, lsr #8
     1b2:	f361 0207 	bfi	r2, r1, #0, #8
     1b6:	f36e 220f 	bfi	r2, lr, #8, #8
     1ba:	ea4f 4e11 	mov.w	lr, r1, lsr #16
     1be:	0e09      	lsrs	r1, r1, #24
     1c0:	f36e 4217 	bfi	r2, lr, #16, #8
     1c4:	f361 621f 	bfi	r2, r1, #24, #8
     1c8:	f84c 2c04 	str.w	r2, [ip, #-4]
     1cc:	b1a3      	cbz	r3, 1f8 <mz_zip_writer_create_zip64_extra_data+0x94>
     1ce:	e9d3 3200 	ldrd	r3, r2, [r3]
     1d2:	f8cc 3000 	str.w	r3, [ip]
     1d6:	2300      	movs	r3, #0
     1d8:	3408      	adds	r4, #8
     1da:	f10c 0c08 	add.w	ip, ip, #8
     1de:	0a11      	lsrs	r1, r2, #8
     1e0:	f362 0307 	bfi	r3, r2, #0, #8
     1e4:	f361 230f 	bfi	r3, r1, #8, #8
     1e8:	0c11      	lsrs	r1, r2, #16
     1ea:	0e12      	lsrs	r2, r2, #24
     1ec:	f361 4317 	bfi	r3, r1, #16, #8
     1f0:	f362 631f 	bfi	r3, r2, #24, #8
     1f4:	f84c 3c04 	str.w	r3, [ip, #-4]
     1f8:	2300      	movs	r3, #0
     1fa:	7084      	strb	r4, [r0, #2]
     1fc:	70c3      	strb	r3, [r0, #3]
     1fe:	ebac 0000 	sub.w	r0, ip, r0
     202:	bd10      	pop	{r4, pc}
     204:	460c      	mov	r4, r1
     206:	e7e1      	b.n	1cc <mz_zip_writer_create_zip64_extra_data+0x68>

00000208 <miniz_def_free_func>:
     208:	4608      	mov	r0, r1
     20a:	f7ff bffe 	b.w	0 <free>
     20e:	bf00      	nop

00000210 <miniz_def_alloc_func>:
     210:	fb02 f001 	mul.w	r0, r2, r1
     214:	f7ff bffe 	b.w	0 <malloc>

00000218 <miniz_def_realloc_func>:
     218:	4608      	mov	r0, r1
     21a:	fb03 f102 	mul.w	r1, r3, r2
     21e:	f7ff bffe 	b.w	0 <realloc>
     222:	bf00      	nop

00000224 <mz_zip_writer_write_zeros>:
     224:	e92d 43f0 	stmdb	sp!, {r4, r5, r6, r7, r8, r9, lr}
     228:	4614      	mov	r4, r2
     22a:	4a29      	ldr	r2, [pc, #164]	; (2d0 <mz_zip_writer_write_zeros+0xac>)
     22c:	f5ad 5d80 	sub.w	sp, sp, #4096	; 0x1000
     230:	461e      	mov	r6, r3
     232:	b085      	sub	sp, #20
     234:	4b27      	ldr	r3, [pc, #156]	; (2d4 <mz_zip_writer_write_zeros+0xb0>)
     236:	f50d 5181 	add.w	r1, sp, #4128	; 0x1020
     23a:	447a      	add	r2, pc
     23c:	3110      	adds	r1, #16
     23e:	f10d 090c 	add.w	r9, sp, #12
     242:	4680      	mov	r8, r0
     244:	4648      	mov	r0, r9
     246:	680d      	ldr	r5, [r1, #0]
     248:	f50d 5180 	add.w	r1, sp, #4096	; 0x1000
     24c:	58d3      	ldr	r3, [r2, r3]
     24e:	310c      	adds	r1, #12
     250:	462a      	mov	r2, r5
     252:	681b      	ldr	r3, [r3, #0]
     254:	600b      	str	r3, [r1, #0]
     256:	f04f 0300 	mov.w	r3, #0
     25a:	f44f 5380 	mov.w	r3, #4096	; 0x1000
     25e:	429d      	cmp	r5, r3
     260:	f04f 0100 	mov.w	r1, #0
     264:	bf28      	it	cs
     266:	461a      	movcs	r2, r3
     268:	f7ff fffe 	bl	0 <__memset_chk>
     26c:	b92d      	cbnz	r5, 27a <mz_zip_writer_write_zeros+0x56>
     26e:	e01a      	b.n	2a6 <mz_zip_writer_write_zeros+0x82>
     270:	1904      	adds	r4, r0, r4
     272:	f146 0600 	adc.w	r6, r6, #0
     276:	1a2d      	subs	r5, r5, r0
     278:	d015      	beq.n	2a6 <mz_zip_writer_write_zeros+0x82>
     27a:	f5b5 5f80 	cmp.w	r5, #4096	; 0x1000
     27e:	462f      	mov	r7, r5
     280:	f8d8 103c 	ldr.w	r1, [r8, #60]	; 0x3c
     284:	bf28      	it	cs
     286:	f44f 5780 	movcs.w	r7, #4096	; 0x1000
     28a:	f8d8 0044 	ldr.w	r0, [r8, #68]	; 0x44
     28e:	4622      	mov	r2, r4
     290:	4633      	mov	r3, r6
     292:	e9cd 9700 	strd	r9, r7, [sp]
     296:	4788      	blx	r1
     298:	42b8      	cmp	r0, r7
     29a:	d0e9      	beq.n	270 <mz_zip_writer_write_zeros+0x4c>
     29c:	2313      	movs	r3, #19
     29e:	2000      	movs	r0, #0
     2a0:	f8c8 301c 	str.w	r3, [r8, #28]
     2a4:	e000      	b.n	2a8 <mz_zip_writer_write_zeros+0x84>
     2a6:	2001      	movs	r0, #1
     2a8:	4a0b      	ldr	r2, [pc, #44]	; (2d8 <mz_zip_writer_write_zeros+0xb4>)
     2aa:	f50d 5180 	add.w	r1, sp, #4096	; 0x1000
     2ae:	4b09      	ldr	r3, [pc, #36]	; (2d4 <mz_zip_writer_write_zeros+0xb0>)
     2b0:	310c      	adds	r1, #12
     2b2:	447a      	add	r2, pc
     2b4:	58d3      	ldr	r3, [r2, r3]
     2b6:	681a      	ldr	r2, [r3, #0]
     2b8:	680b      	ldr	r3, [r1, #0]
     2ba:	405a      	eors	r2, r3
     2bc:	f04f 0300 	mov.w	r3, #0
     2c0:	d104      	bne.n	2cc <mz_zip_writer_write_zeros+0xa8>
     2c2:	f50d 5d80 	add.w	sp, sp, #4096	; 0x1000
     2c6:	b005      	add	sp, #20
     2c8:	e8bd 83f0 	ldmia.w	sp!, {r4, r5, r6, r7, r8, r9, pc}
     2cc:	f7ff fffe 	bl	0 <__stack_chk_fail>
     2d0:	00000092 	.word	0x00000092
     2d4:	00000000 	.word	0x00000000
     2d8:	00000022 	.word	0x00000022

000002dc <tdefl_flush_output_buffer>:
     2dc:	6f82      	ldr	r2, [r0, #120]	; 0x78
     2de:	b538      	push	{r3, r4, r5, lr}
     2e0:	4604      	mov	r4, r0
     2e2:	b122      	cbz	r2, 2ee <tdefl_flush_output_buffer+0x12>
     2e4:	f8d0 3084 	ldr.w	r3, [r0, #132]	; 0x84
     2e8:	6f01      	ldr	r1, [r0, #112]	; 0x70
     2ea:	1a5b      	subs	r3, r3, r1
     2ec:	6013      	str	r3, [r2, #0]
     2ee:	6fe3      	ldr	r3, [r4, #124]	; 0x7c
     2f0:	b1fb      	cbz	r3, 332 <tdefl_flush_output_buffer+0x56>
     2f2:	f8d4 208c 	ldr.w	r2, [r4, #140]	; 0x8c
     2f6:	681d      	ldr	r5, [r3, #0]
     2f8:	6de3      	ldr	r3, [r4, #92]	; 0x5c
     2fa:	1aad      	subs	r5, r5, r2
     2fc:	6f60      	ldr	r0, [r4, #116]	; 0x74
     2fe:	429d      	cmp	r5, r3
     300:	6da1      	ldr	r1, [r4, #88]	; 0x58
     302:	bf28      	it	cs
     304:	461d      	movcs	r5, r3
     306:	f504 3364 	add.w	r3, r4, #233472	; 0x39000
     30a:	f203 2372 	addw	r3, r3, #626	; 0x272
     30e:	4410      	add	r0, r2
     310:	4419      	add	r1, r3
     312:	462a      	mov	r2, r5
     314:	f7ff fffe 	bl	0 <memcpy>
     318:	6fe1      	ldr	r1, [r4, #124]	; 0x7c
     31a:	e9d4 2316 	ldrd	r2, r3, [r4, #88]	; 0x58
     31e:	1b5b      	subs	r3, r3, r5
     320:	442a      	add	r2, r5
     322:	e9c4 2316 	strd	r2, r3, [r4, #88]	; 0x58
     326:	f8d4 308c 	ldr.w	r3, [r4, #140]	; 0x8c
     32a:	441d      	add	r5, r3
     32c:	f8c4 508c 	str.w	r5, [r4, #140]	; 0x8c
     330:	600d      	str	r5, [r1, #0]
     332:	6e20      	ldr	r0, [r4, #96]	; 0x60
     334:	b118      	cbz	r0, 33e <tdefl_flush_output_buffer+0x62>
     336:	6de0      	ldr	r0, [r4, #92]	; 0x5c
     338:	fab0 f080 	clz	r0, r0
     33c:	0940      	lsrs	r0, r0, #5
     33e:	bd38      	pop	{r3, r4, r5, pc}

00000340 <mz_zip_mem_read_func>:
     340:	4611      	mov	r1, r2
     342:	b510      	push	{r4, lr}
     344:	e9d0 2400 	ldrd	r2, r4, [r0]
     348:	4291      	cmp	r1, r2
     34a:	eb73 0c04 	sbcs.w	ip, r3, r4
     34e:	bf28      	it	cs
     350:	2400      	movcs	r4, #0
     352:	d209      	bcs.n	368 <mz_zip_mem_read_func+0x28>
     354:	1a52      	subs	r2, r2, r1
     356:	eb64 0403 	sbc.w	r4, r4, r3
     35a:	9b03      	ldr	r3, [sp, #12]
     35c:	429a      	cmp	r2, r3
     35e:	f174 0400 	sbcs.w	r4, r4, #0
     362:	bf34      	ite	cc
     364:	4614      	movcc	r4, r2
     366:	461c      	movcs	r4, r3
     368:	6c83      	ldr	r3, [r0, #72]	; 0x48
     36a:	4622      	mov	r2, r4
     36c:	9802      	ldr	r0, [sp, #8]
     36e:	6c9b      	ldr	r3, [r3, #72]	; 0x48
     370:	4419      	add	r1, r3
     372:	f7ff fffe 	bl	0 <memcpy>
     376:	4620      	mov	r0, r4
     378:	bd10      	pop	{r4, pc}
     37a:	bf00      	nop

0000037c <mz_zip_heap_write_func>:
     37c:	e92d 47f0 	stmdb	sp!, {r4, r5, r6, r7, r8, r9, sl, lr}
     380:	9e09      	ldr	r6, [sp, #36]	; 0x24
     382:	2e00      	cmp	r6, #0
     384:	d043      	beq.n	40e <mz_zip_heap_write_func+0x92>
     386:	f8d0 9048 	ldr.w	r9, [r0, #72]	; 0x48
     38a:	4692      	mov	sl, r2
     38c:	18b2      	adds	r2, r6, r2
     38e:	f04f 0c00 	mov.w	ip, #0
     392:	f143 0300 	adc.w	r3, r3, #0
     396:	4680      	mov	r8, r0
     398:	f8d9 504c 	ldr.w	r5, [r9, #76]	; 0x4c
     39c:	4295      	cmp	r5, r2
     39e:	eb7c 0103 	sbcs.w	r1, ip, r3
     3a2:	bf3c      	itt	cc
     3a4:	4615      	movcc	r5, r2
     3a6:	469c      	movcc	ip, r3
     3a8:	f1b5 4f00 	cmp.w	r5, #2147483648	; 0x80000000
     3ac:	f17c 0300 	sbcs.w	r3, ip, #0
     3b0:	bf22      	ittt	cs
     3b2:	2303      	movcs	r3, #3
     3b4:	2600      	movcs	r6, #0
     3b6:	61c3      	strcs	r3, [r0, #28]
     3b8:	d229      	bcs.n	40e <mz_zip_heap_write_func+0x92>
     3ba:	f8d9 4050 	ldr.w	r4, [r9, #80]	; 0x50
     3be:	2300      	movs	r3, #0
     3c0:	f8d9 1048 	ldr.w	r1, [r9, #72]	; 0x48
     3c4:	42ac      	cmp	r4, r5
     3c6:	eb73 020c 	sbcs.w	r2, r3, ip
     3ca:	d218      	bcs.n	3fe <mz_zip_heap_write_func+0x82>
     3cc:	2c40      	cmp	r4, #64	; 0x40
     3ce:	bf38      	it	cc
     3d0:	2440      	movcc	r4, #64	; 0x40
     3d2:	42ac      	cmp	r4, r5
     3d4:	eb73 020c 	sbcs.w	r2, r3, ip
     3d8:	d204      	bcs.n	3e4 <mz_zip_heap_write_func+0x68>
     3da:	0064      	lsls	r4, r4, #1
     3dc:	42ac      	cmp	r4, r5
     3de:	eb73 020c 	sbcs.w	r2, r3, ip
     3e2:	d3fa      	bcc.n	3da <mz_zip_heap_write_func+0x5e>
     3e4:	f8d8 0034 	ldr.w	r0, [r8, #52]	; 0x34
     3e8:	4623      	mov	r3, r4
     3ea:	f8d8 7030 	ldr.w	r7, [r8, #48]	; 0x30
     3ee:	2201      	movs	r2, #1
     3f0:	47b8      	blx	r7
     3f2:	4601      	mov	r1, r0
     3f4:	b170      	cbz	r0, 414 <mz_zip_heap_write_func+0x98>
     3f6:	f8c9 4050 	str.w	r4, [r9, #80]	; 0x50
     3fa:	f8c9 0048 	str.w	r0, [r9, #72]	; 0x48
     3fe:	eb01 000a 	add.w	r0, r1, sl
     402:	4632      	mov	r2, r6
     404:	9908      	ldr	r1, [sp, #32]
     406:	f7ff fffe 	bl	0 <memcpy>
     40a:	f8c9 504c 	str.w	r5, [r9, #76]	; 0x4c
     40e:	4630      	mov	r0, r6
     410:	e8bd 87f0 	ldmia.w	sp!, {r4, r5, r6, r7, r8, r9, sl, pc}
     414:	2310      	movs	r3, #16
     416:	4606      	mov	r6, r0
     418:	f8c8 301c 	str.w	r3, [r8, #28]
     41c:	e7f7      	b.n	40e <mz_zip_heap_write_func+0x92>
     41e:	bf00      	nop

00000420 <tdefl_output_buffer_putter>:
     420:	e92d 41f0 	stmdb	sp!, {r4, r5, r6, r7, r8, lr}
     424:	4680      	mov	r8, r0
     426:	6810      	ldr	r0, [r2, #0]
     428:	6854      	ldr	r4, [r2, #4]
     42a:	4615      	mov	r5, r2
     42c:	1846      	adds	r6, r0, r1
     42e:	460f      	mov	r7, r1
     430:	42b4      	cmp	r4, r6
     432:	bf28      	it	cs
     434:	6893      	ldrcs	r3, [r2, #8]
     436:	d210      	bcs.n	45a <tdefl_output_buffer_putter+0x3a>
     438:	68d3      	ldr	r3, [r2, #12]
     43a:	b1bb      	cbz	r3, 46c <tdefl_output_buffer_putter+0x4c>
     43c:	0064      	lsls	r4, r4, #1
     43e:	2c80      	cmp	r4, #128	; 0x80
     440:	bf38      	it	cc
     442:	2480      	movcc	r4, #128	; 0x80
     444:	42a6      	cmp	r6, r4
     446:	d8f9      	bhi.n	43c <tdefl_output_buffer_putter+0x1c>
     448:	68a8      	ldr	r0, [r5, #8]
     44a:	4621      	mov	r1, r4
     44c:	f7ff fffe 	bl	0 <realloc>
     450:	4603      	mov	r3, r0
     452:	b158      	cbz	r0, 46c <tdefl_output_buffer_putter+0x4c>
     454:	e9c5 4001 	strd	r4, r0, [r5, #4]
     458:	6828      	ldr	r0, [r5, #0]
     45a:	4418      	add	r0, r3
     45c:	463a      	mov	r2, r7
     45e:	4641      	mov	r1, r8
     460:	f7ff fffe 	bl	0 <memcpy>
     464:	2001      	movs	r0, #1
     466:	602e      	str	r6, [r5, #0]
     468:	e8bd 81f0 	ldmia.w	sp!, {r4, r5, r6, r7, r8, pc}
     46c:	2000      	movs	r0, #0
     46e:	e8bd 81f0 	ldmia.w	sp!, {r4, r5, r6, r7, r8, pc}
     472:	bf00      	nop

00000474 <tdefl_compress_lz_codes>:
     474:	e92d 4ff0 	stmdb	sp!, {r4, r5, r6, r7, r8, r9, sl, fp, lr}
     478:	f500 4c12 	add.w	ip, r0, #37376	; 0x9200
     47c:	f8d0 a028 	ldr.w	sl, [r0, #40]	; 0x28
     480:	f10c 0c72 	add.w	ip, ip, #114	; 0x72
     484:	b085      	sub	sp, #20
     486:	45d4      	cmp	ip, sl
     488:	f080 80ec 	bcs.w	664 <tdefl_compress_lz_codes+0x1f0>
     48c:	f8df 3408 	ldr.w	r3, [pc, #1032]	; 898 <tdefl_compress_lz_codes+0x424>
     490:	f04f 0e01 	mov.w	lr, #1
     494:	f8df 8404 	ldr.w	r8, [pc, #1028]	; 89c <tdefl_compress_lz_codes+0x428>
     498:	f244 4728 	movw	r7, #17448	; 0x4428
     49c:	447b      	add	r3, pc
     49e:	9301      	str	r3, [sp, #4]
     4a0:	4bff      	ldr	r3, [pc, #1020]	; (8a0 <tdefl_compress_lz_codes+0x42c>)
     4a2:	44f8      	add	r8, pc
     4a4:	4cff      	ldr	r4, [pc, #1020]	; (8a4 <tdefl_compress_lz_codes+0x430>)
     4a6:	447b      	add	r3, pc
     4a8:	9302      	str	r3, [sp, #8]
     4aa:	4bff      	ldr	r3, [pc, #1020]	; (8a8 <tdefl_compress_lz_codes+0x434>)
     4ac:	447c      	add	r4, pc
     4ae:	447b      	add	r3, pc
     4b0:	9303      	str	r3, [sp, #12]
     4b2:	4673      	mov	r3, lr
     4b4:	f1be 0f01 	cmp.w	lr, #1
     4b8:	f89c 2000 	ldrb.w	r2, [ip]
     4bc:	bf04      	itt	eq
     4be:	f10c 0c01 	addeq.w	ip, ip, #1
     4c2:	f442 7e80 	orreq.w	lr, r2, #256	; 0x100
     4c6:	f01e 0f01 	tst.w	lr, #1
     4ca:	f89c b000 	ldrb.w	fp, [ip]
     4ce:	f000 812f 	beq.w	730 <tdefl_compress_lz_codes+0x2bc>
     4d2:	f838 101b 	ldrh.w	r1, [r8, fp, lsl #1]
     4d6:	f648 7512 	movw	r5, #36626	; 0x8f12
     4da:	f8bc 9001 	ldrh.w	r9, [ip, #1]
     4de:	f10c 0c03 	add.w	ip, ip, #3
     4e2:	1842      	adds	r2, r0, r1
     4e4:	5d52      	ldrb	r2, [r2, r5]
     4e6:	2a00      	cmp	r2, #0
     4e8:	f000 8171 	beq.w	7ce <tdefl_compress_lz_codes+0x35a>
     4ec:	4439      	add	r1, r7
     4ee:	fa03 f502 	lsl.w	r5, r3, r2
     4f2:	3d01      	subs	r5, #1
     4f4:	eb00 0141 	add.w	r1, r0, r1, lsl #1
     4f8:	8849      	ldrh	r1, [r1, #2]
     4fa:	428d      	cmp	r5, r1
     4fc:	f0c0 81c2 	bcc.w	884 <tdefl_compress_lz_codes+0x410>
     500:	6c45      	ldr	r5, [r0, #68]	; 0x44
     502:	442a      	add	r2, r5
     504:	6442      	str	r2, [r0, #68]	; 0x44
     506:	40a9      	lsls	r1, r5
     508:	6c85      	ldr	r5, [r0, #72]	; 0x48
     50a:	2a07      	cmp	r2, #7
     50c:	ea41 0105 	orr.w	r1, r1, r5
     510:	6481      	str	r1, [r0, #72]	; 0x48
     512:	d910      	bls.n	536 <tdefl_compress_lz_codes+0xc2>
     514:	e9d0 560c 	ldrd	r5, r6, [r0, #48]	; 0x30
     518:	42b5      	cmp	r5, r6
     51a:	f080 80d3 	bcs.w	6c4 <tdefl_compress_lz_codes+0x250>
     51e:	1c6a      	adds	r2, r5, #1
     520:	6302      	str	r2, [r0, #48]	; 0x30
     522:	7029      	strb	r1, [r5, #0]
     524:	6c42      	ldr	r2, [r0, #68]	; 0x44
     526:	6c81      	ldr	r1, [r0, #72]	; 0x48
     528:	3a08      	subs	r2, #8
     52a:	6442      	str	r2, [r0, #68]	; 0x44
     52c:	2a07      	cmp	r2, #7
     52e:	ea4f 2111 	mov.w	r1, r1, lsr #8
     532:	6481      	str	r1, [r0, #72]	; 0x48
     534:	d8ee      	bhi.n	514 <tdefl_compress_lz_codes+0xa0>
     536:	eb04 050b 	add.w	r5, r4, fp
     53a:	f895 5218 	ldrb.w	r5, [r5, #536]	; 0x218
     53e:	eb04 0a85 	add.w	sl, r4, r5, lsl #2
     542:	f8da a318 	ldr.w	sl, [sl, #792]	; 0x318
     546:	ea0b 0a0a 	and.w	sl, fp, sl
     54a:	fa03 fb05 	lsl.w	fp, r3, r5
     54e:	f10b 3bff 	add.w	fp, fp, #4294967295	; 0xffffffff
     552:	45d3      	cmp	fp, sl
     554:	f0c0 818c 	bcc.w	870 <tdefl_compress_lz_codes+0x3fc>
     558:	fa0a fa02 	lsl.w	sl, sl, r2
     55c:	442a      	add	r2, r5
     55e:	ea4a 0101 	orr.w	r1, sl, r1
     562:	2a07      	cmp	r2, #7
     564:	e9c0 2111 	strd	r2, r1, [r0, #68]	; 0x44
     568:	d910      	bls.n	58c <tdefl_compress_lz_codes+0x118>
     56a:	e9d0 560c 	ldrd	r5, r6, [r0, #48]	; 0x30
     56e:	42b5      	cmp	r5, r6
     570:	f080 80b6 	bcs.w	6e0 <tdefl_compress_lz_codes+0x26c>
     574:	1c6a      	adds	r2, r5, #1
     576:	6302      	str	r2, [r0, #48]	; 0x30
     578:	7029      	strb	r1, [r5, #0]
     57a:	6c42      	ldr	r2, [r0, #68]	; 0x44
     57c:	6c81      	ldr	r1, [r0, #72]	; 0x48
     57e:	3a08      	subs	r2, #8
     580:	6442      	str	r2, [r0, #68]	; 0x44
     582:	2a07      	cmp	r2, #7
     584:	ea4f 2111 	mov.w	r1, r1, lsr #8
     588:	6481      	str	r1, [r0, #72]	; 0x48
     58a:	d8ee      	bhi.n	56a <tdefl_compress_lz_codes+0xf6>
     58c:	f5b9 7f00 	cmp.w	r9, #512	; 0x200
     590:	f249 0632 	movw	r6, #36914	; 0x9032
     594:	bf2b      	itete	cs
     596:	9902      	ldrcs	r1, [sp, #8]
     598:	9903      	ldrcc	r1, [sp, #12]
     59a:	eb01 2519 	addcs.w	r5, r1, r9, lsr #8
     59e:	eb01 0509 	addcc.w	r5, r1, r9
     5a2:	bf2d      	iteet	cs
     5a4:	f895 175c 	ldrbcs.w	r1, [r5, #1884]	; 0x75c
     5a8:	f895 135c 	ldrbcc.w	r1, [r5, #860]	; 0x35c
     5ac:	f895 a55c 	ldrbcc.w	sl, [r5, #1372]	; 0x55c
     5b0:	f895 a7dc 	ldrbcs.w	sl, [r5, #2012]	; 0x7dc
     5b4:	1845      	adds	r5, r0, r1
     5b6:	5dad      	ldrb	r5, [r5, r6]
     5b8:	2d00      	cmp	r5, #0
     5ba:	f000 814d 	beq.w	858 <tdefl_compress_lz_codes+0x3e4>
     5be:	f501 418a 	add.w	r1, r1, #17664	; 0x4500
     5c2:	fa03 fb05 	lsl.w	fp, r3, r5
     5c6:	3148      	adds	r1, #72	; 0x48
     5c8:	f10b 3bff 	add.w	fp, fp, #4294967295	; 0xffffffff
     5cc:	eb00 0141 	add.w	r1, r0, r1, lsl #1
     5d0:	8849      	ldrh	r1, [r1, #2]
     5d2:	458b      	cmp	fp, r1
     5d4:	f0c0 8134 	bcc.w	840 <tdefl_compress_lz_codes+0x3cc>
     5d8:	4091      	lsls	r1, r2
     5da:	442a      	add	r2, r5
     5dc:	6c85      	ldr	r5, [r0, #72]	; 0x48
     5de:	2a07      	cmp	r2, #7
     5e0:	6442      	str	r2, [r0, #68]	; 0x44
     5e2:	ea41 0105 	orr.w	r1, r1, r5
     5e6:	6481      	str	r1, [r0, #72]	; 0x48
     5e8:	d910      	bls.n	60c <tdefl_compress_lz_codes+0x198>
     5ea:	e9d0 560c 	ldrd	r5, r6, [r0, #48]	; 0x30
     5ee:	42b5      	cmp	r5, r6
     5f0:	f080 8084 	bcs.w	6fc <tdefl_compress_lz_codes+0x288>
     5f4:	1c6a      	adds	r2, r5, #1
     5f6:	6302      	str	r2, [r0, #48]	; 0x30
     5f8:	7029      	strb	r1, [r5, #0]
     5fa:	6c42      	ldr	r2, [r0, #68]	; 0x44
     5fc:	6c81      	ldr	r1, [r0, #72]	; 0x48
     5fe:	3a08      	subs	r2, #8
     600:	6442      	str	r2, [r0, #68]	; 0x44
     602:	2a07      	cmp	r2, #7
     604:	ea4f 2111 	mov.w	r1, r1, lsr #8
     608:	6481      	str	r1, [r0, #72]	; 0x48
     60a:	d8ee      	bhi.n	5ea <tdefl_compress_lz_codes+0x176>
     60c:	9d01      	ldr	r5, [sp, #4]
     60e:	eb05 058a 	add.w	r5, r5, sl, lsl #2
     612:	f8d5 5318 	ldr.w	r5, [r5, #792]	; 0x318
     616:	ea09 0505 	and.w	r5, r9, r5
     61a:	fa03 f90a 	lsl.w	r9, r3, sl
     61e:	f109 39ff 	add.w	r9, r9, #4294967295	; 0xffffffff
     622:	45a9      	cmp	r9, r5
     624:	f0c0 8101 	bcc.w	82a <tdefl_compress_lz_codes+0x3b6>
     628:	4095      	lsls	r5, r2
     62a:	4452      	add	r2, sl
     62c:	4329      	orrs	r1, r5
     62e:	2a07      	cmp	r2, #7
     630:	e9c0 2111 	strd	r2, r1, [r0, #68]	; 0x44
     634:	d90f      	bls.n	656 <tdefl_compress_lz_codes+0x1e2>
     636:	e9d0 560c 	ldrd	r5, r6, [r0, #48]	; 0x30
     63a:	42b5      	cmp	r5, r6
     63c:	d26b      	bcs.n	716 <tdefl_compress_lz_codes+0x2a2>
     63e:	1c6a      	adds	r2, r5, #1
     640:	6302      	str	r2, [r0, #48]	; 0x30
     642:	7029      	strb	r1, [r5, #0]
     644:	6c42      	ldr	r2, [r0, #68]	; 0x44
     646:	6c81      	ldr	r1, [r0, #72]	; 0x48
     648:	3a08      	subs	r2, #8
     64a:	6442      	str	r2, [r0, #68]	; 0x44
     64c:	2a07      	cmp	r2, #7
     64e:	ea4f 2111 	mov.w	r1, r1, lsr #8
     652:	6481      	str	r1, [r0, #72]	; 0x48
     654:	d8ef      	bhi.n	636 <tdefl_compress_lz_codes+0x1c2>
     656:	f8d0 a028 	ldr.w	sl, [r0, #40]	; 0x28
     65a:	ea4f 0e5e 	mov.w	lr, lr, lsr #1
     65e:	45e2      	cmp	sl, ip
     660:	f63f af28 	bhi.w	4b4 <tdefl_compress_lz_codes+0x40>
     664:	f500 4310 	add.w	r3, r0, #36864	; 0x9000
     668:	f500 4200 	add.w	r2, r0, #32768	; 0x8000
     66c:	2101      	movs	r1, #1
     66e:	7c9b      	ldrb	r3, [r3, #18]
     670:	f8b2 2a52 	ldrh.w	r2, [r2, #2642]	; 0xa52
     674:	4099      	lsls	r1, r3
     676:	3901      	subs	r1, #1
     678:	4291      	cmp	r1, r2
     67a:	f0c0 80ca 	bcc.w	812 <tdefl_compress_lz_codes+0x39e>
     67e:	e9d0 1411 	ldrd	r1, r4, [r0, #68]	; 0x44
     682:	440b      	add	r3, r1
     684:	6443      	str	r3, [r0, #68]	; 0x44
     686:	408a      	lsls	r2, r1
     688:	2b07      	cmp	r3, #7
     68a:	ea42 0204 	orr.w	r2, r2, r4
     68e:	6b01      	ldr	r1, [r0, #48]	; 0x30
     690:	6b44      	ldr	r4, [r0, #52]	; 0x34
     692:	6482      	str	r2, [r0, #72]	; 0x48
     694:	d90f      	bls.n	6b6 <tdefl_compress_lz_codes+0x242>
     696:	42a1      	cmp	r1, r4
     698:	f080 808b 	bcs.w	7b2 <tdefl_compress_lz_codes+0x33e>
     69c:	1c4b      	adds	r3, r1, #1
     69e:	6303      	str	r3, [r0, #48]	; 0x30
     6a0:	700a      	strb	r2, [r1, #0]
     6a2:	e9d0 3211 	ldrd	r3, r2, [r0, #68]	; 0x44
     6a6:	e9d0 140c 	ldrd	r1, r4, [r0, #48]	; 0x30
     6aa:	3b08      	subs	r3, #8
     6ac:	0a12      	lsrs	r2, r2, #8
     6ae:	2b07      	cmp	r3, #7
     6b0:	6443      	str	r3, [r0, #68]	; 0x44
     6b2:	6482      	str	r2, [r0, #72]	; 0x48
     6b4:	d8ef      	bhi.n	696 <tdefl_compress_lz_codes+0x222>
     6b6:	42a1      	cmp	r1, r4
     6b8:	bf2c      	ite	cs
     6ba:	2000      	movcs	r0, #0
     6bc:	2001      	movcc	r0, #1
     6be:	b005      	add	sp, #20
     6c0:	e8bd 8ff0 	ldmia.w	sp!, {r4, r5, r6, r7, r8, r9, sl, fp, pc}
     6c4:	3a08      	subs	r2, #8
     6c6:	0a09      	lsrs	r1, r1, #8
     6c8:	2a07      	cmp	r2, #7
     6ca:	e9c0 2111 	strd	r2, r1, [r0, #68]	; 0x44
     6ce:	f67f af32 	bls.w	536 <tdefl_compress_lz_codes+0xc2>
     6d2:	3a08      	subs	r2, #8
     6d4:	0a09      	lsrs	r1, r1, #8
     6d6:	2a07      	cmp	r2, #7
     6d8:	d8fb      	bhi.n	6d2 <tdefl_compress_lz_codes+0x25e>
     6da:	e9c0 2111 	strd	r2, r1, [r0, #68]	; 0x44
     6de:	e72a      	b.n	536 <tdefl_compress_lz_codes+0xc2>
     6e0:	3a08      	subs	r2, #8
     6e2:	0a09      	lsrs	r1, r1, #8
     6e4:	2a07      	cmp	r2, #7
     6e6:	e9c0 2111 	strd	r2, r1, [r0, #68]	; 0x44
     6ea:	f67f af4f 	bls.w	58c <tdefl_compress_lz_codes+0x118>
     6ee:	3a08      	subs	r2, #8
     6f0:	0a09      	lsrs	r1, r1, #8
     6f2:	2a07      	cmp	r2, #7
     6f4:	d8fb      	bhi.n	6ee <tdefl_compress_lz_codes+0x27a>
     6f6:	e9c0 2111 	strd	r2, r1, [r0, #68]	; 0x44
     6fa:	e747      	b.n	58c <tdefl_compress_lz_codes+0x118>
     6fc:	3a08      	subs	r2, #8
     6fe:	0a09      	lsrs	r1, r1, #8
     700:	2a07      	cmp	r2, #7
     702:	e9c0 2111 	strd	r2, r1, [r0, #68]	; 0x44
     706:	d981      	bls.n	60c <tdefl_compress_lz_codes+0x198>
     708:	3a08      	subs	r2, #8
     70a:	0a09      	lsrs	r1, r1, #8
     70c:	2a07      	cmp	r2, #7
     70e:	d8fb      	bhi.n	708 <tdefl_compress_lz_codes+0x294>
     710:	e9c0 2111 	strd	r2, r1, [r0, #68]	; 0x44
     714:	e77a      	b.n	60c <tdefl_compress_lz_codes+0x198>
     716:	3a08      	subs	r2, #8
     718:	0a09      	lsrs	r1, r1, #8
     71a:	2a07      	cmp	r2, #7
     71c:	e9c0 2111 	strd	r2, r1, [r0, #68]	; 0x44
     720:	d999      	bls.n	656 <tdefl_compress_lz_codes+0x1e2>
     722:	3a08      	subs	r2, #8
     724:	0a09      	lsrs	r1, r1, #8
     726:	2a07      	cmp	r2, #7
     728:	d8fb      	bhi.n	722 <tdefl_compress_lz_codes+0x2ae>
     72a:	e9c0 2111 	strd	r2, r1, [r0, #68]	; 0x44
     72e:	e792      	b.n	656 <tdefl_compress_lz_codes+0x1e2>
     730:	eb00 020b 	add.w	r2, r0, fp
     734:	f648 7112 	movw	r1, #36626	; 0x8f12
     738:	f10c 0c01 	add.w	ip, ip, #1
     73c:	5c52      	ldrb	r2, [r2, r1]
     73e:	2a00      	cmp	r2, #0
     740:	d05b      	beq.n	7fa <tdefl_compress_lz_codes+0x386>
     742:	44bb      	add	fp, r7
     744:	fa03 f502 	lsl.w	r5, r3, r2
     748:	3d01      	subs	r5, #1
     74a:	eb00 0b4b 	add.w	fp, r0, fp, lsl #1
     74e:	f8bb 1002 	ldrh.w	r1, [fp, #2]
     752:	428d      	cmp	r5, r1
     754:	d345      	bcc.n	7e2 <tdefl_compress_lz_codes+0x36e>
     756:	6c45      	ldr	r5, [r0, #68]	; 0x44
     758:	442a      	add	r2, r5
     75a:	6442      	str	r2, [r0, #68]	; 0x44
     75c:	40a9      	lsls	r1, r5
     75e:	6c85      	ldr	r5, [r0, #72]	; 0x48
     760:	2a07      	cmp	r2, #7
     762:	ea41 0105 	orr.w	r1, r1, r5
     766:	6481      	str	r1, [r0, #72]	; 0x48
     768:	f67f af77 	bls.w	65a <tdefl_compress_lz_codes+0x1e6>
     76c:	e9d0 560c 	ldrd	r5, r6, [r0, #48]	; 0x30
     770:	42b5      	cmp	r5, r6
     772:	d210      	bcs.n	796 <tdefl_compress_lz_codes+0x322>
     774:	1c6a      	adds	r2, r5, #1
     776:	6302      	str	r2, [r0, #48]	; 0x30
     778:	7029      	strb	r1, [r5, #0]
     77a:	6c42      	ldr	r2, [r0, #68]	; 0x44
     77c:	6c81      	ldr	r1, [r0, #72]	; 0x48
     77e:	3a08      	subs	r2, #8
     780:	6442      	str	r2, [r0, #68]	; 0x44
     782:	2a07      	cmp	r2, #7
     784:	ea4f 2111 	mov.w	r1, r1, lsr #8
     788:	6481      	str	r1, [r0, #72]	; 0x48
     78a:	f67f af64 	bls.w	656 <tdefl_compress_lz_codes+0x1e2>
     78e:	e9d0 560c 	ldrd	r5, r6, [r0, #48]	; 0x30
     792:	42b5      	cmp	r5, r6
     794:	d3ee      	bcc.n	774 <tdefl_compress_lz_codes+0x300>
     796:	3a08      	subs	r2, #8
     798:	0a09      	lsrs	r1, r1, #8
     79a:	2a07      	cmp	r2, #7
     79c:	e9c0 2111 	strd	r2, r1, [r0, #68]	; 0x44
     7a0:	f67f af59 	bls.w	656 <tdefl_compress_lz_codes+0x1e2>
     7a4:	3a08      	subs	r2, #8
     7a6:	0a09      	lsrs	r1, r1, #8
     7a8:	2a07      	cmp	r2, #7
     7aa:	d8fb      	bhi.n	7a4 <tdefl_compress_lz_codes+0x330>
     7ac:	e9c0 2111 	strd	r2, r1, [r0, #68]	; 0x44
     7b0:	e751      	b.n	656 <tdefl_compress_lz_codes+0x1e2>
     7b2:	3b08      	subs	r3, #8
     7b4:	0a12      	lsrs	r2, r2, #8
     7b6:	2b07      	cmp	r3, #7
     7b8:	e9c0 3211 	strd	r3, r2, [r0, #68]	; 0x44
     7bc:	f67f af7b 	bls.w	6b6 <tdefl_compress_lz_codes+0x242>
     7c0:	3b08      	subs	r3, #8
     7c2:	0a12      	lsrs	r2, r2, #8
     7c4:	2b07      	cmp	r3, #7
     7c6:	d8fb      	bhi.n	7c0 <tdefl_compress_lz_codes+0x34c>
     7c8:	e9c0 3211 	strd	r3, r2, [r0, #68]	; 0x44
     7cc:	e773      	b.n	6b6 <tdefl_compress_lz_codes+0x242>
     7ce:	4937      	ldr	r1, [pc, #220]	; (8ac <tdefl_compress_lz_codes+0x438>)
     7d0:	f508 7300 	add.w	r3, r8, #512	; 0x200
     7d4:	4836      	ldr	r0, [pc, #216]	; (8b0 <tdefl_compress_lz_codes+0x43c>)
     7d6:	f240 428d 	movw	r2, #1165	; 0x48d
     7da:	4479      	add	r1, pc
     7dc:	4478      	add	r0, pc
     7de:	f7ff fffe 	bl	0 <__assert_fail>
     7e2:	4b34      	ldr	r3, [pc, #208]	; (8b4 <tdefl_compress_lz_codes+0x440>)
     7e4:	f240 42a3 	movw	r2, #1187	; 0x4a3
     7e8:	4933      	ldr	r1, [pc, #204]	; (8b8 <tdefl_compress_lz_codes+0x444>)
     7ea:	4834      	ldr	r0, [pc, #208]	; (8bc <tdefl_compress_lz_codes+0x448>)
     7ec:	447b      	add	r3, pc
     7ee:	4479      	add	r1, pc
     7f0:	f503 7300 	add.w	r3, r3, #512	; 0x200
     7f4:	4478      	add	r0, pc
     7f6:	f7ff fffe 	bl	0 <__assert_fail>
     7fa:	4b31      	ldr	r3, [pc, #196]	; (8c0 <tdefl_compress_lz_codes+0x44c>)
     7fc:	f240 42a2 	movw	r2, #1186	; 0x4a2
     800:	4930      	ldr	r1, [pc, #192]	; (8c4 <tdefl_compress_lz_codes+0x450>)
     802:	4831      	ldr	r0, [pc, #196]	; (8c8 <tdefl_compress_lz_codes+0x454>)
     804:	447b      	add	r3, pc
     806:	4479      	add	r1, pc
     808:	f503 7300 	add.w	r3, r3, #512	; 0x200
     80c:	4478      	add	r0, pc
     80e:	f7ff fffe 	bl	0 <__assert_fail>
     812:	4b2e      	ldr	r3, [pc, #184]	; (8cc <tdefl_compress_lz_codes+0x458>)
     814:	f240 42a7 	movw	r2, #1191	; 0x4a7
     818:	492d      	ldr	r1, [pc, #180]	; (8d0 <tdefl_compress_lz_codes+0x45c>)
     81a:	482e      	ldr	r0, [pc, #184]	; (8d4 <tdefl_compress_lz_codes+0x460>)
     81c:	447b      	add	r3, pc
     81e:	4479      	add	r1, pc
     820:	f503 7300 	add.w	r3, r3, #512	; 0x200
     824:	4478      	add	r0, pc
     826:	f7ff fffe 	bl	0 <__assert_fail>
     82a:	492b      	ldr	r1, [pc, #172]	; (8d8 <tdefl_compress_lz_codes+0x464>)
     82c:	f240 429d 	movw	r2, #1181	; 0x49d
     830:	482a      	ldr	r0, [pc, #168]	; (8dc <tdefl_compress_lz_codes+0x468>)
     832:	9b01      	ldr	r3, [sp, #4]
     834:	4479      	add	r1, pc
     836:	4478      	add	r0, pc
     838:	f503 7300 	add.w	r3, r3, #512	; 0x200
     83c:	f7ff fffe 	bl	0 <__assert_fail>
     840:	4b27      	ldr	r3, [pc, #156]	; (8e0 <tdefl_compress_lz_codes+0x46c>)
     842:	f240 429c 	movw	r2, #1180	; 0x49c
     846:	4927      	ldr	r1, [pc, #156]	; (8e4 <tdefl_compress_lz_codes+0x470>)
     848:	4827      	ldr	r0, [pc, #156]	; (8e8 <tdefl_compress_lz_codes+0x474>)
     84a:	447b      	add	r3, pc
     84c:	4479      	add	r1, pc
     84e:	f503 7300 	add.w	r3, r3, #512	; 0x200
     852:	4478      	add	r0, pc
     854:	f7ff fffe 	bl	0 <__assert_fail>
     858:	4b24      	ldr	r3, [pc, #144]	; (8ec <tdefl_compress_lz_codes+0x478>)
     85a:	f240 429b 	movw	r2, #1179	; 0x49b
     85e:	4924      	ldr	r1, [pc, #144]	; (8f0 <tdefl_compress_lz_codes+0x47c>)
     860:	4824      	ldr	r0, [pc, #144]	; (8f4 <tdefl_compress_lz_codes+0x480>)
     862:	447b      	add	r3, pc
     864:	4479      	add	r1, pc
     866:	f503 7300 	add.w	r3, r3, #512	; 0x200
     86a:	4478      	add	r0, pc
     86c:	f7ff fffe 	bl	0 <__assert_fail>
     870:	4921      	ldr	r1, [pc, #132]	; (8f8 <tdefl_compress_lz_codes+0x484>)
     872:	f504 7300 	add.w	r3, r4, #512	; 0x200
     876:	4821      	ldr	r0, [pc, #132]	; (8fc <tdefl_compress_lz_codes+0x488>)
     878:	f240 428f 	movw	r2, #1167	; 0x48f
     87c:	4479      	add	r1, pc
     87e:	4478      	add	r0, pc
     880:	f7ff fffe 	bl	0 <__assert_fail>
     884:	491e      	ldr	r1, [pc, #120]	; (900 <tdefl_compress_lz_codes+0x48c>)
     886:	f508 7300 	add.w	r3, r8, #512	; 0x200
     88a:	481e      	ldr	r0, [pc, #120]	; (904 <tdefl_compress_lz_codes+0x490>)
     88c:	f240 428e 	movw	r2, #1166	; 0x48e
     890:	4479      	add	r1, pc
     892:	4478      	add	r0, pc
     894:	f7ff fffe 	bl	0 <__assert_fail>
     898:	000003f8 	.word	0x000003f8
     89c:	000003f6 	.word	0x000003f6
     8a0:	000003f6 	.word	0x000003f6
     8a4:	000003f4 	.word	0x000003f4
     8a8:	000003f6 	.word	0x000003f6
     8ac:	000000ce 	.word	0x000000ce
     8b0:	000000d0 	.word	0x000000d0
     8b4:	000000c4 	.word	0x000000c4
     8b8:	000000c6 	.word	0x000000c6
     8bc:	000000c4 	.word	0x000000c4
     8c0:	000000b8 	.word	0x000000b8
     8c4:	000000ba 	.word	0x000000ba
     8c8:	000000b8 	.word	0x000000b8
     8cc:	000000ac 	.word	0x000000ac
     8d0:	000000ae 	.word	0x000000ae
     8d4:	000000ac 	.word	0x000000ac
     8d8:	000000a0 	.word	0x000000a0
     8dc:	000000a2 	.word	0x000000a2
     8e0:	00000092 	.word	0x00000092
     8e4:	00000094 	.word	0x00000094
     8e8:	00000092 	.word	0x00000092
     8ec:	00000086 	.word	0x00000086
     8f0:	00000088 	.word	0x00000088
     8f4:	00000086 	.word	0x00000086
     8f8:	00000078 	.word	0x00000078
     8fc:	0000007a 	.word	0x0000007a
     900:	0000006c 	.word	0x0000006c
     904:	0000006e 	.word	0x0000006e

00000908 <mz_zip_reader_end_internal>:
     908:	e92d 47f0 	stmdb	sp!, {r4, r5, r6, r7, r8, r9, sl, lr}
     90c:	4604      	mov	r4, r0
     90e:	4605      	mov	r5, r0
     910:	2800      	cmp	r0, #0
     912:	d03f      	beq.n	994 <mz_zip_reader_end_internal+0x8c>
     914:	6c87      	ldr	r7, [r0, #72]	; 0x48
     916:	460d      	mov	r5, r1
     918:	2f00      	cmp	r7, #0
     91a:	d03e      	beq.n	99a <mz_zip_reader_end_internal+0x92>
     91c:	6a83      	ldr	r3, [r0, #40]	; 0x28
     91e:	2b00      	cmp	r3, #0
     920:	d03b      	beq.n	99a <mz_zip_reader_end_internal+0x92>
     922:	6ac3      	ldr	r3, [r0, #44]	; 0x2c
     924:	2b00      	cmp	r3, #0
     926:	d038      	beq.n	99a <mz_zip_reader_end_internal+0x92>
     928:	f8d0 a014 	ldr.w	sl, [r0, #20]
     92c:	f1ba 0f01 	cmp.w	sl, #1
     930:	d133      	bne.n	99a <mz_zip_reader_end_internal+0x92>
     932:	2600      	movs	r6, #0
     934:	46b9      	mov	r9, r7
     936:	6839      	ldr	r1, [r7, #0]
     938:	46b8      	mov	r8, r7
     93a:	6486      	str	r6, [r0, #72]	; 0x48
     93c:	6b40      	ldr	r0, [r0, #52]	; 0x34
     93e:	4798      	blx	r3
     940:	603e      	str	r6, [r7, #0]
     942:	607e      	str	r6, [r7, #4]
     944:	60be      	str	r6, [r7, #8]
     946:	60fe      	str	r6, [r7, #12]
     948:	f859 1f10 	ldr.w	r1, [r9, #16]!
     94c:	6b60      	ldr	r0, [r4, #52]	; 0x34
     94e:	6ae3      	ldr	r3, [r4, #44]	; 0x2c
     950:	4798      	blx	r3
     952:	613e      	str	r6, [r7, #16]
     954:	f8c9 6004 	str.w	r6, [r9, #4]
     958:	f8c9 6008 	str.w	r6, [r9, #8]
     95c:	f8c9 600c 	str.w	r6, [r9, #12]
     960:	f858 1f20 	ldr.w	r1, [r8, #32]!
     964:	6b60      	ldr	r0, [r4, #52]	; 0x34
     966:	6ae3      	ldr	r3, [r4, #44]	; 0x2c
     968:	4798      	blx	r3
     96a:	623e      	str	r6, [r7, #32]
     96c:	f8c8 6004 	str.w	r6, [r8, #4]
     970:	f8c8 6008 	str.w	r6, [r8, #8]
     974:	f8c8 600c 	str.w	r6, [r8, #12]
     978:	6bf8      	ldr	r0, [r7, #60]	; 0x3c
     97a:	b1b0      	cbz	r0, 9aa <mz_zip_reader_end_internal+0xa2>
     97c:	69a3      	ldr	r3, [r4, #24]
     97e:	2b04      	cmp	r3, #4
     980:	d015      	beq.n	9ae <mz_zip_reader_end_internal+0xa6>
     982:	2501      	movs	r5, #1
     984:	2300      	movs	r3, #0
     986:	63fb      	str	r3, [r7, #60]	; 0x3c
     988:	6ae3      	ldr	r3, [r4, #44]	; 0x2c
     98a:	4639      	mov	r1, r7
     98c:	6b60      	ldr	r0, [r4, #52]	; 0x34
     98e:	4798      	blx	r3
     990:	2300      	movs	r3, #0
     992:	6163      	str	r3, [r4, #20]
     994:	4628      	mov	r0, r5
     996:	e8bd 87f0 	ldmia.w	sp!, {r4, r5, r6, r7, r8, r9, sl, pc}
     99a:	2d00      	cmp	r5, #0
     99c:	d0fa      	beq.n	994 <mz_zip_reader_end_internal+0x8c>
     99e:	2500      	movs	r5, #0
     9a0:	2318      	movs	r3, #24
     9a2:	4628      	mov	r0, r5
     9a4:	61e3      	str	r3, [r4, #28]
     9a6:	e8bd 87f0 	ldmia.w	sp!, {r4, r5, r6, r7, r8, r9, sl, pc}
     9aa:	4655      	mov	r5, sl
     9ac:	e7ec      	b.n	988 <mz_zip_reader_end_internal+0x80>
     9ae:	f7ff fffe 	bl	0 <fclose>
     9b2:	3001      	adds	r0, #1
     9b4:	d1e5      	bne.n	982 <mz_zip_reader_end_internal+0x7a>
     9b6:	2d00      	cmp	r5, #0
     9b8:	d0e4      	beq.n	984 <mz_zip_reader_end_internal+0x7c>
     9ba:	2315      	movs	r3, #21
     9bc:	4635      	mov	r5, r6
     9be:	61e3      	str	r3, [r4, #28]
     9c0:	e7e0      	b.n	984 <mz_zip_reader_end_internal+0x7c>
     9c2:	bf00      	nop

000009c4 <mz_zip_writer_end_internal>:
     9c4:	e92d 43f8 	stmdb	sp!, {r3, r4, r5, r6, r7, r8, r9, lr}
     9c8:	4604      	mov	r4, r0
     9ca:	4607      	mov	r7, r0
     9cc:	2800      	cmp	r0, #0
     9ce:	d043      	beq.n	a58 <mz_zip_writer_end_internal+0x94>
     9d0:	6c86      	ldr	r6, [r0, #72]	; 0x48
     9d2:	460f      	mov	r7, r1
     9d4:	2e00      	cmp	r6, #0
     9d6:	d042      	beq.n	a5e <mz_zip_writer_end_internal+0x9a>
     9d8:	6a83      	ldr	r3, [r0, #40]	; 0x28
     9da:	2b00      	cmp	r3, #0
     9dc:	d03f      	beq.n	a5e <mz_zip_writer_end_internal+0x9a>
     9de:	6ac2      	ldr	r2, [r0, #44]	; 0x2c
     9e0:	2a00      	cmp	r2, #0
     9e2:	d03c      	beq.n	a5e <mz_zip_writer_end_internal+0x9a>
     9e4:	6943      	ldr	r3, [r0, #20]
     9e6:	3b02      	subs	r3, #2
     9e8:	2b01      	cmp	r3, #1
     9ea:	d838      	bhi.n	a5e <mz_zip_writer_end_internal+0x9a>
     9ec:	2500      	movs	r5, #0
     9ee:	46b1      	mov	r9, r6
     9f0:	6831      	ldr	r1, [r6, #0]
     9f2:	46b0      	mov	r8, r6
     9f4:	6485      	str	r5, [r0, #72]	; 0x48
     9f6:	6b40      	ldr	r0, [r0, #52]	; 0x34
     9f8:	4790      	blx	r2
     9fa:	6035      	str	r5, [r6, #0]
     9fc:	6075      	str	r5, [r6, #4]
     9fe:	60b5      	str	r5, [r6, #8]
     a00:	60f5      	str	r5, [r6, #12]
     a02:	f859 1f10 	ldr.w	r1, [r9, #16]!
     a06:	6b60      	ldr	r0, [r4, #52]	; 0x34
     a08:	6ae3      	ldr	r3, [r4, #44]	; 0x2c
     a0a:	4798      	blx	r3
     a0c:	6135      	str	r5, [r6, #16]
     a0e:	f8c9 5004 	str.w	r5, [r9, #4]
     a12:	f8c9 5008 	str.w	r5, [r9, #8]
     a16:	f8c9 500c 	str.w	r5, [r9, #12]
     a1a:	f858 1f20 	ldr.w	r1, [r8, #32]!
     a1e:	6b60      	ldr	r0, [r4, #52]	; 0x34
     a20:	6ae3      	ldr	r3, [r4, #44]	; 0x2c
     a22:	4798      	blx	r3
     a24:	6235      	str	r5, [r6, #32]
     a26:	f8c8 5004 	str.w	r5, [r8, #4]
     a2a:	f8c8 5008 	str.w	r5, [r8, #8]
     a2e:	f8c8 500c 	str.w	r5, [r8, #12]
     a32:	6bf0      	ldr	r0, [r6, #60]	; 0x3c
     a34:	b1d8      	cbz	r0, a6e <mz_zip_writer_end_internal+0xaa>
     a36:	69a3      	ldr	r3, [r4, #24]
     a38:	2b04      	cmp	r3, #4
     a3a:	d023      	beq.n	a84 <mz_zip_writer_end_internal+0xc0>
     a3c:	2701      	movs	r7, #1
     a3e:	2300      	movs	r3, #0
     a40:	63f3      	str	r3, [r6, #60]	; 0x3c
     a42:	4b15      	ldr	r3, [pc, #84]	; (a98 <mz_zip_writer_end_internal+0xd4>)
     a44:	6be2      	ldr	r2, [r4, #60]	; 0x3c
     a46:	447b      	add	r3, pc
     a48:	429a      	cmp	r2, r3
     a4a:	d012      	beq.n	a72 <mz_zip_writer_end_internal+0xae>
     a4c:	6ae3      	ldr	r3, [r4, #44]	; 0x2c
     a4e:	4631      	mov	r1, r6
     a50:	6b60      	ldr	r0, [r4, #52]	; 0x34
     a52:	4798      	blx	r3
     a54:	2300      	movs	r3, #0
     a56:	6163      	str	r3, [r4, #20]
     a58:	4638      	mov	r0, r7
     a5a:	e8bd 83f8 	ldmia.w	sp!, {r3, r4, r5, r6, r7, r8, r9, pc}
     a5e:	2f00      	cmp	r7, #0
     a60:	d0fa      	beq.n	a58 <mz_zip_writer_end_internal+0x94>
     a62:	2700      	movs	r7, #0
     a64:	2318      	movs	r3, #24
     a66:	4638      	mov	r0, r7
     a68:	61e3      	str	r3, [r4, #28]
     a6a:	e8bd 83f8 	ldmia.w	sp!, {r3, r4, r5, r6, r7, r8, r9, pc}
     a6e:	2701      	movs	r7, #1
     a70:	e7e7      	b.n	a42 <mz_zip_writer_end_internal+0x7e>
     a72:	6cb1      	ldr	r1, [r6, #72]	; 0x48
     a74:	2900      	cmp	r1, #0
     a76:	d0e9      	beq.n	a4c <mz_zip_writer_end_internal+0x88>
     a78:	6ae3      	ldr	r3, [r4, #44]	; 0x2c
     a7a:	6b60      	ldr	r0, [r4, #52]	; 0x34
     a7c:	4798      	blx	r3
     a7e:	2300      	movs	r3, #0
     a80:	64b3      	str	r3, [r6, #72]	; 0x48
     a82:	e7e3      	b.n	a4c <mz_zip_writer_end_internal+0x88>
     a84:	f7ff fffe 	bl	0 <fclose>
     a88:	3001      	adds	r0, #1
     a8a:	d1d7      	bne.n	a3c <mz_zip_writer_end_internal+0x78>
     a8c:	2f00      	cmp	r7, #0
     a8e:	d0d6      	beq.n	a3e <mz_zip_writer_end_internal+0x7a>
     a90:	2315      	movs	r3, #21
     a92:	462f      	mov	r7, r5
     a94:	61e3      	str	r3, [r4, #28]
     a96:	e7d2      	b.n	a3e <mz_zip_writer_end_internal+0x7a>
     a98:	0000004e 	.word	0x0000004e

00000a9c <mz_zip_file_write_callback>:
     a9c:	4603      	mov	r3, r0
     a9e:	2101      	movs	r1, #1
     aa0:	e9dd 0200 	ldrd	r0, r2, [sp]
     aa4:	f7ff bffe 	b.w	0 <fwrite>

00000aa8 <tdefl_radix_sort_syms>:
     aa8:	e92d 47f0 	stmdb	sp!, {r4, r5, r6, r7, r8, r9, sl, lr}
     aac:	460c      	mov	r4, r1
     aae:	493f      	ldr	r1, [pc, #252]	; (bac <tdefl_radix_sort_syms+0x104>)
     ab0:	4b3f      	ldr	r3, [pc, #252]	; (bb0 <tdefl_radix_sort_syms+0x108>)
     ab2:	f6ad 4d08 	subw	sp, sp, #3080	; 0xc08
     ab6:	4479      	add	r1, pc
     ab8:	f20d 4704 	addw	r7, sp, #1028	; 0x404
     abc:	4605      	mov	r5, r0
     abe:	4616      	mov	r6, r2
     ac0:	f44f 6200 	mov.w	r2, #2048	; 0x800
     ac4:	4638      	mov	r0, r7
     ac6:	58cb      	ldr	r3, [r1, r3]
     ac8:	2100      	movs	r1, #0
     aca:	681b      	ldr	r3, [r3, #0]
     acc:	f8cd 3c04 	str.w	r3, [sp, #3076]	; 0xc04
     ad0:	f04f 0300 	mov.w	r3, #0
     ad4:	f7ff fffe 	bl	0 <memset>
     ad8:	2d00      	cmp	r5, #0
     ada:	d062      	beq.n	ba2 <tdefl_radix_sort_syms+0xfa>
     adc:	f04f 0c00 	mov.w	ip, #0
     ae0:	f834 302c 	ldrh.w	r3, [r4, ip, lsl #2]
     ae4:	f10c 0c01 	add.w	ip, ip, #1
     ae8:	4565      	cmp	r5, ip
     aea:	ea4f 2213 	mov.w	r2, r3, lsr #8
     aee:	b2db      	uxtb	r3, r3
     af0:	f502 7280 	add.w	r2, r2, #256	; 0x100
     af4:	f857 0023 	ldr.w	r0, [r7, r3, lsl #2]
     af8:	f857 1022 	ldr.w	r1, [r7, r2, lsl #2]
     afc:	f100 0001 	add.w	r0, r0, #1
     b00:	f847 0023 	str.w	r0, [r7, r3, lsl #2]
     b04:	f101 0101 	add.w	r1, r1, #1
     b08:	f847 1022 	str.w	r1, [r7, r2, lsl #2]
     b0c:	d1e8      	bne.n	ae0 <tdefl_radix_sort_syms+0x38>
     b0e:	f8d7 3400 	ldr.w	r3, [r7, #1024]	; 0x400
     b12:	429d      	cmp	r5, r3
     b14:	bf14      	ite	ne
     b16:	f04f 0902 	movne.w	r9, #2
     b1a:	f04f 0901 	moveq.w	r9, #1
     b1e:	4638      	mov	r0, r7
     b20:	ea4f 09c9 	mov.w	r9, r9, lsl #3
     b24:	f04f 0800 	mov.w	r8, #0
     b28:	46ea      	mov	sl, sp
     b2a:	f50d 6180 	add.w	r1, sp, #1024	; 0x400
     b2e:	af01      	add	r7, sp, #4
     b30:	46d4      	mov	ip, sl
     b32:	f1a0 0e04 	sub.w	lr, r0, #4
     b36:	2300      	movs	r3, #0
     b38:	f84c 3f04 	str.w	r3, [ip, #4]!
     b3c:	f85e 2f04 	ldr.w	r2, [lr, #4]!
     b40:	4561      	cmp	r1, ip
     b42:	4413      	add	r3, r2
     b44:	d1f8      	bne.n	b38 <tdefl_radix_sort_syms+0x90>
     b46:	2200      	movs	r2, #0
     b48:	b18d      	cbz	r5, b6e <tdefl_radix_sort_syms+0xc6>
     b4a:	f834 3022 	ldrh.w	r3, [r4, r2, lsl #2]
     b4e:	fa43 f308 	asr.w	r3, r3, r8
     b52:	b2db      	uxtb	r3, r3
     b54:	f857 c023 	ldr.w	ip, [r7, r3, lsl #2]
     b58:	f10c 0e01 	add.w	lr, ip, #1
     b5c:	f847 e023 	str.w	lr, [r7, r3, lsl #2]
     b60:	f854 3022 	ldr.w	r3, [r4, r2, lsl #2]
     b64:	3201      	adds	r2, #1
     b66:	4295      	cmp	r5, r2
     b68:	f846 302c 	str.w	r3, [r6, ip, lsl #2]
     b6c:	d1ed      	bne.n	b4a <tdefl_radix_sort_syms+0xa2>
     b6e:	f108 0808 	add.w	r8, r8, #8
     b72:	f500 6080 	add.w	r0, r0, #1024	; 0x400
     b76:	45c8      	cmp	r8, r9
     b78:	d003      	beq.n	b82 <tdefl_radix_sort_syms+0xda>
     b7a:	4623      	mov	r3, r4
     b7c:	4634      	mov	r4, r6
     b7e:	461e      	mov	r6, r3
     b80:	e7d6      	b.n	b30 <tdefl_radix_sort_syms+0x88>
     b82:	4a0c      	ldr	r2, [pc, #48]	; (bb4 <tdefl_radix_sort_syms+0x10c>)
     b84:	4b0a      	ldr	r3, [pc, #40]	; (bb0 <tdefl_radix_sort_syms+0x108>)
     b86:	447a      	add	r2, pc
     b88:	58d3      	ldr	r3, [r2, r3]
     b8a:	681a      	ldr	r2, [r3, #0]
     b8c:	f8dd 3c04 	ldr.w	r3, [sp, #3076]	; 0xc04
     b90:	405a      	eors	r2, r3
     b92:	f04f 0300 	mov.w	r3, #0
     b96:	d107      	bne.n	ba8 <tdefl_radix_sort_syms+0x100>
     b98:	4630      	mov	r0, r6
     b9a:	f60d 4d08 	addw	sp, sp, #3080	; 0xc08
     b9e:	e8bd 87f0 	ldmia.w	sp!, {r4, r5, r6, r7, r8, r9, sl, pc}
     ba2:	f04f 0901 	mov.w	r9, #1
     ba6:	e7ba      	b.n	b1e <tdefl_radix_sort_syms+0x76>
     ba8:	f7ff fffe 	bl	0 <__stack_chk_fail>
     bac:	000000f2 	.word	0x000000f2
     bb0:	00000000 	.word	0x00000000
     bb4:	0000002a 	.word	0x0000002a

00000bb8 <mz_zip_reader_init_internal.part.0>:
     bb8:	6a83      	ldr	r3, [r0, #40]	; 0x28
     bba:	b570      	push	{r4, r5, r6, lr}
     bbc:	4604      	mov	r4, r0
     bbe:	460e      	mov	r6, r1
     bc0:	b36b      	cbz	r3, c1e <mz_zip_reader_init_internal.part.0+0x66>
     bc2:	6ae2      	ldr	r2, [r4, #44]	; 0x2c
     bc4:	b33a      	cbz	r2, c16 <mz_zip_reader_init_internal.part.0+0x5e>
     bc6:	6b22      	ldr	r2, [r4, #48]	; 0x30
     bc8:	b30a      	cbz	r2, c0e <mz_zip_reader_init_internal.part.0+0x56>
     bca:	2000      	movs	r0, #0
     bcc:	2100      	movs	r1, #0
     bce:	2500      	movs	r5, #0
     bd0:	e9c4 0100 	strd	r0, r1, [r4]
     bd4:	e9c4 0102 	strd	r0, r1, [r4, #8]
     bd8:	2258      	movs	r2, #88	; 0x58
     bda:	6b60      	ldr	r0, [r4, #52]	; 0x34
     bdc:	2101      	movs	r1, #1
     bde:	6125      	str	r5, [r4, #16]
     be0:	61e5      	str	r5, [r4, #28]
     be2:	4798      	blx	r3
     be4:	64a0      	str	r0, [r4, #72]	; 0x48
     be6:	b178      	cbz	r0, c08 <mz_zip_reader_init_internal.part.0+0x50>
     be8:	4629      	mov	r1, r5
     bea:	2258      	movs	r2, #88	; 0x58
     bec:	f7ff fffe 	bl	0 <memset>
     bf0:	6ca3      	ldr	r3, [r4, #72]	; 0x48
     bf2:	2201      	movs	r2, #1
     bf4:	2104      	movs	r1, #4
     bf6:	4610      	mov	r0, r2
     bf8:	631e      	str	r6, [r3, #48]	; 0x30
     bfa:	60da      	str	r2, [r3, #12]
     bfc:	61d9      	str	r1, [r3, #28]
     bfe:	62d9      	str	r1, [r3, #44]	; 0x2c
     c00:	e9c3 550d 	strd	r5, r5, [r3, #52]	; 0x34
     c04:	6162      	str	r2, [r4, #20]
     c06:	bd70      	pop	{r4, r5, r6, pc}
     c08:	2210      	movs	r2, #16
     c0a:	61e2      	str	r2, [r4, #28]
     c0c:	bd70      	pop	{r4, r5, r6, pc}
     c0e:	4a06      	ldr	r2, [pc, #24]	; (c28 <mz_zip_reader_init_internal.part.0+0x70>)
     c10:	447a      	add	r2, pc
     c12:	6322      	str	r2, [r4, #48]	; 0x30
     c14:	e7d9      	b.n	bca <mz_zip_reader_init_internal.part.0+0x12>
     c16:	4a05      	ldr	r2, [pc, #20]	; (c2c <mz_zip_reader_init_internal.part.0+0x74>)
     c18:	447a      	add	r2, pc
     c1a:	62e2      	str	r2, [r4, #44]	; 0x2c
     c1c:	e7d3      	b.n	bc6 <mz_zip_reader_init_internal.part.0+0xe>
     c1e:	4b04      	ldr	r3, [pc, #16]	; (c30 <mz_zip_reader_init_internal.part.0+0x78>)
     c20:	447b      	add	r3, pc
     c22:	6283      	str	r3, [r0, #40]	; 0x28
     c24:	e7cd      	b.n	bc2 <mz_zip_reader_init_internal.part.0+0xa>
     c26:	bf00      	nop
     c28:	00000014 	.word	0x00000014
     c2c:	00000010 	.word	0x00000010
     c30:	0000000c 	.word	0x0000000c

00000c34 <mz_zip_writer_add_put_buf_callback>:
     c34:	b530      	push	{r4, r5, lr}
     c36:	4614      	mov	r4, r2
     c38:	6813      	ldr	r3, [r2, #0]
     c3a:	b083      	sub	sp, #12
     c3c:	460d      	mov	r5, r1
     c3e:	6c5a      	ldr	r2, [r3, #68]	; 0x44
     c40:	e9cd 0100 	strd	r0, r1, [sp]
     c44:	4610      	mov	r0, r2
     c46:	6bd9      	ldr	r1, [r3, #60]	; 0x3c
     c48:	e9d4 2302 	ldrd	r2, r3, [r4, #8]
     c4c:	4788      	blx	r1
     c4e:	42a8      	cmp	r0, r5
     c50:	bf18      	it	ne
     c52:	2000      	movne	r0, #0
     c54:	d110      	bne.n	c78 <mz_zip_writer_add_put_buf_callback+0x44>
     c56:	e9d4 2502 	ldrd	r2, r5, [r4, #8]
     c5a:	17c1      	asrs	r1, r0, #31
     c5c:	6923      	ldr	r3, [r4, #16]
     c5e:	1812      	adds	r2, r2, r0
     c60:	60a2      	str	r2, [r4, #8]
     c62:	eb41 0505 	adc.w	r5, r1, r5
     c66:	181b      	adds	r3, r3, r0
     c68:	e9c4 5303 	strd	r5, r3, [r4, #12]
     c6c:	f04f 0001 	mov.w	r0, #1
     c70:	6963      	ldr	r3, [r4, #20]
     c72:	eb41 0103 	adc.w	r1, r1, r3
     c76:	6161      	str	r1, [r4, #20]
     c78:	b003      	add	sp, #12
     c7a:	bd30      	pop	{r4, r5, pc}

00000c7c <mz_zip_array_ensure_capacity>:
     c7c:	b570      	push	{r4, r5, r6, lr}
     c7e:	4615      	mov	r5, r2
     c80:	68ca      	ldr	r2, [r1, #12]
     c82:	b1e2      	cbz	r2, cbe <mz_zip_array_ensure_capacity+0x42>
     c84:	688c      	ldr	r4, [r1, #8]
     c86:	460e      	mov	r6, r1
     c88:	42ac      	cmp	r4, r5
     c8a:	bf28      	it	cs
     c8c:	2001      	movcs	r0, #1
     c8e:	d215      	bcs.n	cbc <mz_zip_array_ensure_capacity+0x40>
     c90:	b153      	cbz	r3, ca8 <mz_zip_array_ensure_capacity+0x2c>
     c92:	2c01      	cmp	r4, #1
     c94:	bf38      	it	cc
     c96:	2401      	movcc	r4, #1
     c98:	46a4      	mov	ip, r4
     c9a:	42ac      	cmp	r4, r5
     c9c:	d203      	bcs.n	ca6 <mz_zip_array_ensure_capacity+0x2a>
     c9e:	ea4f 0c4c 	mov.w	ip, ip, lsl #1
     ca2:	4565      	cmp	r5, ip
     ca4:	d8fb      	bhi.n	c9e <mz_zip_array_ensure_capacity+0x22>
     ca6:	4665      	mov	r5, ip
     ca8:	462b      	mov	r3, r5
     caa:	6831      	ldr	r1, [r6, #0]
     cac:	e9d0 400c 	ldrd	r4, r0, [r0, #48]	; 0x30
     cb0:	47a0      	blx	r4
     cb2:	4603      	mov	r3, r0
     cb4:	b110      	cbz	r0, cbc <mz_zip_array_ensure_capacity+0x40>
     cb6:	2001      	movs	r0, #1
     cb8:	6033      	str	r3, [r6, #0]
     cba:	60b5      	str	r5, [r6, #8]
     cbc:	bd70      	pop	{r4, r5, r6, pc}
     cbe:	4b06      	ldr	r3, [pc, #24]	; (cd8 <mz_zip_array_ensure_capacity+0x5c>)
     cc0:	f640 428b 	movw	r2, #3211	; 0xc8b
     cc4:	4905      	ldr	r1, [pc, #20]	; (cdc <mz_zip_array_ensure_capacity+0x60>)
     cc6:	4806      	ldr	r0, [pc, #24]	; (ce0 <mz_zip_array_ensure_capacity+0x64>)
     cc8:	447b      	add	r3, pc
     cca:	4479      	add	r1, pc
     ccc:	f603 035c 	addw	r3, r3, #2140	; 0x85c
     cd0:	4478      	add	r0, pc
     cd2:	f7ff fffe 	bl	0 <__assert_fail>
     cd6:	bf00      	nop
     cd8:	0000000c 	.word	0x0000000c
     cdc:	0000000e 	.word	0x0000000e
     ce0:	0000000c 	.word	0x0000000c

00000ce4 <mz_zip_file_read_func>:
     ce4:	e92d 41f0 	stmdb	sp!, {r4, r5, r6, r7, r8, lr}
     ce8:	461d      	mov	r5, r3
     cea:	6c83      	ldr	r3, [r0, #72]	; 0x48
     cec:	4606      	mov	r6, r0
     cee:	4614      	mov	r4, r2
     cf0:	e9dd 7806 	ldrd	r7, r8, [sp, #24]
     cf4:	6bd8      	ldr	r0, [r3, #60]	; 0x3c
     cf6:	f7ff fffe 	bl	0 <ftello>
     cfa:	6cb2      	ldr	r2, [r6, #72]	; 0x48
     cfc:	6c13      	ldr	r3, [r2, #64]	; 0x40
     cfe:	18e1      	adds	r1, r4, r3
     d00:	6c53      	ldr	r3, [r2, #68]	; 0x44
     d02:	eb45 0303 	adc.w	r3, r5, r3
     d06:	2b00      	cmp	r3, #0
     d08:	db14      	blt.n	d34 <mz_zip_file_read_func+0x50>
     d0a:	17c4      	asrs	r4, r0, #31
     d0c:	6bd5      	ldr	r5, [r2, #60]	; 0x3c
     d0e:	429c      	cmp	r4, r3
     d10:	bf08      	it	eq
     d12:	4288      	cmpeq	r0, r1
     d14:	d107      	bne.n	d26 <mz_zip_file_read_func+0x42>
     d16:	6bd3      	ldr	r3, [r2, #60]	; 0x3c
     d18:	4638      	mov	r0, r7
     d1a:	4642      	mov	r2, r8
     d1c:	2101      	movs	r1, #1
     d1e:	e8bd 41f0 	ldmia.w	sp!, {r4, r5, r6, r7, r8, lr}
     d22:	f7ff bffe 	b.w	0 <fread>
     d26:	4628      	mov	r0, r5
     d28:	2200      	movs	r2, #0
     d2a:	f7ff fffe 	bl	0 <fseeko>
     d2e:	b908      	cbnz	r0, d34 <mz_zip_file_read_func+0x50>
     d30:	6cb2      	ldr	r2, [r6, #72]	; 0x48
     d32:	e7f0      	b.n	d16 <mz_zip_file_read_func+0x32>
     d34:	2000      	movs	r0, #0
     d36:	e8bd 81f0 	ldmia.w	sp!, {r4, r5, r6, r7, r8, pc}
     d3a:	bf00      	nop

00000d3c <mz_zip_file_write_func>:
     d3c:	e92d 41f0 	stmdb	sp!, {r4, r5, r6, r7, r8, lr}
     d40:	461d      	mov	r5, r3
     d42:	6c83      	ldr	r3, [r0, #72]	; 0x48
     d44:	4606      	mov	r6, r0
     d46:	4614      	mov	r4, r2
     d48:	e9dd 7806 	ldrd	r7, r8, [sp, #24]
     d4c:	6bd8      	ldr	r0, [r3, #60]	; 0x3c
     d4e:	f7ff fffe 	bl	0 <ftello>
     d52:	6cb2      	ldr	r2, [r6, #72]	; 0x48
     d54:	6c13      	ldr	r3, [r2, #64]	; 0x40
     d56:	18e1      	adds	r1, r4, r3
     d58:	6c53      	ldr	r3, [r2, #68]	; 0x44
     d5a:	eb45 0303 	adc.w	r3, r5, r3
     d5e:	2b00      	cmp	r3, #0
     d60:	db14      	blt.n	d8c <mz_zip_file_write_func+0x50>
     d62:	17c4      	asrs	r4, r0, #31
     d64:	429c      	cmp	r4, r3
     d66:	bf08      	it	eq
     d68:	4288      	cmpeq	r0, r1
     d6a:	d109      	bne.n	d80 <mz_zip_file_write_func+0x44>
     d6c:	b187      	cbz	r7, d90 <mz_zip_file_write_func+0x54>
     d6e:	6cb3      	ldr	r3, [r6, #72]	; 0x48
     d70:	4642      	mov	r2, r8
     d72:	4638      	mov	r0, r7
     d74:	2101      	movs	r1, #1
     d76:	e8bd 41f0 	ldmia.w	sp!, {r4, r5, r6, r7, r8, lr}
     d7a:	6bdb      	ldr	r3, [r3, #60]	; 0x3c
     d7c:	f7ff bffe 	b.w	0 <fwrite>
     d80:	6bd0      	ldr	r0, [r2, #60]	; 0x3c
     d82:	2200      	movs	r2, #0
     d84:	f7ff fffe 	bl	0 <fseeko>
     d88:	2800      	cmp	r0, #0
     d8a:	d0ef      	beq.n	d6c <mz_zip_file_write_func+0x30>
     d8c:	2316      	movs	r3, #22
     d8e:	61f3      	str	r3, [r6, #28]
     d90:	2000      	movs	r0, #0
     d92:	e8bd 81f0 	ldmia.w	sp!, {r4, r5, r6, r7, r8, pc}
     d96:	bf00      	nop

00000d98 <tdefl_compress_buffer.part.0>:
     d98:	b508      	push	{r3, lr}
     d9a:	f240 7273 	movw	r2, #1907	; 0x773
     d9e:	4b05      	ldr	r3, [pc, #20]	; (db4 <tdefl_compress_buffer.part.0+0x1c>)
     da0:	4905      	ldr	r1, [pc, #20]	; (db8 <tdefl_compress_buffer.part.0+0x20>)
     da2:	4806      	ldr	r0, [pc, #24]	; (dbc <tdefl_compress_buffer.part.0+0x24>)
     da4:	447b      	add	r3, pc
     da6:	4479      	add	r1, pc
     da8:	f603 037c 	addw	r3, r3, #2172	; 0x87c
     dac:	4478      	add	r0, pc
     dae:	f7ff fffe 	bl	0 <__assert_fail>
     db2:	bf00      	nop
     db4:	0000000c 	.word	0x0000000c
     db8:	0000000e 	.word	0x0000000e
     dbc:	0000000c 	.word	0x0000000c

00000dc0 <mz_zip_writer_init_file_v2.part.0.constprop.0>:
     dc0:	e92d 4ff0 	stmdb	sp!, {r4, r5, r6, r7, r8, r9, sl, fp, lr}
     dc4:	461f      	mov	r7, r3
     dc6:	492e      	ldr	r1, [pc, #184]	; (e80 <mz_zip_writer_init_file_v2.part.0.constprop.0+0xc0>)
     dc8:	f5ad 5d80 	sub.w	sp, sp, #4096	; 0x1000
     dcc:	4b2d      	ldr	r3, [pc, #180]	; (e84 <mz_zip_writer_init_file_v2.part.0.constprop.0+0xc4>)
     dce:	b087      	sub	sp, #28
     dd0:	4479      	add	r1, pc
     dd2:	ac05      	add	r4, sp, #20
     dd4:	4681      	mov	r9, r0
     dd6:	f50d 5080 	add.w	r0, sp, #4096	; 0x1000
     dda:	2600      	movs	r6, #0
     ddc:	9403      	str	r4, [sp, #12]
     dde:	3014      	adds	r0, #20
     de0:	4615      	mov	r5, r2
     de2:	f44f 5280 	mov.w	r2, #4096	; 0x1000
     de6:	58cb      	ldr	r3, [r1, r3]
     de8:	4631      	mov	r1, r6
     dea:	46b2      	mov	sl, r6
     dec:	f241 0b01 	movw	fp, #4097	; 0x1001
     df0:	681b      	ldr	r3, [r3, #0]
     df2:	6003      	str	r3, [r0, #0]
     df4:	f04f 0300 	mov.w	r3, #0
     df8:	4620      	mov	r0, r4
     dfa:	f7ff fffe 	bl	0 <memset>
     dfe:	e00a      	b.n	e16 <mz_zip_writer_init_file_v2.part.0.constprop.0+0x56>
     e00:	19a2      	adds	r2, r4, r6
     e02:	eb48 0a0a 	adc.w	sl, r8, sl
     e06:	1b2c      	subs	r4, r5, r4
     e08:	eb67 0708 	sbc.w	r7, r7, r8
     e0c:	4625      	mov	r5, r4
     e0e:	4616      	mov	r6, r2
     e10:	ea54 0307 	orrs.w	r3, r4, r7
     e14:	d030      	beq.n	e78 <mz_zip_writer_init_file_v2.part.0.constprop.0+0xb8>
     e16:	455d      	cmp	r5, fp
     e18:	9903      	ldr	r1, [sp, #12]
     e1a:	f177 0300 	sbcs.w	r3, r7, #0
     e1e:	f8d9 c03c 	ldr.w	ip, [r9, #60]	; 0x3c
     e22:	f8d9 0044 	ldr.w	r0, [r9, #68]	; 0x44
     e26:	462c      	mov	r4, r5
     e28:	4632      	mov	r2, r6
     e2a:	bf28      	it	cs
     e2c:	f44f 5480 	movcs.w	r4, #4096	; 0x1000
     e30:	4653      	mov	r3, sl
     e32:	9401      	str	r4, [sp, #4]
     e34:	9100      	str	r1, [sp, #0]
     e36:	46b8      	mov	r8, r7
     e38:	bf28      	it	cs
     e3a:	f04f 0800 	movcs.w	r8, #0
     e3e:	47e0      	blx	ip
     e40:	4284      	cmp	r4, r0
     e42:	d0dd      	beq.n	e00 <mz_zip_writer_init_file_v2.part.0.constprop.0+0x40>
     e44:	2101      	movs	r1, #1
     e46:	4648      	mov	r0, r9
     e48:	f7ff fdbc 	bl	9c4 <mz_zip_writer_end_internal>
     e4c:	2000      	movs	r0, #0
     e4e:	2313      	movs	r3, #19
     e50:	f8c9 301c 	str.w	r3, [r9, #28]
     e54:	4a0c      	ldr	r2, [pc, #48]	; (e88 <mz_zip_writer_init_file_v2.part.0.constprop.0+0xc8>)
     e56:	f50d 5180 	add.w	r1, sp, #4096	; 0x1000
     e5a:	4b0a      	ldr	r3, [pc, #40]	; (e84 <mz_zip_writer_init_file_v2.part.0.constprop.0+0xc4>)
     e5c:	3114      	adds	r1, #20
     e5e:	447a      	add	r2, pc
     e60:	58d3      	ldr	r3, [r2, r3]
     e62:	681a      	ldr	r2, [r3, #0]
     e64:	680b      	ldr	r3, [r1, #0]
     e66:	405a      	eors	r2, r3
     e68:	f04f 0300 	mov.w	r3, #0
     e6c:	d106      	bne.n	e7c <mz_zip_writer_init_file_v2.part.0.constprop.0+0xbc>
     e6e:	f50d 5d80 	add.w	sp, sp, #4096	; 0x1000
     e72:	b007      	add	sp, #28
     e74:	e8bd 8ff0 	ldmia.w	sp!, {r4, r5, r6, r7, r8, r9, sl, fp, pc}
     e78:	2001      	movs	r0, #1
     e7a:	e7eb      	b.n	e54 <mz_zip_writer_init_file_v2.part.0.constprop.0+0x94>
     e7c:	f7ff fffe 	bl	0 <__stack_chk_fail>
     e80:	000000ac 	.word	0x000000ac
     e84:	00000000 	.word	0x00000000
     e88:	00000026 	.word	0x00000026

00000e8c <tdefl_huffman_enforce_max_code_size.constprop.1>:
     e8c:	2901      	cmp	r1, #1
     e8e:	f340 80b6 	ble.w	ffe <tdefl_huffman_enforce_max_code_size.constprop.1+0x172>
     e92:	e9d0 320f 	ldrd	r3, r2, [r0, #60]	; 0x3c
     e96:	e92d 4ff0 	stmdb	sp!, {r4, r5, r6, r7, r8, r9, sl, fp, lr}
     e9a:	4684      	mov	ip, r0
     e9c:	e9d0 1411 	ldrd	r1, r4, [r0, #68]	; 0x44
     ea0:	441a      	add	r2, r3
     ea2:	b087      	sub	sp, #28
     ea4:	f100 0538 	add.w	r5, r0, #56	; 0x38
     ea8:	440a      	add	r2, r1
     eaa:	f100 0b34 	add.w	fp, r0, #52	; 0x34
     eae:	e9d0 3113 	ldrd	r3, r1, [r0, #76]	; 0x4c
     eb2:	4422      	add	r2, r4
     eb4:	f100 0e30 	add.w	lr, r0, #48	; 0x30
     eb8:	f100 062c 	add.w	r6, r0, #44	; 0x2c
     ebc:	441a      	add	r2, r3
     ebe:	f100 0828 	add.w	r8, r0, #40	; 0x28
     ec2:	e9d0 3415 	ldrd	r3, r4, [r0, #84]	; 0x54
     ec6:	440a      	add	r2, r1
     ec8:	f100 0924 	add.w	r9, r0, #36	; 0x24
     ecc:	f100 0a1c 	add.w	sl, r0, #28
     ed0:	441a      	add	r2, r3
     ed2:	e9d0 3117 	ldrd	r3, r1, [r0, #92]	; 0x5c
     ed6:	4422      	add	r2, r4
     ed8:	441a      	add	r2, r3
     eda:	e9d0 3419 	ldrd	r3, r4, [r0, #100]	; 0x64
     ede:	440a      	add	r2, r1
     ee0:	441a      	add	r2, r3
     ee2:	e9d0 311b 	ldrd	r3, r1, [r0, #108]	; 0x6c
     ee6:	4422      	add	r2, r4
     ee8:	441a      	add	r2, r3
     eea:	e9d0 341d 	ldrd	r3, r4, [r0, #116]	; 0x74
     eee:	440a      	add	r2, r1
     ef0:	441a      	add	r2, r3
     ef2:	e9d0 131f 	ldrd	r1, r3, [r0, #124]	; 0x7c
     ef6:	4422      	add	r2, r4
     ef8:	440a      	add	r2, r1
     efa:	441a      	add	r2, r3
     efc:	f84c 2f3c 	str.w	r2, [ip, #60]!
     f00:	6b83      	ldr	r3, [r0, #56]	; 0x38
     f02:	6b44      	ldr	r4, [r0, #52]	; 0x34
     f04:	6a41      	ldr	r1, [r0, #36]	; 0x24
     f06:	005f      	lsls	r7, r3, #1
     f08:	eb07 0784 	add.w	r7, r7, r4, lsl #2
     f0c:	6b04      	ldr	r4, [r0, #48]	; 0x30
     f0e:	eb07 07c4 	add.w	r7, r7, r4, lsl #3
     f12:	6ac4      	ldr	r4, [r0, #44]	; 0x2c
     f14:	eb07 1704 	add.w	r7, r7, r4, lsl #4
     f18:	6a84      	ldr	r4, [r0, #40]	; 0x28
     f1a:	eb07 1744 	add.w	r7, r7, r4, lsl #5
     f1e:	f100 0418 	add.w	r4, r0, #24
     f22:	eb07 1781 	add.w	r7, r7, r1, lsl #6
     f26:	6a01      	ldr	r1, [r0, #32]
     f28:	eb07 17c1 	add.w	r7, r7, r1, lsl #7
     f2c:	69c1      	ldr	r1, [r0, #28]
     f2e:	eb07 2701 	add.w	r7, r7, r1, lsl #8
     f32:	6981      	ldr	r1, [r0, #24]
     f34:	eb07 2741 	add.w	r7, r7, r1, lsl #9
     f38:	6941      	ldr	r1, [r0, #20]
     f3a:	eb07 2781 	add.w	r7, r7, r1, lsl #10
     f3e:	6901      	ldr	r1, [r0, #16]
     f40:	eb07 27c1 	add.w	r7, r7, r1, lsl #11
     f44:	68c1      	ldr	r1, [r0, #12]
     f46:	eb07 3701 	add.w	r7, r7, r1, lsl #12
     f4a:	6881      	ldr	r1, [r0, #8]
     f4c:	9400      	str	r4, [sp, #0]
     f4e:	f100 0414 	add.w	r4, r0, #20
     f52:	9401      	str	r4, [sp, #4]
     f54:	f100 0410 	add.w	r4, r0, #16
     f58:	eb07 3741 	add.w	r7, r7, r1, lsl #13
     f5c:	6841      	ldr	r1, [r0, #4]
     f5e:	9402      	str	r4, [sp, #8]
     f60:	f100 040c 	add.w	r4, r0, #12
     f64:	9403      	str	r4, [sp, #12]
     f66:	f100 0408 	add.w	r4, r0, #8
     f6a:	eb07 3181 	add.w	r1, r7, r1, lsl #14
     f6e:	9404      	str	r4, [sp, #16]
     f70:	4411      	add	r1, r2
     f72:	1d04      	adds	r4, r0, #4
     f74:	f100 0720 	add.w	r7, r0, #32
     f78:	f5b1 4f00 	cmp.w	r1, #32768	; 0x8000
     f7c:	9405      	str	r4, [sp, #20]
     f7e:	d026      	beq.n	fce <tdefl_huffman_enforce_max_code_size.constprop.1+0x142>
     f80:	465c      	mov	r4, fp
     f82:	e001      	b.n	f88 <tdefl_huffman_enforce_max_code_size.constprop.1+0xfc>
     f84:	e9d0 320e 	ldrd	r3, r2, [r0, #56]	; 0x38
     f88:	3a01      	subs	r2, #1
     f8a:	63c2      	str	r2, [r0, #60]	; 0x3c
     f8c:	bb13      	cbnz	r3, fd4 <tdefl_huffman_enforce_max_code_size.constprop.1+0x148>
     f8e:	6b43      	ldr	r3, [r0, #52]	; 0x34
     f90:	bb4b      	cbnz	r3, fe6 <tdefl_huffman_enforce_max_code_size.constprop.1+0x15a>
     f92:	6b03      	ldr	r3, [r0, #48]	; 0x30
     f94:	bb53      	cbnz	r3, fec <tdefl_huffman_enforce_max_code_size.constprop.1+0x160>
     f96:	6ac3      	ldr	r3, [r0, #44]	; 0x2c
     f98:	bb5b      	cbnz	r3, ff2 <tdefl_huffman_enforce_max_code_size.constprop.1+0x166>
     f9a:	6a83      	ldr	r3, [r0, #40]	; 0x28
     f9c:	bb63      	cbnz	r3, ff8 <tdefl_huffman_enforce_max_code_size.constprop.1+0x16c>
     f9e:	6a43      	ldr	r3, [r0, #36]	; 0x24
     fa0:	bb73      	cbnz	r3, 1000 <tdefl_huffman_enforce_max_code_size.constprop.1+0x174>
     fa2:	6a03      	ldr	r3, [r0, #32]
     fa4:	bb7b      	cbnz	r3, 1006 <tdefl_huffman_enforce_max_code_size.constprop.1+0x17a>
     fa6:	69c3      	ldr	r3, [r0, #28]
     fa8:	bb83      	cbnz	r3, 100c <tdefl_huffman_enforce_max_code_size.constprop.1+0x180>
     faa:	6983      	ldr	r3, [r0, #24]
     fac:	bb8b      	cbnz	r3, 1012 <tdefl_huffman_enforce_max_code_size.constprop.1+0x186>
     fae:	6943      	ldr	r3, [r0, #20]
     fb0:	bb9b      	cbnz	r3, 101a <tdefl_huffman_enforce_max_code_size.constprop.1+0x18e>
     fb2:	6903      	ldr	r3, [r0, #16]
     fb4:	bba3      	cbnz	r3, 1020 <tdefl_huffman_enforce_max_code_size.constprop.1+0x194>
     fb6:	68c3      	ldr	r3, [r0, #12]
     fb8:	bbab      	cbnz	r3, 1026 <tdefl_huffman_enforce_max_code_size.constprop.1+0x19a>
     fba:	6883      	ldr	r3, [r0, #8]
     fbc:	bbb3      	cbnz	r3, 102c <tdefl_huffman_enforce_max_code_size.constprop.1+0x1a0>
     fbe:	6843      	ldr	r3, [r0, #4]
     fc0:	e9dd 2b04 	ldrd	r2, fp, [sp, #16]
     fc4:	b943      	cbnz	r3, fd8 <tdefl_huffman_enforce_max_code_size.constprop.1+0x14c>
     fc6:	3901      	subs	r1, #1
     fc8:	f5b1 4f00 	cmp.w	r1, #32768	; 0x8000
     fcc:	d1da      	bne.n	f84 <tdefl_huffman_enforce_max_code_size.constprop.1+0xf8>
     fce:	b007      	add	sp, #28
     fd0:	e8bd 8ff0 	ldmia.w	sp!, {r4, r5, r6, r7, r8, r9, sl, fp, pc}
     fd4:	4662      	mov	r2, ip
     fd6:	46ab      	mov	fp, r5
     fd8:	3b01      	subs	r3, #1
     fda:	f8cb 3000 	str.w	r3, [fp]
     fde:	6813      	ldr	r3, [r2, #0]
     fe0:	3302      	adds	r3, #2
     fe2:	6013      	str	r3, [r2, #0]
     fe4:	e7ef      	b.n	fc6 <tdefl_huffman_enforce_max_code_size.constprop.1+0x13a>
     fe6:	462a      	mov	r2, r5
     fe8:	46a3      	mov	fp, r4
     fea:	e7f5      	b.n	fd8 <tdefl_huffman_enforce_max_code_size.constprop.1+0x14c>
     fec:	4622      	mov	r2, r4
     fee:	46f3      	mov	fp, lr
     ff0:	e7f2      	b.n	fd8 <tdefl_huffman_enforce_max_code_size.constprop.1+0x14c>
     ff2:	4672      	mov	r2, lr
     ff4:	46b3      	mov	fp, r6
     ff6:	e7ef      	b.n	fd8 <tdefl_huffman_enforce_max_code_size.constprop.1+0x14c>
     ff8:	4632      	mov	r2, r6
     ffa:	46c3      	mov	fp, r8
     ffc:	e7ec      	b.n	fd8 <tdefl_huffman_enforce_max_code_size.constprop.1+0x14c>
     ffe:	4770      	bx	lr
    1000:	4642      	mov	r2, r8
    1002:	46cb      	mov	fp, r9
    1004:	e7e8      	b.n	fd8 <tdefl_huffman_enforce_max_code_size.constprop.1+0x14c>
    1006:	464a      	mov	r2, r9
    1008:	46bb      	mov	fp, r7
    100a:	e7e5      	b.n	fd8 <tdefl_huffman_enforce_max_code_size.constprop.1+0x14c>
    100c:	463a      	mov	r2, r7
    100e:	46d3      	mov	fp, sl
    1010:	e7e2      	b.n	fd8 <tdefl_huffman_enforce_max_code_size.constprop.1+0x14c>
    1012:	f8dd b000 	ldr.w	fp, [sp]
    1016:	4652      	mov	r2, sl
    1018:	e7de      	b.n	fd8 <tdefl_huffman_enforce_max_code_size.constprop.1+0x14c>
    101a:	e9dd 2b00 	ldrd	r2, fp, [sp]
    101e:	e7db      	b.n	fd8 <tdefl_huffman_enforce_max_code_size.constprop.1+0x14c>
    1020:	e9dd 2b01 	ldrd	r2, fp, [sp, #4]
    1024:	e7d8      	b.n	fd8 <tdefl_huffman_enforce_max_code_size.constprop.1+0x14c>
    1026:	e9dd 2b02 	ldrd	r2, fp, [sp, #8]
    102a:	e7d5      	b.n	fd8 <tdefl_huffman_enforce_max_code_size.constprop.1+0x14c>
    102c:	e9dd 2b03 	ldrd	r2, fp, [sp, #12]
    1030:	e7d2      	b.n	fd8 <tdefl_huffman_enforce_max_code_size.constprop.1+0x14c>
    1032:	bf00      	nop

00001034 <tdefl_optimize_huffman_table.constprop.1>:
    1034:	e92d 47f0 	stmdb	sp!, {r4, r5, r6, r7, r8, r9, sl, lr}
    1038:	4605      	mov	r5, r0
    103a:	487a      	ldr	r0, [pc, #488]	; (1224 <tdefl_optimize_huffman_table.constprop.1+0x1f0>)
    103c:	4b7a      	ldr	r3, [pc, #488]	; (1228 <tdefl_optimize_huffman_table.constprop.1+0x1f4>)
    103e:	f6ad 1d88 	subw	sp, sp, #2440	; 0x988
    1042:	4478      	add	r0, pc
    1044:	466e      	mov	r6, sp
    1046:	460f      	mov	r7, r1
    1048:	2284      	movs	r2, #132	; 0x84
    104a:	2100      	movs	r1, #0
    104c:	58c3      	ldr	r3, [r0, r3]
    104e:	4630      	mov	r0, r6
    1050:	681b      	ldr	r3, [r3, #0]
    1052:	f8cd 3984 	str.w	r3, [sp, #2436]	; 0x984
    1056:	f04f 0300 	mov.w	r3, #0
    105a:	f7ff fffe 	bl	0 <memset>
    105e:	2f00      	cmp	r7, #0
    1060:	d07a      	beq.n	1158 <tdefl_optimize_huffman_table.constprop.1+0x124>
    1062:	f505 400f 	add.w	r0, r5, #36608	; 0x8f00
    1066:	f505 4c10 	add.w	ip, r5, #36864	; 0x9000
    106a:	3011      	adds	r0, #17
    106c:	f10c 0c31 	add.w	ip, ip, #49	; 0x31
    1070:	4602      	mov	r2, r0
    1072:	f812 1f01 	ldrb.w	r1, [r2, #1]!
    1076:	4594      	cmp	ip, r2
    1078:	f856 3021 	ldr.w	r3, [r6, r1, lsl #2]
    107c:	f103 0301 	add.w	r3, r3, #1
    1080:	f846 3021 	str.w	r3, [r6, r1, lsl #2]
    1084:	d1f5      	bne.n	1072 <tdefl_optimize_huffman_table.constprop.1+0x3e>
    1086:	f20d 5404 	addw	r4, sp, #1284	; 0x504
    108a:	6873      	ldr	r3, [r6, #4]
    108c:	68b2      	ldr	r2, [r6, #8]
    108e:	005b      	lsls	r3, r3, #1
    1090:	60a3      	str	r3, [r4, #8]
    1092:	4413      	add	r3, r2
    1094:	68f2      	ldr	r2, [r6, #12]
    1096:	005b      	lsls	r3, r3, #1
    1098:	60e3      	str	r3, [r4, #12]
    109a:	4413      	add	r3, r2
    109c:	6932      	ldr	r2, [r6, #16]
    109e:	005b      	lsls	r3, r3, #1
    10a0:	6123      	str	r3, [r4, #16]
    10a2:	4413      	add	r3, r2
    10a4:	6972      	ldr	r2, [r6, #20]
    10a6:	005b      	lsls	r3, r3, #1
    10a8:	6163      	str	r3, [r4, #20]
    10aa:	4413      	add	r3, r2
    10ac:	69b2      	ldr	r2, [r6, #24]
    10ae:	005b      	lsls	r3, r3, #1
    10b0:	61a3      	str	r3, [r4, #24]
    10b2:	4413      	add	r3, r2
    10b4:	69f2      	ldr	r2, [r6, #28]
    10b6:	005b      	lsls	r3, r3, #1
    10b8:	61e3      	str	r3, [r4, #28]
    10ba:	4413      	add	r3, r2
    10bc:	6a32      	ldr	r2, [r6, #32]
    10be:	005b      	lsls	r3, r3, #1
    10c0:	6223      	str	r3, [r4, #32]
    10c2:	4413      	add	r3, r2
    10c4:	6a72      	ldr	r2, [r6, #36]	; 0x24
    10c6:	005b      	lsls	r3, r3, #1
    10c8:	6263      	str	r3, [r4, #36]	; 0x24
    10ca:	4413      	add	r3, r2
    10cc:	6ab2      	ldr	r2, [r6, #40]	; 0x28
    10ce:	005b      	lsls	r3, r3, #1
    10d0:	62a3      	str	r3, [r4, #40]	; 0x28
    10d2:	4413      	add	r3, r2
    10d4:	6af2      	ldr	r2, [r6, #44]	; 0x2c
    10d6:	005b      	lsls	r3, r3, #1
    10d8:	62e3      	str	r3, [r4, #44]	; 0x2c
    10da:	4413      	add	r3, r2
    10dc:	6b32      	ldr	r2, [r6, #48]	; 0x30
    10de:	005b      	lsls	r3, r3, #1
    10e0:	6323      	str	r3, [r4, #48]	; 0x30
    10e2:	4413      	add	r3, r2
    10e4:	6b72      	ldr	r2, [r6, #52]	; 0x34
    10e6:	005b      	lsls	r3, r3, #1
    10e8:	6363      	str	r3, [r4, #52]	; 0x34
    10ea:	4413      	add	r3, r2
    10ec:	6bb2      	ldr	r2, [r6, #56]	; 0x38
    10ee:	f646 262e 	movw	r6, #27182	; 0x6a2e
    10f2:	f6cf 76ff 	movt	r6, #65535	; 0xffff
    10f6:	005b      	lsls	r3, r3, #1
    10f8:	63a3      	str	r3, [r4, #56]	; 0x38
    10fa:	4413      	add	r3, r2
    10fc:	1b76      	subs	r6, r6, r5
    10fe:	005b      	lsls	r3, r3, #1
    1100:	63e3      	str	r3, [r4, #60]	; 0x3c
    1102:	2300      	movs	r3, #0
    1104:	6063      	str	r3, [r4, #4]
    1106:	e001      	b.n	110c <tdefl_optimize_huffman_table.constprop.1+0xd8>
    1108:	4584      	cmp	ip, r0
    110a:	d016      	beq.n	113a <tdefl_optimize_huffman_table.constprop.1+0x106>
    110c:	f810 3f01 	ldrb.w	r3, [r0, #1]!
    1110:	2b00      	cmp	r3, #0
    1112:	d0f9      	beq.n	1108 <tdefl_optimize_huffman_table.constprop.1+0xd4>
    1114:	f854 2023 	ldr.w	r2, [r4, r3, lsl #2]
    1118:	4619      	mov	r1, r3
    111a:	2500      	movs	r5, #0
    111c:	1c57      	adds	r7, r2, #1
    111e:	f844 7023 	str.w	r7, [r4, r3, lsl #2]
    1122:	f002 0301 	and.w	r3, r2, #1
    1126:	3901      	subs	r1, #1
    1128:	ea43 0545 	orr.w	r5, r3, r5, lsl #1
    112c:	ea4f 0252 	mov.w	r2, r2, lsr #1
    1130:	d1f7      	bne.n	1122 <tdefl_optimize_huffman_table.constprop.1+0xee>
    1132:	4584      	cmp	ip, r0
    1134:	f826 5010 	strh.w	r5, [r6, r0, lsl #1]
    1138:	d1e8      	bne.n	110c <tdefl_optimize_huffman_table.constprop.1+0xd8>
    113a:	4a3c      	ldr	r2, [pc, #240]	; (122c <tdefl_optimize_huffman_table.constprop.1+0x1f8>)
    113c:	4b3a      	ldr	r3, [pc, #232]	; (1228 <tdefl_optimize_huffman_table.constprop.1+0x1f4>)
    113e:	447a      	add	r2, pc
    1140:	58d3      	ldr	r3, [r2, r3]
    1142:	681a      	ldr	r2, [r3, #0]
    1144:	f8dd 3984 	ldr.w	r3, [sp, #2436]	; 0x984
    1148:	405a      	eors	r2, r3
    114a:	f04f 0300 	mov.w	r3, #0
    114e:	d167      	bne.n	1220 <tdefl_optimize_huffman_table.constprop.1+0x1ec>
    1150:	f60d 1d88 	addw	sp, sp, #2440	; 0x988
    1154:	e8bd 87f0 	ldmia.w	sp!, {r4, r5, r6, r7, r8, r9, sl, pc}
    1158:	f505 4001 	add.w	r0, r5, #33024	; 0x8100
    115c:	46b8      	mov	r8, r7
    115e:	3090      	adds	r0, #144	; 0x90
    1160:	463b      	mov	r3, r7
    1162:	a921      	add	r1, sp, #132	; 0x84
    1164:	f830 2f02 	ldrh.w	r2, [r0, #2]!
    1168:	b132      	cbz	r2, 1178 <tdefl_optimize_huffman_table.constprop.1+0x144>
    116a:	eb01 0488 	add.w	r4, r1, r8, lsl #2
    116e:	f821 2028 	strh.w	r2, [r1, r8, lsl #2]
    1172:	f108 0801 	add.w	r8, r8, #1
    1176:	8063      	strh	r3, [r4, #2]
    1178:	3301      	adds	r3, #1
    117a:	f5b3 7f90 	cmp.w	r3, #288	; 0x120
    117e:	d1f1      	bne.n	1164 <tdefl_optimize_huffman_table.constprop.1+0x130>
    1180:	f20d 5404 	addw	r4, sp, #1284	; 0x504
    1184:	4640      	mov	r0, r8
    1186:	4622      	mov	r2, r4
    1188:	f7ff fc8e 	bl	aa8 <tdefl_radix_sort_syms>
    118c:	4641      	mov	r1, r8
    118e:	4681      	mov	r9, r0
    1190:	f7fe ff36 	bl	0 <tdefl_calculate_minimum_redundancy>
    1194:	f1b8 0f00 	cmp.w	r8, #0
    1198:	d00a      	beq.n	11b0 <tdefl_optimize_huffman_table.constprop.1+0x17c>
    119a:	f839 2027 	ldrh.w	r2, [r9, r7, lsl #2]
    119e:	3701      	adds	r7, #1
    11a0:	4547      	cmp	r7, r8
    11a2:	f856 3022 	ldr.w	r3, [r6, r2, lsl #2]
    11a6:	f103 0301 	add.w	r3, r3, #1
    11aa:	f846 3022 	str.w	r3, [r6, r2, lsl #2]
    11ae:	d1f4      	bne.n	119a <tdefl_optimize_huffman_table.constprop.1+0x166>
    11b0:	4641      	mov	r1, r8
    11b2:	4630      	mov	r0, r6
    11b4:	f7ff fe6a 	bl	e8c <tdefl_huffman_enforce_max_code_size.constprop.1>
    11b8:	f648 7712 	movw	r7, #36626	; 0x8f12
    11bc:	f44f 7290 	mov.w	r2, #288	; 0x120
    11c0:	2100      	movs	r1, #0
    11c2:	19e8      	adds	r0, r5, r7
    11c4:	46b2      	mov	sl, r6
    11c6:	f7ff fffe 	bl	0 <memset>
    11ca:	f505 4008 	add.w	r0, r5, #34816	; 0x8800
    11ce:	3052      	adds	r0, #82	; 0x52
    11d0:	f44f 7210 	mov.w	r2, #576	; 0x240
    11d4:	2100      	movs	r1, #0
    11d6:	f7ff fffe 	bl	0 <memset>
    11da:	f04f 0c01 	mov.w	ip, #1
    11de:	f85a ef04 	ldr.w	lr, [sl, #4]!
    11e2:	f1be 0f00 	cmp.w	lr, #0
    11e6:	dd0e      	ble.n	1206 <tdefl_optimize_huffman_table.constprop.1+0x1d2>
    11e8:	eb09 0388 	add.w	r3, r9, r8, lsl #2
    11ec:	fa5f f08c 	uxtb.w	r0, ip
    11f0:	eba3 018e 	sub.w	r1, r3, lr, lsl #2
    11f4:	f833 2c02 	ldrh.w	r2, [r3, #-2]
    11f8:	3b04      	subs	r3, #4
    11fa:	428b      	cmp	r3, r1
    11fc:	442a      	add	r2, r5
    11fe:	55d0      	strb	r0, [r2, r7]
    1200:	d1f8      	bne.n	11f4 <tdefl_optimize_huffman_table.constprop.1+0x1c0>
    1202:	eba8 080e 	sub.w	r8, r8, lr
    1206:	f10c 0c01 	add.w	ip, ip, #1
    120a:	f1bc 0f10 	cmp.w	ip, #16
    120e:	d1e6      	bne.n	11de <tdefl_optimize_huffman_table.constprop.1+0x1aa>
    1210:	f505 400f 	add.w	r0, r5, #36608	; 0x8f00
    1214:	f505 4c10 	add.w	ip, r5, #36864	; 0x9000
    1218:	3011      	adds	r0, #17
    121a:	f10c 0c31 	add.w	ip, ip, #49	; 0x31
    121e:	e734      	b.n	108a <tdefl_optimize_huffman_table.constprop.1+0x56>
    1220:	f7ff fffe 	bl	0 <__stack_chk_fail>
    1224:	000001de 	.word	0x000001de
    1228:	00000000 	.word	0x00000000
    122c:	000000ea 	.word	0x000000ea

00001230 <tdefl_optimize_huffman_table.constprop.0>:
    1230:	e92d 47f0 	stmdb	sp!, {r4, r5, r6, r7, r8, r9, sl, lr}
    1234:	4605      	mov	r5, r0
    1236:	4879      	ldr	r0, [pc, #484]	; (141c <tdefl_optimize_huffman_table.constprop.0+0x1ec>)
    1238:	4b79      	ldr	r3, [pc, #484]	; (1420 <tdefl_optimize_huffman_table.constprop.0+0x1f0>)
    123a:	f6ad 1d88 	subw	sp, sp, #2440	; 0x988
    123e:	4478      	add	r0, pc
    1240:	466e      	mov	r6, sp
    1242:	460f      	mov	r7, r1
    1244:	2284      	movs	r2, #132	; 0x84
    1246:	2100      	movs	r1, #0
    1248:	58c3      	ldr	r3, [r0, r3]
    124a:	4630      	mov	r0, r6
    124c:	681b      	ldr	r3, [r3, #0]
    124e:	f8cd 3984 	str.w	r3, [sp, #2436]	; 0x984
    1252:	f04f 0300 	mov.w	r3, #0
    1256:	f7ff fffe 	bl	0 <memset>
    125a:	2f00      	cmp	r7, #0
    125c:	d079      	beq.n	1352 <tdefl_optimize_huffman_table.constprop.0+0x122>
    125e:	f505 4010 	add.w	r0, r5, #36864	; 0x9000
    1262:	4684      	mov	ip, r0
    1264:	3031      	adds	r0, #49	; 0x31
    1266:	f10c 0c51 	add.w	ip, ip, #81	; 0x51
    126a:	4602      	mov	r2, r0
    126c:	f812 1f01 	ldrb.w	r1, [r2, #1]!
    1270:	4594      	cmp	ip, r2
    1272:	f856 3021 	ldr.w	r3, [r6, r1, lsl #2]
    1276:	f103 0301 	add.w	r3, r3, #1
    127a:	f846 3021 	str.w	r3, [r6, r1, lsl #2]
    127e:	d1f5      	bne.n	126c <tdefl_optimize_huffman_table.constprop.0+0x3c>
    1280:	f20d 5404 	addw	r4, sp, #1284	; 0x504
    1284:	6873      	ldr	r3, [r6, #4]
    1286:	68b2      	ldr	r2, [r6, #8]
    1288:	005b      	lsls	r3, r3, #1
    128a:	60a3      	str	r3, [r4, #8]
    128c:	4413      	add	r3, r2
    128e:	68f2      	ldr	r2, [r6, #12]
    1290:	005b      	lsls	r3, r3, #1
    1292:	60e3      	str	r3, [r4, #12]
    1294:	4413      	add	r3, r2
    1296:	6932      	ldr	r2, [r6, #16]
    1298:	005b      	lsls	r3, r3, #1
    129a:	6123      	str	r3, [r4, #16]
    129c:	4413      	add	r3, r2
    129e:	6972      	ldr	r2, [r6, #20]
    12a0:	005b      	lsls	r3, r3, #1
    12a2:	6163      	str	r3, [r4, #20]
    12a4:	4413      	add	r3, r2
    12a6:	69b2      	ldr	r2, [r6, #24]
    12a8:	005b      	lsls	r3, r3, #1
    12aa:	61a3      	str	r3, [r4, #24]
    12ac:	4413      	add	r3, r2
    12ae:	69f2      	ldr	r2, [r6, #28]
    12b0:	005b      	lsls	r3, r3, #1
    12b2:	61e3      	str	r3, [r4, #28]
    12b4:	4413      	add	r3, r2
    12b6:	6a32      	ldr	r2, [r6, #32]
    12b8:	005b      	lsls	r3, r3, #1
    12ba:	6223      	str	r3, [r4, #32]
    12bc:	4413      	add	r3, r2
    12be:	6a72      	ldr	r2, [r6, #36]	; 0x24
    12c0:	005b      	lsls	r3, r3, #1
    12c2:	6263      	str	r3, [r4, #36]	; 0x24
    12c4:	4413      	add	r3, r2
    12c6:	6ab2      	ldr	r2, [r6, #40]	; 0x28
    12c8:	005b      	lsls	r3, r3, #1
    12ca:	62a3      	str	r3, [r4, #40]	; 0x28
    12cc:	4413      	add	r3, r2
    12ce:	6af2      	ldr	r2, [r6, #44]	; 0x2c
    12d0:	005b      	lsls	r3, r3, #1
    12d2:	62e3      	str	r3, [r4, #44]	; 0x2c
    12d4:	4413      	add	r3, r2
    12d6:	6b32      	ldr	r2, [r6, #48]	; 0x30
    12d8:	005b      	lsls	r3, r3, #1
    12da:	6323      	str	r3, [r4, #48]	; 0x30
    12dc:	4413      	add	r3, r2
    12de:	6b72      	ldr	r2, [r6, #52]	; 0x34
    12e0:	005b      	lsls	r3, r3, #1
    12e2:	6363      	str	r3, [r4, #52]	; 0x34
    12e4:	4413      	add	r3, r2
    12e6:	6bb2      	ldr	r2, [r6, #56]	; 0x38
    12e8:	f646 262e 	movw	r6, #27182	; 0x6a2e
    12ec:	f6cf 76ff 	movt	r6, #65535	; 0xffff
    12f0:	005b      	lsls	r3, r3, #1
    12f2:	63a3      	str	r3, [r4, #56]	; 0x38
    12f4:	4413      	add	r3, r2
    12f6:	1b76      	subs	r6, r6, r5
    12f8:	005b      	lsls	r3, r3, #1
    12fa:	63e3      	str	r3, [r4, #60]	; 0x3c
    12fc:	2300      	movs	r3, #0
    12fe:	6063      	str	r3, [r4, #4]
    1300:	e001      	b.n	1306 <tdefl_optimize_huffman_table.constprop.0+0xd6>
    1302:	4584      	cmp	ip, r0
    1304:	d016      	beq.n	1334 <tdefl_optimize_huffman_table.constprop.0+0x104>
    1306:	f810 3f01 	ldrb.w	r3, [r0, #1]!
    130a:	2b00      	cmp	r3, #0
    130c:	d0f9      	beq.n	1302 <tdefl_optimize_huffman_table.constprop.0+0xd2>
    130e:	f854 2023 	ldr.w	r2, [r4, r3, lsl #2]
    1312:	4619      	mov	r1, r3
    1314:	2500      	movs	r5, #0
    1316:	1c57      	adds	r7, r2, #1
    1318:	f844 7023 	str.w	r7, [r4, r3, lsl #2]
    131c:	f002 0301 	and.w	r3, r2, #1
    1320:	3901      	subs	r1, #1
    1322:	ea43 0545 	orr.w	r5, r3, r5, lsl #1
    1326:	ea4f 0252 	mov.w	r2, r2, lsr #1
    132a:	d1f7      	bne.n	131c <tdefl_optimize_huffman_table.constprop.0+0xec>
    132c:	4584      	cmp	ip, r0
    132e:	f826 5010 	strh.w	r5, [r6, r0, lsl #1]
    1332:	d1e8      	bne.n	1306 <tdefl_optimize_huffman_table.constprop.0+0xd6>
    1334:	4a3b      	ldr	r2, [pc, #236]	; (1424 <tdefl_optimize_huffman_table.constprop.0+0x1f4>)
    1336:	4b3a      	ldr	r3, [pc, #232]	; (1420 <tdefl_optimize_huffman_table.constprop.0+0x1f0>)
    1338:	447a      	add	r2, pc
    133a:	58d3      	ldr	r3, [r2, r3]
    133c:	681a      	ldr	r2, [r3, #0]
    133e:	f8dd 3984 	ldr.w	r3, [sp, #2436]	; 0x984
    1342:	405a      	eors	r2, r3
    1344:	f04f 0300 	mov.w	r3, #0
    1348:	d165      	bne.n	1416 <tdefl_optimize_huffman_table.constprop.0+0x1e6>
    134a:	f60d 1d88 	addw	sp, sp, #2440	; 0x988
    134e:	e8bd 87f0 	ldmia.w	sp!, {r4, r5, r6, r7, r8, r9, sl, pc}
    1352:	f505 4003 	add.w	r0, r5, #33536	; 0x8300
    1356:	46b8      	mov	r8, r7
    1358:	30d0      	adds	r0, #208	; 0xd0
    135a:	463b      	mov	r3, r7
    135c:	a921      	add	r1, sp, #132	; 0x84
    135e:	f830 2f02 	ldrh.w	r2, [r0, #2]!
    1362:	b132      	cbz	r2, 1372 <tdefl_optimize_huffman_table.constprop.0+0x142>
    1364:	eb01 0488 	add.w	r4, r1, r8, lsl #2
    1368:	f821 2028 	strh.w	r2, [r1, r8, lsl #2]
    136c:	f108 0801 	add.w	r8, r8, #1
    1370:	8063      	strh	r3, [r4, #2]
    1372:	3301      	adds	r3, #1
    1374:	2b20      	cmp	r3, #32
    1376:	d1f2      	bne.n	135e <tdefl_optimize_huffman_table.constprop.0+0x12e>
    1378:	f20d 5404 	addw	r4, sp, #1284	; 0x504
    137c:	4640      	mov	r0, r8
    137e:	4622      	mov	r2, r4
    1380:	f7ff fb92 	bl	aa8 <tdefl_radix_sort_syms>
    1384:	4641      	mov	r1, r8
    1386:	4681      	mov	r9, r0
    1388:	f7fe fe3a 	bl	0 <tdefl_calculate_minimum_redundancy>
    138c:	f1b8 0f00 	cmp.w	r8, #0
    1390:	d00a      	beq.n	13a8 <tdefl_optimize_huffman_table.constprop.0+0x178>
    1392:	f839 2027 	ldrh.w	r2, [r9, r7, lsl #2]
    1396:	3701      	adds	r7, #1
    1398:	4547      	cmp	r7, r8
    139a:	f856 3022 	ldr.w	r3, [r6, r2, lsl #2]
    139e:	f103 0301 	add.w	r3, r3, #1
    13a2:	f846 3022 	str.w	r3, [r6, r2, lsl #2]
    13a6:	d1f4      	bne.n	1392 <tdefl_optimize_huffman_table.constprop.0+0x162>
    13a8:	4641      	mov	r1, r8
    13aa:	4630      	mov	r0, r6
    13ac:	f7ff fd6e 	bl	e8c <tdefl_huffman_enforce_max_code_size.constprop.1>
    13b0:	f249 0732 	movw	r7, #36914	; 0x9032
    13b4:	f44f 7290 	mov.w	r2, #288	; 0x120
    13b8:	2100      	movs	r1, #0
    13ba:	19e8      	adds	r0, r5, r7
    13bc:	46b2      	mov	sl, r6
    13be:	f7ff fffe 	bl	0 <memset>
    13c2:	f505 400a 	add.w	r0, r5, #35328	; 0x8a00
    13c6:	3092      	adds	r0, #146	; 0x92
    13c8:	f44f 7210 	mov.w	r2, #576	; 0x240
    13cc:	2100      	movs	r1, #0
    13ce:	f7ff fffe 	bl	0 <memset>
    13d2:	f04f 0c01 	mov.w	ip, #1
    13d6:	f85a ef04 	ldr.w	lr, [sl, #4]!
    13da:	f1be 0f00 	cmp.w	lr, #0
    13de:	dd0e      	ble.n	13fe <tdefl_optimize_huffman_table.constprop.0+0x1ce>
    13e0:	eb09 0388 	add.w	r3, r9, r8, lsl #2
    13e4:	fa5f f08c 	uxtb.w	r0, ip
    13e8:	eba3 018e 	sub.w	r1, r3, lr, lsl #2
    13ec:	f833 2c02 	ldrh.w	r2, [r3, #-2]
    13f0:	3b04      	subs	r3, #4
    13f2:	428b      	cmp	r3, r1
    13f4:	442a      	add	r2, r5
    13f6:	55d0      	strb	r0, [r2, r7]
    13f8:	d1f8      	bne.n	13ec <tdefl_optimize_huffman_table.constprop.0+0x1bc>
    13fa:	eba8 080e 	sub.w	r8, r8, lr
    13fe:	f10c 0c01 	add.w	ip, ip, #1
    1402:	f1bc 0f10 	cmp.w	ip, #16
    1406:	d1e6      	bne.n	13d6 <tdefl_optimize_huffman_table.constprop.0+0x1a6>
    1408:	f505 4010 	add.w	r0, r5, #36864	; 0x9000
    140c:	4684      	mov	ip, r0
    140e:	3031      	adds	r0, #49	; 0x31
    1410:	f10c 0c51 	add.w	ip, ip, #81	; 0x51
    1414:	e736      	b.n	1284 <tdefl_optimize_huffman_table.constprop.0+0x54>
    1416:	f7ff fffe 	bl	0 <__stack_chk_fail>
    141a:	bf00      	nop
    141c:	000001da 	.word	0x000001da
    1420:	00000000 	.word	0x00000000
    1424:	000000e8 	.word	0x000000e8

00001428 <tdefl_start_static_block>:
    1428:	b538      	push	{r3, r4, r5, lr}
    142a:	4604      	mov	r4, r0
    142c:	f500 400f 	add.w	r0, r0, #36608	; 0x8f00
    1430:	2290      	movs	r2, #144	; 0x90
    1432:	2108      	movs	r1, #8
    1434:	3012      	adds	r0, #18
    1436:	f7ff fffe 	bl	0 <memset>
    143a:	f504 400f 	add.w	r0, r4, #36608	; 0x8f00
    143e:	2270      	movs	r2, #112	; 0x70
    1440:	2109      	movs	r1, #9
    1442:	30a2      	adds	r0, #162	; 0xa2
    1444:	f7ff fffe 	bl	0 <memset>
    1448:	f249 0012 	movw	r0, #36882	; 0x9012
    144c:	f249 012a 	movw	r1, #36906	; 0x902a
    1450:	1822      	adds	r2, r4, r0
    1452:	1865      	adds	r5, r4, r1
    1454:	f04f 3307 	mov.w	r3, #117901063	; 0x7070707
    1458:	5023      	str	r3, [r4, r0]
    145a:	f504 4010 	add.w	r0, r4, #36864	; 0x9000
    145e:	6053      	str	r3, [r2, #4]
    1460:	3032      	adds	r0, #50	; 0x32
    1462:	6093      	str	r3, [r2, #8]
    1464:	60d3      	str	r3, [r2, #12]
    1466:	6113      	str	r3, [r2, #16]
    1468:	6153      	str	r3, [r2, #20]
    146a:	f04f 3308 	mov.w	r3, #134744072	; 0x8080808
    146e:	2220      	movs	r2, #32
    1470:	5063      	str	r3, [r4, r1]
    1472:	606b      	str	r3, [r5, #4]
    1474:	2105      	movs	r1, #5
    1476:	f7ff fffe 	bl	0 <memset>
    147a:	2101      	movs	r1, #1
    147c:	4620      	mov	r0, r4
    147e:	f7ff fdd9 	bl	1034 <tdefl_optimize_huffman_table.constprop.1>
    1482:	2101      	movs	r1, #1
    1484:	4620      	mov	r0, r4
    1486:	f7ff fed3 	bl	1230 <tdefl_optimize_huffman_table.constprop.0>
    148a:	6c61      	ldr	r1, [r4, #68]	; 0x44
    148c:	2201      	movs	r2, #1
    148e:	6ca0      	ldr	r0, [r4, #72]	; 0x48
    1490:	1c8b      	adds	r3, r1, #2
    1492:	6463      	str	r3, [r4, #68]	; 0x44
    1494:	408a      	lsls	r2, r1
    1496:	2b07      	cmp	r3, #7
    1498:	ea42 0200 	orr.w	r2, r2, r0
    149c:	64a2      	str	r2, [r4, #72]	; 0x48
    149e:	d90e      	bls.n	14be <tdefl_start_static_block+0x96>
    14a0:	e9d4 100c 	ldrd	r1, r0, [r4, #48]	; 0x30
    14a4:	1c4d      	adds	r5, r1, #1
    14a6:	4281      	cmp	r1, r0
    14a8:	d20a      	bcs.n	14c0 <tdefl_start_static_block+0x98>
    14aa:	6325      	str	r5, [r4, #48]	; 0x30
    14ac:	700a      	strb	r2, [r1, #0]
    14ae:	e9d4 3211 	ldrd	r3, r2, [r4, #68]	; 0x44
    14b2:	3b08      	subs	r3, #8
    14b4:	6463      	str	r3, [r4, #68]	; 0x44
    14b6:	0a12      	lsrs	r2, r2, #8
    14b8:	2b07      	cmp	r3, #7
    14ba:	64a2      	str	r2, [r4, #72]	; 0x48
    14bc:	d8f0      	bhi.n	14a0 <tdefl_start_static_block+0x78>
    14be:	bd38      	pop	{r3, r4, r5, pc}
    14c0:	3b08      	subs	r3, #8
    14c2:	0a12      	lsrs	r2, r2, #8
    14c4:	2b07      	cmp	r3, #7
    14c6:	e9c4 3211 	strd	r3, r2, [r4, #68]	; 0x44
    14ca:	d9f8      	bls.n	14be <tdefl_start_static_block+0x96>
    14cc:	3b08      	subs	r3, #8
    14ce:	0a12      	lsrs	r2, r2, #8
    14d0:	2b07      	cmp	r3, #7
    14d2:	d8fb      	bhi.n	14cc <tdefl_start_static_block+0xa4>
    14d4:	e9c4 3211 	strd	r3, r2, [r4, #68]	; 0x44
    14d8:	bd38      	pop	{r3, r4, r5, pc}
    14da:	bf00      	nop

000014dc <tdefl_start_dynamic_block>:
    14dc:	e92d 4ff0 	stmdb	sp!, {r4, r5, r6, r7, r8, r9, sl, fp, lr}
    14e0:	f500 4900 	add.w	r9, r0, #32768	; 0x8000
    14e4:	f8df 58d0 	ldr.w	r5, [pc, #2256]	; 1db8 <tdefl_start_dynamic_block+0x8dc>
    14e8:	f8df 28d0 	ldr.w	r2, [pc, #2256]	; 1dbc <tdefl_start_dynamic_block+0x8e0>
    14ec:	f6ad 4d1c 	subw	sp, sp, #3100	; 0xc1c
    14f0:	447d      	add	r5, pc
    14f2:	2301      	movs	r3, #1
    14f4:	4604      	mov	r4, r0
    14f6:	2100      	movs	r1, #0
    14f8:	58aa      	ldr	r2, [r5, r2]
    14fa:	f44f 758f 	mov.w	r5, #286	; 0x11e
    14fe:	6812      	ldr	r2, [r2, #0]
    1500:	f8cd 2c14 	str.w	r2, [sp, #3092]	; 0xc14
    1504:	f04f 0200 	mov.w	r2, #0
    1508:	f8a9 3392 	strh.w	r3, [r9, #914]	; 0x392
    150c:	f7ff fd92 	bl	1034 <tdefl_optimize_huffman_table.constprop.1>
    1510:	2100      	movs	r1, #0
    1512:	4620      	mov	r0, r4
    1514:	f7ff fe8c 	bl	1230 <tdefl_optimize_huffman_table.constprop.0>
    1518:	f504 4310 	add.w	r3, r4, #36864	; 0x9000
    151c:	3330      	adds	r3, #48	; 0x30
    151e:	f240 1101 	movw	r1, #257	; 0x101
    1522:	e002      	b.n	152a <tdefl_start_dynamic_block+0x4e>
    1524:	428d      	cmp	r5, r1
    1526:	f000 83c9 	beq.w	1cbc <tdefl_start_dynamic_block+0x7e0>
    152a:	f813 2d01 	ldrb.w	r2, [r3, #-1]!
    152e:	462f      	mov	r7, r5
    1530:	3d01      	subs	r5, #1
    1532:	2a00      	cmp	r2, #0
    1534:	d0f6      	beq.n	1524 <tdefl_start_dynamic_block+0x48>
    1536:	f46f 7380 	mvn.w	r3, #256	; 0x100
    153a:	463d      	mov	r5, r7
    153c:	18fb      	adds	r3, r7, r3
    153e:	9301      	str	r3, [sp, #4]
    1540:	f504 4310 	add.w	r3, r4, #36864	; 0x9000
    1544:	261e      	movs	r6, #30
    1546:	3350      	adds	r3, #80	; 0x50
    1548:	e002      	b.n	1550 <tdefl_start_dynamic_block+0x74>
    154a:	2e01      	cmp	r6, #1
    154c:	f000 83cd 	beq.w	1cea <tdefl_start_dynamic_block+0x80e>
    1550:	f813 2d01 	ldrb.w	r2, [r3, #-1]!
    1554:	46b2      	mov	sl, r6
    1556:	3e01      	subs	r6, #1
    1558:	2a00      	cmp	r2, #0
    155a:	d0f6      	beq.n	154a <tdefl_start_dynamic_block+0x6e>
    155c:	9602      	str	r6, [sp, #8]
    155e:	4656      	mov	r6, sl
    1560:	f60d 1894 	addw	r8, sp, #2452	; 0x994
    1564:	f504 410f 	add.w	r1, r4, #36608	; 0x8f00
    1568:	f44f 73a0 	mov.w	r3, #320	; 0x140
    156c:	463a      	mov	r2, r7
    156e:	3112      	adds	r1, #18
    1570:	4640      	mov	r0, r8
    1572:	f7ff fffe 	bl	0 <__memcpy_chk>
    1576:	f504 4110 	add.w	r1, r4, #36864	; 0x9000
    157a:	4652      	mov	r2, sl
    157c:	eb08 0007 	add.w	r0, r8, r7
    1580:	3132      	adds	r1, #50	; 0x32
    1582:	4435      	add	r5, r6
    1584:	f7ff fffe 	bl	0 <memcpy>
    1588:	f504 4006 	add.w	r0, r4, #34304	; 0x8600
    158c:	2226      	movs	r2, #38	; 0x26
    158e:	3012      	adds	r0, #18
    1590:	2100      	movs	r1, #0
    1592:	2600      	movs	r6, #0
    1594:	f7ff fffe 	bl	0 <memset>
    1598:	eb08 0205 	add.w	r2, r8, r5
    159c:	9400      	str	r4, [sp, #0]
    159e:	27ff      	movs	r7, #255	; 0xff
    15a0:	4633      	mov	r3, r6
    15a2:	4635      	mov	r5, r6
    15a4:	4614      	mov	r4, r2
    15a6:	e01d      	b.n	15e4 <tdefl_start_dynamic_block+0x108>
    15a8:	b18e      	cbz	r6, 15ce <tdefl_start_dynamic_block+0xf2>
    15aa:	2e02      	cmp	r6, #2
    15ac:	f240 81d2 	bls.w	1954 <tdefl_start_dynamic_block+0x478>
    15b0:	f60d 2bd4 	addw	fp, sp, #2772	; 0xad4
    15b4:	f8b9 2632 	ldrh.w	r2, [r9, #1586]	; 0x632
    15b8:	eb0b 0105 	add.w	r1, fp, r5
    15bc:	3e03      	subs	r6, #3
    15be:	3201      	adds	r2, #1
    15c0:	f8a9 2632 	strh.w	r2, [r9, #1586]	; 0x632
    15c4:	2210      	movs	r2, #16
    15c6:	f80b 2005 	strb.w	r2, [fp, r5]
    15ca:	3502      	adds	r5, #2
    15cc:	704e      	strb	r6, [r1, #1]
    15ce:	1c5a      	adds	r2, r3, #1
    15d0:	2b89      	cmp	r3, #137	; 0x89
    15d2:	f000 819e 	beq.w	1912 <tdefl_start_dynamic_block+0x436>
    15d6:	469b      	mov	fp, r3
    15d8:	f04f 3aff 	mov.w	sl, #4294967295	; 0xffffffff
    15dc:	4613      	mov	r3, r2
    15de:	2600      	movs	r6, #0
    15e0:	45a0      	cmp	r8, r4
    15e2:	d04a      	beq.n	167a <tdefl_start_dynamic_block+0x19e>
    15e4:	46ba      	mov	sl, r7
    15e6:	f818 7b01 	ldrb.w	r7, [r8], #1
    15ea:	2f00      	cmp	r7, #0
    15ec:	d0dc      	beq.n	15a8 <tdefl_start_dynamic_block+0xcc>
    15ee:	b1b3      	cbz	r3, 161e <tdefl_start_dynamic_block+0x142>
    15f0:	2b02      	cmp	r3, #2
    15f2:	f240 81c5 	bls.w	1980 <tdefl_start_dynamic_block+0x4a4>
    15f6:	1c68      	adds	r0, r5, #1
    15f8:	b2da      	uxtb	r2, r3
    15fa:	1ca9      	adds	r1, r5, #2
    15fc:	2b0a      	cmp	r3, #10
    15fe:	f200 819a 	bhi.w	1936 <tdefl_start_dynamic_block+0x45a>
    1602:	f60d 2bd4 	addw	fp, sp, #2772	; 0xad4
    1606:	f8b9 3634 	ldrh.w	r3, [r9, #1588]	; 0x634
    160a:	3a03      	subs	r2, #3
    160c:	3301      	adds	r3, #1
    160e:	f8a9 3634 	strh.w	r3, [r9, #1588]	; 0x634
    1612:	2311      	movs	r3, #17
    1614:	f80b 3005 	strb.w	r3, [fp, r5]
    1618:	460d      	mov	r5, r1
    161a:	f80b 2000 	strb.w	r2, [fp, r0]
    161e:	4557      	cmp	r7, sl
    1620:	f000 816d 	beq.w	18fe <tdefl_start_dynamic_block+0x422>
    1624:	f60d 2bd4 	addw	fp, sp, #2772	; 0xad4
    1628:	b18e      	cbz	r6, 164e <tdefl_start_dynamic_block+0x172>
    162a:	2e02      	cmp	r6, #2
    162c:	f240 8349 	bls.w	1cc2 <tdefl_start_dynamic_block+0x7e6>
    1630:	f60d 2bd4 	addw	fp, sp, #2772	; 0xad4
    1634:	f8b9 3632 	ldrh.w	r3, [r9, #1586]	; 0x632
    1638:	eb0b 0205 	add.w	r2, fp, r5
    163c:	3e03      	subs	r6, #3
    163e:	3301      	adds	r3, #1
    1640:	f8a9 3632 	strh.w	r3, [r9, #1586]	; 0x632
    1644:	2310      	movs	r3, #16
    1646:	f80b 3005 	strb.w	r3, [fp, r5]
    164a:	3502      	adds	r5, #2
    164c:	7056      	strb	r6, [r2, #1]
    164e:	9b00      	ldr	r3, [sp, #0]
    1650:	f04f 3aff 	mov.w	sl, #4294967295	; 0xffffffff
    1654:	2600      	movs	r6, #0
    1656:	f80b 7005 	strb.w	r7, [fp, r5]
    165a:	45a0      	cmp	r8, r4
    165c:	f105 0501 	add.w	r5, r5, #1
    1660:	eb03 0347 	add.w	r3, r3, r7, lsl #1
    1664:	46d3      	mov	fp, sl
    1666:	f503 4300 	add.w	r3, r3, #32768	; 0x8000
    166a:	f8b3 2612 	ldrh.w	r2, [r3, #1554]	; 0x612
    166e:	f102 0201 	add.w	r2, r2, #1
    1672:	f8a3 2612 	strh.w	r2, [r3, #1554]	; 0x612
    1676:	4633      	mov	r3, r6
    1678:	d1b4      	bne.n	15e4 <tdefl_start_dynamic_block+0x108>
    167a:	9c00      	ldr	r4, [sp, #0]
    167c:	2e00      	cmp	r6, #0
    167e:	f000 82f4 	beq.w	1c6a <tdefl_start_dynamic_block+0x78e>
    1682:	2e02      	cmp	r6, #2
    1684:	f240 818b 	bls.w	199e <tdefl_start_dynamic_block+0x4c2>
    1688:	f60d 27d4 	addw	r7, sp, #2772	; 0xad4
    168c:	f8b9 3632 	ldrh.w	r3, [r9, #1586]	; 0x632
    1690:	197a      	adds	r2, r7, r5
    1692:	3e03      	subs	r6, #3
    1694:	3301      	adds	r3, #1
    1696:	f8a9 3632 	strh.w	r3, [r9, #1586]	; 0x632
    169a:	2310      	movs	r3, #16
    169c:	557b      	strb	r3, [r7, r5]
    169e:	3502      	adds	r5, #2
    16a0:	7056      	strb	r6, [r2, #1]
    16a2:	ae04      	add	r6, sp, #16
    16a4:	2100      	movs	r1, #0
    16a6:	2284      	movs	r2, #132	; 0x84
    16a8:	4630      	mov	r0, r6
    16aa:	f7ff fffe 	bl	0 <memset>
    16ae:	f04f 0800 	mov.w	r8, #0
    16b2:	f504 4006 	add.w	r0, r4, #34304	; 0x8600
    16b6:	4643      	mov	r3, r8
    16b8:	3010      	adds	r0, #16
    16ba:	a925      	add	r1, sp, #148	; 0x94
    16bc:	f830 2f02 	ldrh.w	r2, [r0, #2]!
    16c0:	b132      	cbz	r2, 16d0 <tdefl_start_dynamic_block+0x1f4>
    16c2:	eb01 0788 	add.w	r7, r1, r8, lsl #2
    16c6:	f821 2028 	strh.w	r2, [r1, r8, lsl #2]
    16ca:	f108 0801 	add.w	r8, r8, #1
    16ce:	807b      	strh	r3, [r7, #2]
    16d0:	3301      	adds	r3, #1
    16d2:	2b13      	cmp	r3, #19
    16d4:	d1f2      	bne.n	16bc <tdefl_start_dynamic_block+0x1e0>
    16d6:	f20d 5a14 	addw	sl, sp, #1300	; 0x514
    16da:	4640      	mov	r0, r8
    16dc:	4652      	mov	r2, sl
    16de:	f7ff f9e3 	bl	aa8 <tdefl_radix_sort_syms>
    16e2:	4641      	mov	r1, r8
    16e4:	4681      	mov	r9, r0
    16e6:	f7fe fc8b 	bl	0 <tdefl_calculate_minimum_redundancy>
    16ea:	2300      	movs	r3, #0
    16ec:	f1b8 0f00 	cmp.w	r8, #0
    16f0:	d052      	beq.n	1798 <tdefl_start_dynamic_block+0x2bc>
    16f2:	f839 1023 	ldrh.w	r1, [r9, r3, lsl #2]
    16f6:	3301      	adds	r3, #1
    16f8:	4543      	cmp	r3, r8
    16fa:	f856 2021 	ldr.w	r2, [r6, r1, lsl #2]
    16fe:	f102 0201 	add.w	r2, r2, #1
    1702:	f846 2021 	str.w	r2, [r6, r1, lsl #2]
    1706:	d1f4      	bne.n	16f2 <tdefl_start_dynamic_block+0x216>
    1708:	f1b8 0f01 	cmp.w	r8, #1
    170c:	dd44      	ble.n	1798 <tdefl_start_dynamic_block+0x2bc>
    170e:	69f3      	ldr	r3, [r6, #28]
    1710:	aa0b      	add	r2, sp, #44	; 0x2c
    1712:	a824      	add	r0, sp, #144	; 0x90
    1714:	f852 1f04 	ldr.w	r1, [r2, #4]!
    1718:	440b      	add	r3, r1
    171a:	4290      	cmp	r0, r2
    171c:	61f3      	str	r3, [r6, #28]
    171e:	d1f9      	bne.n	1714 <tdefl_start_dynamic_block+0x238>
    1720:	69b2      	ldr	r2, [r6, #24]
    1722:	6971      	ldr	r1, [r6, #20]
    1724:	0052      	lsls	r2, r2, #1
    1726:	eb02 0281 	add.w	r2, r2, r1, lsl #2
    172a:	6931      	ldr	r1, [r6, #16]
    172c:	eb02 02c1 	add.w	r2, r2, r1, lsl #3
    1730:	68f1      	ldr	r1, [r6, #12]
    1732:	eb02 1201 	add.w	r2, r2, r1, lsl #4
    1736:	68b1      	ldr	r1, [r6, #8]
    1738:	eb02 1241 	add.w	r2, r2, r1, lsl #5
    173c:	6871      	ldr	r1, [r6, #4]
    173e:	eb02 1281 	add.w	r2, r2, r1, lsl #6
    1742:	441a      	add	r2, r3
    1744:	2a80      	cmp	r2, #128	; 0x80
    1746:	d027      	beq.n	1798 <tdefl_start_dynamic_block+0x2bc>
    1748:	af0a      	add	r7, sp, #40	; 0x28
    174a:	a809      	add	r0, sp, #36	; 0x24
    174c:	f10d 0e20 	add.w	lr, sp, #32
    1750:	f10d 0b1c 	add.w	fp, sp, #28
    1754:	e000      	b.n	1758 <tdefl_start_dynamic_block+0x27c>
    1756:	69f3      	ldr	r3, [r6, #28]
    1758:	3b01      	subs	r3, #1
    175a:	61f3      	str	r3, [r6, #28]
    175c:	69b3      	ldr	r3, [r6, #24]
    175e:	2b00      	cmp	r3, #0
    1760:	f040 8132 	bne.w	19c8 <tdefl_start_dynamic_block+0x4ec>
    1764:	6973      	ldr	r3, [r6, #20]
    1766:	2b00      	cmp	r3, #0
    1768:	f040 82c2 	bne.w	1cf0 <tdefl_start_dynamic_block+0x814>
    176c:	6933      	ldr	r3, [r6, #16]
    176e:	2b00      	cmp	r3, #0
    1770:	f040 82c8 	bne.w	1d04 <tdefl_start_dynamic_block+0x828>
    1774:	68f3      	ldr	r3, [r6, #12]
    1776:	2b00      	cmp	r3, #0
    1778:	f040 82c1 	bne.w	1cfe <tdefl_start_dynamic_block+0x822>
    177c:	68b3      	ldr	r3, [r6, #8]
    177e:	2b00      	cmp	r3, #0
    1780:	f040 82b9 	bne.w	1cf6 <tdefl_start_dynamic_block+0x81a>
    1784:	6873      	ldr	r3, [r6, #4]
    1786:	2108      	movs	r1, #8
    1788:	f10d 0c14 	add.w	ip, sp, #20
    178c:	2b00      	cmp	r3, #0
    178e:	f040 811d 	bne.w	19cc <tdefl_start_dynamic_block+0x4f0>
    1792:	3a01      	subs	r2, #1
    1794:	2a80      	cmp	r2, #128	; 0x80
    1796:	d1de      	bne.n	1756 <tdefl_start_dynamic_block+0x27a>
    1798:	f44f 7290 	mov.w	r2, #288	; 0x120
    179c:	2100      	movs	r1, #0
    179e:	f249 1752 	movw	r7, #37202	; 0x9152
    17a2:	19e0      	adds	r0, r4, r7
    17a4:	f7ff fffe 	bl	0 <memset>
    17a8:	f504 400c 	add.w	r0, r4, #35840	; 0x8c00
    17ac:	30d2      	adds	r0, #210	; 0xd2
    17ae:	f44f 7210 	mov.w	r2, #576	; 0x240
    17b2:	2100      	movs	r1, #0
    17b4:	46b3      	mov	fp, r6
    17b6:	f7ff fffe 	bl	0 <memset>
    17ba:	f04f 0c01 	mov.w	ip, #1
    17be:	46ae      	mov	lr, r5
    17c0:	f85b 5f04 	ldr.w	r5, [fp, #4]!
    17c4:	2d00      	cmp	r5, #0
    17c6:	dd0e      	ble.n	17e6 <tdefl_start_dynamic_block+0x30a>
    17c8:	eb09 0388 	add.w	r3, r9, r8, lsl #2
    17cc:	fa5f f08c 	uxtb.w	r0, ip
    17d0:	eba3 0185 	sub.w	r1, r3, r5, lsl #2
    17d4:	f833 2c02 	ldrh.w	r2, [r3, #-2]
    17d8:	3b04      	subs	r3, #4
    17da:	4299      	cmp	r1, r3
    17dc:	4422      	add	r2, r4
    17de:	55d0      	strb	r0, [r2, r7]
    17e0:	d1f8      	bne.n	17d4 <tdefl_start_dynamic_block+0x2f8>
    17e2:	eba8 0805 	sub.w	r8, r8, r5
    17e6:	f10c 0c01 	add.w	ip, ip, #1
    17ea:	f1bc 0f08 	cmp.w	ip, #8
    17ee:	d1e7      	bne.n	17c0 <tdefl_start_dynamic_block+0x2e4>
    17f0:	6873      	ldr	r3, [r6, #4]
    17f2:	f504 4711 	add.w	r7, r4, #37120	; 0x9100
    17f6:	68b2      	ldr	r2, [r6, #8]
    17f8:	f646 2c2e 	movw	ip, #27182	; 0x6a2e
    17fc:	f6cf 7cff 	movt	ip, #65535	; 0xffff
    1800:	4675      	mov	r5, lr
    1802:	005b      	lsls	r3, r3, #1
    1804:	f8ca 3008 	str.w	r3, [sl, #8]
    1808:	4413      	add	r3, r2
    180a:	68f2      	ldr	r2, [r6, #12]
    180c:	3764      	adds	r7, #100	; 0x64
    180e:	ebac 0c04 	sub.w	ip, ip, r4
    1812:	005b      	lsls	r3, r3, #1
    1814:	f8ca 300c 	str.w	r3, [sl, #12]
    1818:	4413      	add	r3, r2
    181a:	6932      	ldr	r2, [r6, #16]
    181c:	005b      	lsls	r3, r3, #1
    181e:	f8ca 3010 	str.w	r3, [sl, #16]
    1822:	4413      	add	r3, r2
    1824:	6972      	ldr	r2, [r6, #20]
    1826:	005b      	lsls	r3, r3, #1
    1828:	f8ca 3014 	str.w	r3, [sl, #20]
    182c:	4413      	add	r3, r2
    182e:	69b2      	ldr	r2, [r6, #24]
    1830:	f504 4611 	add.w	r6, r4, #37120	; 0x9100
    1834:	005b      	lsls	r3, r3, #1
    1836:	f8ca 3018 	str.w	r3, [sl, #24]
    183a:	4413      	add	r3, r2
    183c:	3651      	adds	r6, #81	; 0x51
    183e:	005b      	lsls	r3, r3, #1
    1840:	f8ca 301c 	str.w	r3, [sl, #28]
    1844:	2300      	movs	r3, #0
    1846:	f8ca 3004 	str.w	r3, [sl, #4]
    184a:	e001      	b.n	1850 <tdefl_start_dynamic_block+0x374>
    184c:	42b7      	cmp	r7, r6
    184e:	d015      	beq.n	187c <tdefl_start_dynamic_block+0x3a0>
    1850:	f816 3f01 	ldrb.w	r3, [r6, #1]!
    1854:	2b00      	cmp	r3, #0
    1856:	d0f9      	beq.n	184c <tdefl_start_dynamic_block+0x370>
    1858:	f85a 1023 	ldr.w	r1, [sl, r3, lsl #2]
    185c:	2000      	movs	r0, #0
    185e:	1c4a      	adds	r2, r1, #1
    1860:	f84a 2023 	str.w	r2, [sl, r3, lsl #2]
    1864:	f001 0201 	and.w	r2, r1, #1
    1868:	3b01      	subs	r3, #1
    186a:	ea42 0040 	orr.w	r0, r2, r0, lsl #1
    186e:	ea4f 0151 	mov.w	r1, r1, lsr #1
    1872:	d1f7      	bne.n	1864 <tdefl_start_dynamic_block+0x388>
    1874:	42b7      	cmp	r7, r6
    1876:	f82c 0016 	strh.w	r0, [ip, r6, lsl #1]
    187a:	d1e9      	bne.n	1850 <tdefl_start_dynamic_block+0x374>
    187c:	6c61      	ldr	r1, [r4, #68]	; 0x44
    187e:	2302      	movs	r3, #2
    1880:	6ca2      	ldr	r2, [r4, #72]	; 0x48
    1882:	e9d4 060c 	ldrd	r0, r6, [r4, #48]	; 0x30
    1886:	408b      	lsls	r3, r1
    1888:	3102      	adds	r1, #2
    188a:	4313      	orrs	r3, r2
    188c:	2907      	cmp	r1, #7
    188e:	6461      	str	r1, [r4, #68]	; 0x44
    1890:	64a3      	str	r3, [r4, #72]	; 0x48
    1892:	d90f      	bls.n	18b4 <tdefl_start_dynamic_block+0x3d8>
    1894:	42b0      	cmp	r0, r6
    1896:	f080 80a0 	bcs.w	19da <tdefl_start_dynamic_block+0x4fe>
    189a:	1c42      	adds	r2, r0, #1
    189c:	6322      	str	r2, [r4, #48]	; 0x30
    189e:	7003      	strb	r3, [r0, #0]
    18a0:	e9d4 1311 	ldrd	r1, r3, [r4, #68]	; 0x44
    18a4:	e9d4 060c 	ldrd	r0, r6, [r4, #48]	; 0x30
    18a8:	3908      	subs	r1, #8
    18aa:	0a1b      	lsrs	r3, r3, #8
    18ac:	2907      	cmp	r1, #7
    18ae:	6461      	str	r1, [r4, #68]	; 0x44
    18b0:	64a3      	str	r3, [r4, #72]	; 0x48
    18b2:	d8ef      	bhi.n	1894 <tdefl_start_dynamic_block+0x3b8>
    18b4:	9a01      	ldr	r2, [sp, #4]
    18b6:	408a      	lsls	r2, r1
    18b8:	431a      	orrs	r2, r3
    18ba:	1d4b      	adds	r3, r1, #5
    18bc:	2b07      	cmp	r3, #7
    18be:	64a2      	str	r2, [r4, #72]	; 0x48
    18c0:	6463      	str	r3, [r4, #68]	; 0x44
    18c2:	f240 8233 	bls.w	1d2c <tdefl_start_dynamic_block+0x850>
    18c6:	42b0      	cmp	r0, r6
    18c8:	d210      	bcs.n	18ec <tdefl_start_dynamic_block+0x410>
    18ca:	1c43      	adds	r3, r0, #1
    18cc:	6323      	str	r3, [r4, #48]	; 0x30
    18ce:	7002      	strb	r2, [r0, #0]
    18d0:	e9d4 0211 	ldrd	r0, r2, [r4, #68]	; 0x44
    18d4:	f1a0 0308 	sub.w	r3, r0, #8
    18d8:	6463      	str	r3, [r4, #68]	; 0x44
    18da:	0a12      	lsrs	r2, r2, #8
    18dc:	2b07      	cmp	r3, #7
    18de:	64a2      	str	r2, [r4, #72]	; 0x48
    18e0:	f240 8087 	bls.w	19f2 <tdefl_start_dynamic_block+0x516>
    18e4:	e9d4 060c 	ldrd	r0, r6, [r4, #48]	; 0x30
    18e8:	42b0      	cmp	r0, r6
    18ea:	d3ee      	bcc.n	18ca <tdefl_start_dynamic_block+0x3ee>
    18ec:	f1a3 0108 	sub.w	r1, r3, #8
    18f0:	0a12      	lsrs	r2, r2, #8
    18f2:	2907      	cmp	r1, #7
    18f4:	e9c4 1211 	strd	r1, r2, [r4, #68]	; 0x44
    18f8:	d97d      	bls.n	19f6 <tdefl_start_dynamic_block+0x51a>
    18fa:	460b      	mov	r3, r1
    18fc:	e7e3      	b.n	18c6 <tdefl_start_dynamic_block+0x3ea>
    18fe:	1c73      	adds	r3, r6, #1
    1900:	2e05      	cmp	r6, #5
    1902:	f000 81c9 	beq.w	1c98 <tdefl_start_dynamic_block+0x7bc>
    1906:	46b2      	mov	sl, r6
    1908:	f04f 3bff 	mov.w	fp, #4294967295	; 0xffffffff
    190c:	461e      	mov	r6, r3
    190e:	2300      	movs	r3, #0
    1910:	e666      	b.n	15e0 <tdefl_start_dynamic_block+0x104>
    1912:	f8b9 3636 	ldrh.w	r3, [r9, #1590]	; 0x636
    1916:	f60d 2bd4 	addw	fp, sp, #2772	; 0xad4
    191a:	f04f 3aff 	mov.w	sl, #4294967295	; 0xffffffff
    191e:	f647 7212 	movw	r2, #32530	; 0x7f12
    1922:	3301      	adds	r3, #1
    1924:	f8a9 3636 	strh.w	r3, [r9, #1590]	; 0x636
    1928:	2300      	movs	r3, #0
    192a:	f82b 2005 	strh.w	r2, [fp, r5]
    192e:	461e      	mov	r6, r3
    1930:	3502      	adds	r5, #2
    1932:	46d3      	mov	fp, sl
    1934:	e654      	b.n	15e0 <tdefl_start_dynamic_block+0x104>
    1936:	f60d 2bd4 	addw	fp, sp, #2772	; 0xad4
    193a:	f8b9 3636 	ldrh.w	r3, [r9, #1590]	; 0x636
    193e:	3a0b      	subs	r2, #11
    1940:	3301      	adds	r3, #1
    1942:	f8a9 3636 	strh.w	r3, [r9, #1590]	; 0x636
    1946:	2312      	movs	r3, #18
    1948:	f80b 3005 	strb.w	r3, [fp, r5]
    194c:	460d      	mov	r5, r1
    194e:	f80b 2000 	strb.w	r2, [fp, r0]
    1952:	e664      	b.n	161e <tdefl_start_dynamic_block+0x142>
    1954:	9303      	str	r3, [sp, #12]
    1956:	f60d 2bd4 	addw	fp, sp, #2772	; 0xad4
    195a:	9b00      	ldr	r3, [sp, #0]
    195c:	eb0b 0005 	add.w	r0, fp, r5
    1960:	4632      	mov	r2, r6
    1962:	4651      	mov	r1, sl
    1964:	4435      	add	r5, r6
    1966:	eb03 0c4a 	add.w	ip, r3, sl, lsl #1
    196a:	f50c 4c00 	add.w	ip, ip, #32768	; 0x8000
    196e:	f8bc e612 	ldrh.w	lr, [ip, #1554]	; 0x612
    1972:	4476      	add	r6, lr
    1974:	f8ac 6612 	strh.w	r6, [ip, #1554]	; 0x612
    1978:	f7ff fffe 	bl	0 <memset>
    197c:	9b03      	ldr	r3, [sp, #12]
    197e:	e626      	b.n	15ce <tdefl_start_dynamic_block+0xf2>
    1980:	f8b9 2612 	ldrh.w	r2, [r9, #1554]	; 0x612
    1984:	f60d 2bd4 	addw	fp, sp, #2772	; 0xad4
    1988:	eb0b 0005 	add.w	r0, fp, r5
    198c:	2100      	movs	r1, #0
    198e:	441a      	add	r2, r3
    1990:	f8a9 2612 	strh.w	r2, [r9, #1554]	; 0x612
    1994:	461a      	mov	r2, r3
    1996:	441d      	add	r5, r3
    1998:	f7ff fffe 	bl	0 <memset>
    199c:	e63f      	b.n	161e <tdefl_start_dynamic_block+0x142>
    199e:	eb04 0347 	add.w	r3, r4, r7, lsl #1
    19a2:	4639      	mov	r1, r7
    19a4:	f503 4300 	add.w	r3, r3, #32768	; 0x8000
    19a8:	f60d 27d4 	addw	r7, sp, #2772	; 0xad4
    19ac:	1978      	adds	r0, r7, r5
    19ae:	f10a 0201 	add.w	r2, sl, #1
    19b2:	44aa      	add	sl, r5
    19b4:	f8b3 7612 	ldrh.w	r7, [r3, #1554]	; 0x612
    19b8:	f10a 0501 	add.w	r5, sl, #1
    19bc:	443e      	add	r6, r7
    19be:	f8a3 6612 	strh.w	r6, [r3, #1554]	; 0x612
    19c2:	f7ff fffe 	bl	0 <memset>
    19c6:	e66c      	b.n	16a2 <tdefl_start_dynamic_block+0x1c6>
    19c8:	211c      	movs	r1, #28
    19ca:	46bc      	mov	ip, r7
    19cc:	3b01      	subs	r3, #1
    19ce:	f8cc 3000 	str.w	r3, [ip]
    19d2:	5873      	ldr	r3, [r6, r1]
    19d4:	3302      	adds	r3, #2
    19d6:	5073      	str	r3, [r6, r1]
    19d8:	e6db      	b.n	1792 <tdefl_start_dynamic_block+0x2b6>
    19da:	3908      	subs	r1, #8
    19dc:	0a1b      	lsrs	r3, r3, #8
    19de:	2907      	cmp	r1, #7
    19e0:	e9c4 1311 	strd	r1, r3, [r4, #68]	; 0x44
    19e4:	f67f af66 	bls.w	18b4 <tdefl_start_dynamic_block+0x3d8>
    19e8:	3908      	subs	r1, #8
    19ea:	0a1b      	lsrs	r3, r3, #8
    19ec:	2907      	cmp	r1, #7
    19ee:	d8fb      	bhi.n	19e8 <tdefl_start_dynamic_block+0x50c>
    19f0:	e760      	b.n	18b4 <tdefl_start_dynamic_block+0x3d8>
    19f2:	4619      	mov	r1, r3
    19f4:	4603      	mov	r3, r0
    19f6:	9802      	ldr	r0, [sp, #8]
    19f8:	3b03      	subs	r3, #3
    19fa:	2b07      	cmp	r3, #7
    19fc:	fa00 f001 	lsl.w	r0, r0, r1
    1a00:	ea42 0200 	orr.w	r2, r2, r0
    1a04:	e9c4 3211 	strd	r3, r2, [r4, #68]	; 0x44
    1a08:	d80b      	bhi.n	1a22 <tdefl_start_dynamic_block+0x546>
    1a0a:	e015      	b.n	1a38 <tdefl_start_dynamic_block+0x55c>
    1a0c:	1c43      	adds	r3, r0, #1
    1a0e:	6323      	str	r3, [r4, #48]	; 0x30
    1a10:	7002      	strb	r2, [r0, #0]
    1a12:	e9d4 3211 	ldrd	r3, r2, [r4, #68]	; 0x44
    1a16:	3b08      	subs	r3, #8
    1a18:	6463      	str	r3, [r4, #68]	; 0x44
    1a1a:	0a12      	lsrs	r2, r2, #8
    1a1c:	2b07      	cmp	r3, #7
    1a1e:	64a2      	str	r2, [r4, #72]	; 0x48
    1a20:	d90a      	bls.n	1a38 <tdefl_start_dynamic_block+0x55c>
    1a22:	e9d4 060c 	ldrd	r0, r6, [r4, #48]	; 0x30
    1a26:	42b0      	cmp	r0, r6
    1a28:	d3f0      	bcc.n	1a0c <tdefl_start_dynamic_block+0x530>
    1a2a:	6c63      	ldr	r3, [r4, #68]	; 0x44
    1a2c:	0a12      	lsrs	r2, r2, #8
    1a2e:	64a2      	str	r2, [r4, #72]	; 0x48
    1a30:	3b08      	subs	r3, #8
    1a32:	6463      	str	r3, [r4, #68]	; 0x44
    1a34:	2b07      	cmp	r3, #7
    1a36:	d8f6      	bhi.n	1a26 <tdefl_start_dynamic_block+0x54a>
    1a38:	4ee1      	ldr	r6, [pc, #900]	; (1dc0 <tdefl_start_dynamic_block+0x8e4>)
    1a3a:	2012      	movs	r0, #18
    1a3c:	f249 1752 	movw	r7, #37202	; 0x9152
    1a40:	447e      	add	r6, pc
    1a42:	f606 06a7 	addw	r6, r6, #2215	; 0x8a7
    1a46:	e002      	b.n	1a4e <tdefl_start_dynamic_block+0x572>
    1a48:	3801      	subs	r0, #1
    1a4a:	f0c0 810c 	bcc.w	1c66 <tdefl_start_dynamic_block+0x78a>
    1a4e:	f816 1d01 	ldrb.w	r1, [r6, #-1]!
    1a52:	4421      	add	r1, r4
    1a54:	5dc9      	ldrb	r1, [r1, r7]
    1a56:	2900      	cmp	r1, #0
    1a58:	d0f6      	beq.n	1a48 <tdefl_start_dynamic_block+0x56c>
    1a5a:	2803      	cmp	r0, #3
    1a5c:	bfb8      	it	lt
    1a5e:	2003      	movlt	r0, #3
    1a60:	1ec1      	subs	r1, r0, #3
    1a62:	4099      	lsls	r1, r3
    1a64:	430a      	orrs	r2, r1
    1a66:	3304      	adds	r3, #4
    1a68:	e9c4 3211 	strd	r3, r2, [r4, #68]	; 0x44
    1a6c:	2b07      	cmp	r3, #7
    1a6e:	d90f      	bls.n	1a90 <tdefl_start_dynamic_block+0x5b4>
    1a70:	e9d4 160c 	ldrd	r1, r6, [r4, #48]	; 0x30
    1a74:	42b1      	cmp	r1, r6
    1a76:	f080 80e8 	bcs.w	1c4a <tdefl_start_dynamic_block+0x76e>
    1a7a:	1c4b      	adds	r3, r1, #1
    1a7c:	6323      	str	r3, [r4, #48]	; 0x30
    1a7e:	700a      	strb	r2, [r1, #0]
    1a80:	e9d4 3211 	ldrd	r3, r2, [r4, #68]	; 0x44
    1a84:	3b08      	subs	r3, #8
    1a86:	6463      	str	r3, [r4, #68]	; 0x44
    1a88:	0a12      	lsrs	r2, r2, #8
    1a8a:	2b07      	cmp	r3, #7
    1a8c:	64a2      	str	r2, [r4, #72]	; 0x48
    1a8e:	d8ef      	bhi.n	1a70 <tdefl_start_dynamic_block+0x594>
    1a90:	4ecc      	ldr	r6, [pc, #816]	; (1dc4 <tdefl_start_dynamic_block+0x8e8>)
    1a92:	f249 1c52 	movw	ip, #37202	; 0x9152
    1a96:	447e      	add	r6, pc
    1a98:	f606 0794 	addw	r7, r6, #2196	; 0x894
    1a9c:	f606 0693 	addw	r6, r6, #2195	; 0x893
    1aa0:	4407      	add	r7, r0
    1aa2:	f816 3f01 	ldrb.w	r3, [r6, #1]!
    1aa6:	4423      	add	r3, r4
    1aa8:	f813 200c 	ldrb.w	r2, [r3, ip]
    1aac:	2a07      	cmp	r2, #7
    1aae:	f200 8151 	bhi.w	1d54 <tdefl_start_dynamic_block+0x878>
    1ab2:	e9d4 0111 	ldrd	r0, r1, [r4, #68]	; 0x44
    1ab6:	1cc3      	adds	r3, r0, #3
    1ab8:	6463      	str	r3, [r4, #68]	; 0x44
    1aba:	4082      	lsls	r2, r0
    1abc:	2b07      	cmp	r3, #7
    1abe:	ea42 0201 	orr.w	r2, r2, r1
    1ac2:	64a2      	str	r2, [r4, #72]	; 0x48
    1ac4:	d90f      	bls.n	1ae6 <tdefl_start_dynamic_block+0x60a>
    1ac6:	e9d4 100c 	ldrd	r1, r0, [r4, #48]	; 0x30
    1aca:	4281      	cmp	r1, r0
    1acc:	f080 80ac 	bcs.w	1c28 <tdefl_start_dynamic_block+0x74c>
    1ad0:	1c4b      	adds	r3, r1, #1
    1ad2:	6323      	str	r3, [r4, #48]	; 0x30
    1ad4:	700a      	strb	r2, [r1, #0]
    1ad6:	e9d4 3211 	ldrd	r3, r2, [r4, #68]	; 0x44
    1ada:	3b08      	subs	r3, #8
    1adc:	6463      	str	r3, [r4, #68]	; 0x44
    1ade:	0a12      	lsrs	r2, r2, #8
    1ae0:	2b07      	cmp	r3, #7
    1ae2:	64a2      	str	r2, [r4, #72]	; 0x48
    1ae4:	d8ef      	bhi.n	1ac6 <tdefl_start_dynamic_block+0x5ea>
    1ae6:	42b7      	cmp	r7, r6
    1ae8:	d1db      	bne.n	1aa2 <tdefl_start_dynamic_block+0x5c6>
    1aea:	4bb7      	ldr	r3, [pc, #732]	; (1dc8 <tdefl_start_dynamic_block+0x8ec>)
    1aec:	f04f 0e00 	mov.w	lr, #0
    1af0:	f60d 27d4 	addw	r7, sp, #2772	; 0xad4
    1af4:	2001      	movs	r0, #1
    1af6:	447b      	add	r3, pc
    1af8:	f244 6868 	movw	r8, #18024	; 0x4668
    1afc:	9300      	str	r3, [sp, #0]
    1afe:	f249 1b52 	movw	fp, #37202	; 0x9152
    1b02:	eb07 090e 	add.w	r9, r7, lr
    1b06:	4575      	cmp	r5, lr
    1b08:	d935      	bls.n	1b76 <tdefl_start_dynamic_block+0x69a>
    1b0a:	f819 cb01 	ldrb.w	ip, [r9], #1
    1b0e:	f10e 0a01 	add.w	sl, lr, #1
    1b12:	f1bc 0f12 	cmp.w	ip, #18
    1b16:	f200 8129 	bhi.w	1d6c <tdefl_start_dynamic_block+0x890>
    1b1a:	eb04 030c 	add.w	r3, r4, ip
    1b1e:	eb0c 0208 	add.w	r2, ip, r8
    1b22:	eb04 0242 	add.w	r2, r4, r2, lsl #1
    1b26:	f813 300b 	ldrb.w	r3, [r3, fp]
    1b2a:	8852      	ldrh	r2, [r2, #2]
    1b2c:	fa00 f103 	lsl.w	r1, r0, r3
    1b30:	3901      	subs	r1, #1
    1b32:	4291      	cmp	r1, r2
    1b34:	f0c0 8126 	bcc.w	1d84 <tdefl_start_dynamic_block+0x8a8>
    1b38:	6c61      	ldr	r1, [r4, #68]	; 0x44
    1b3a:	440b      	add	r3, r1
    1b3c:	6463      	str	r3, [r4, #68]	; 0x44
    1b3e:	408a      	lsls	r2, r1
    1b40:	6ca1      	ldr	r1, [r4, #72]	; 0x48
    1b42:	2b07      	cmp	r3, #7
    1b44:	ea42 0201 	orr.w	r2, r2, r1
    1b48:	64a2      	str	r2, [r4, #72]	; 0x48
    1b4a:	d90e      	bls.n	1b6a <tdefl_start_dynamic_block+0x68e>
    1b4c:	e9d4 160c 	ldrd	r1, r6, [r4, #48]	; 0x30
    1b50:	42b1      	cmp	r1, r6
    1b52:	d220      	bcs.n	1b96 <tdefl_start_dynamic_block+0x6ba>
    1b54:	1c4b      	adds	r3, r1, #1
    1b56:	6323      	str	r3, [r4, #48]	; 0x30
    1b58:	700a      	strb	r2, [r1, #0]
    1b5a:	e9d4 3211 	ldrd	r3, r2, [r4, #68]	; 0x44
    1b5e:	3b08      	subs	r3, #8
    1b60:	6463      	str	r3, [r4, #68]	; 0x44
    1b62:	0a12      	lsrs	r2, r2, #8
    1b64:	2b07      	cmp	r3, #7
    1b66:	64a2      	str	r2, [r4, #72]	; 0x48
    1b68:	d8f0      	bhi.n	1b4c <tdefl_start_dynamic_block+0x670>
    1b6a:	f1bc 0f0f 	cmp.w	ip, #15
    1b6e:	d821      	bhi.n	1bb4 <tdefl_start_dynamic_block+0x6d8>
    1b70:	46d6      	mov	lr, sl
    1b72:	4575      	cmp	r5, lr
    1b74:	d8c9      	bhi.n	1b0a <tdefl_start_dynamic_block+0x62e>
    1b76:	4a95      	ldr	r2, [pc, #596]	; (1dcc <tdefl_start_dynamic_block+0x8f0>)
    1b78:	4b90      	ldr	r3, [pc, #576]	; (1dbc <tdefl_start_dynamic_block+0x8e0>)
    1b7a:	447a      	add	r2, pc
    1b7c:	58d3      	ldr	r3, [r2, r3]
    1b7e:	681a      	ldr	r2, [r3, #0]
    1b80:	f8dd 3c14 	ldr.w	r3, [sp, #3092]	; 0xc14
    1b84:	405a      	eors	r2, r3
    1b86:	f04f 0300 	mov.w	r3, #0
    1b8a:	f040 8107 	bne.w	1d9c <tdefl_start_dynamic_block+0x8c0>
    1b8e:	f60d 4d1c 	addw	sp, sp, #3100	; 0xc1c
    1b92:	e8bd 8ff0 	ldmia.w	sp!, {r4, r5, r6, r7, r8, r9, sl, fp, pc}
    1b96:	3b08      	subs	r3, #8
    1b98:	0a12      	lsrs	r2, r2, #8
    1b9a:	2b07      	cmp	r3, #7
    1b9c:	e9c4 3211 	strd	r3, r2, [r4, #68]	; 0x44
    1ba0:	d9e3      	bls.n	1b6a <tdefl_start_dynamic_block+0x68e>
    1ba2:	3b08      	subs	r3, #8
    1ba4:	0a12      	lsrs	r2, r2, #8
    1ba6:	2b07      	cmp	r3, #7
    1ba8:	d8fb      	bhi.n	1ba2 <tdefl_start_dynamic_block+0x6c6>
    1baa:	f1bc 0f0f 	cmp.w	ip, #15
    1bae:	e9c4 3211 	strd	r3, r2, [r4, #68]	; 0x44
    1bb2:	d9dd      	bls.n	1b70 <tdefl_start_dynamic_block+0x694>
    1bb4:	9900      	ldr	r1, [sp, #0]
    1bb6:	f10e 0e02 	add.w	lr, lr, #2
    1bba:	f817 900a 	ldrb.w	r9, [r7, sl]
    1bbe:	448c      	add	ip, r1
    1bc0:	f81c 1c10 	ldrb.w	r1, [ip, #-16]
    1bc4:	fa00 fc01 	lsl.w	ip, r0, r1
    1bc8:	f10c 3cff 	add.w	ip, ip, #4294967295	; 0xffffffff
    1bcc:	45cc      	cmp	ip, r9
    1bce:	f0c0 80e7 	bcc.w	1da0 <tdefl_start_dynamic_block+0x8c4>
    1bd2:	fa09 f903 	lsl.w	r9, r9, r3
    1bd6:	440b      	add	r3, r1
    1bd8:	ea49 0202 	orr.w	r2, r9, r2
    1bdc:	2b07      	cmp	r3, #7
    1bde:	e9c4 3211 	strd	r3, r2, [r4, #68]	; 0x44
    1be2:	d98e      	bls.n	1b02 <tdefl_start_dynamic_block+0x626>
    1be4:	e9d4 160c 	ldrd	r1, r6, [r4, #48]	; 0x30
    1be8:	42b1      	cmp	r1, r6
    1bea:	d20f      	bcs.n	1c0c <tdefl_start_dynamic_block+0x730>
    1bec:	1c4b      	adds	r3, r1, #1
    1bee:	6323      	str	r3, [r4, #48]	; 0x30
    1bf0:	700a      	strb	r2, [r1, #0]
    1bf2:	e9d4 3211 	ldrd	r3, r2, [r4, #68]	; 0x44
    1bf6:	3b08      	subs	r3, #8
    1bf8:	6463      	str	r3, [r4, #68]	; 0x44
    1bfa:	0a12      	lsrs	r2, r2, #8
    1bfc:	2b07      	cmp	r3, #7
    1bfe:	64a2      	str	r2, [r4, #72]	; 0x48
    1c00:	f67f af7f 	bls.w	1b02 <tdefl_start_dynamic_block+0x626>
    1c04:	e9d4 160c 	ldrd	r1, r6, [r4, #48]	; 0x30
    1c08:	42b1      	cmp	r1, r6
    1c0a:	d3ef      	bcc.n	1bec <tdefl_start_dynamic_block+0x710>
    1c0c:	3b08      	subs	r3, #8
    1c0e:	0a12      	lsrs	r2, r2, #8
    1c10:	2b07      	cmp	r3, #7
    1c12:	e9c4 3211 	strd	r3, r2, [r4, #68]	; 0x44
    1c16:	f67f af74 	bls.w	1b02 <tdefl_start_dynamic_block+0x626>
    1c1a:	3b08      	subs	r3, #8
    1c1c:	0a12      	lsrs	r2, r2, #8
    1c1e:	2b07      	cmp	r3, #7
    1c20:	d8fb      	bhi.n	1c1a <tdefl_start_dynamic_block+0x73e>
    1c22:	e9c4 3211 	strd	r3, r2, [r4, #68]	; 0x44
    1c26:	e76c      	b.n	1b02 <tdefl_start_dynamic_block+0x626>
    1c28:	3b08      	subs	r3, #8
    1c2a:	0a12      	lsrs	r2, r2, #8
    1c2c:	2b07      	cmp	r3, #7
    1c2e:	e9c4 3211 	strd	r3, r2, [r4, #68]	; 0x44
    1c32:	f67f af58 	bls.w	1ae6 <tdefl_start_dynamic_block+0x60a>
    1c36:	3b08      	subs	r3, #8
    1c38:	0a12      	lsrs	r2, r2, #8
    1c3a:	2b07      	cmp	r3, #7
    1c3c:	d8fb      	bhi.n	1c36 <tdefl_start_dynamic_block+0x75a>
    1c3e:	42b7      	cmp	r7, r6
    1c40:	e9c4 3211 	strd	r3, r2, [r4, #68]	; 0x44
    1c44:	f47f af2d 	bne.w	1aa2 <tdefl_start_dynamic_block+0x5c6>
    1c48:	e74f      	b.n	1aea <tdefl_start_dynamic_block+0x60e>
    1c4a:	3b08      	subs	r3, #8
    1c4c:	0a12      	lsrs	r2, r2, #8
    1c4e:	2b07      	cmp	r3, #7
    1c50:	e9c4 3211 	strd	r3, r2, [r4, #68]	; 0x44
    1c54:	f67f af1c 	bls.w	1a90 <tdefl_start_dynamic_block+0x5b4>
    1c58:	3b08      	subs	r3, #8
    1c5a:	0a12      	lsrs	r2, r2, #8
    1c5c:	2b07      	cmp	r3, #7
    1c5e:	d8fb      	bhi.n	1c58 <tdefl_start_dynamic_block+0x77c>
    1c60:	e9c4 3211 	strd	r3, r2, [r4, #68]	; 0x44
    1c64:	e714      	b.n	1a90 <tdefl_start_dynamic_block+0x5b4>
    1c66:	2003      	movs	r0, #3
    1c68:	e6fd      	b.n	1a66 <tdefl_start_dynamic_block+0x58a>
    1c6a:	2b00      	cmp	r3, #0
    1c6c:	f43f ad19 	beq.w	16a2 <tdefl_start_dynamic_block+0x1c6>
    1c70:	2b02      	cmp	r3, #2
    1c72:	d94a      	bls.n	1d0a <tdefl_start_dynamic_block+0x82e>
    1c74:	1c68      	adds	r0, r5, #1
    1c76:	b2da      	uxtb	r2, r3
    1c78:	1ca9      	adds	r1, r5, #2
    1c7a:	2b0a      	cmp	r3, #10
    1c7c:	d85d      	bhi.n	1d3a <tdefl_start_dynamic_block+0x85e>
    1c7e:	f60d 27d4 	addw	r7, sp, #2772	; 0xad4
    1c82:	f8b9 3634 	ldrh.w	r3, [r9, #1588]	; 0x634
    1c86:	3a03      	subs	r2, #3
    1c88:	3301      	adds	r3, #1
    1c8a:	f8a9 3634 	strh.w	r3, [r9, #1588]	; 0x634
    1c8e:	2311      	movs	r3, #17
    1c90:	557b      	strb	r3, [r7, r5]
    1c92:	460d      	mov	r5, r1
    1c94:	543a      	strb	r2, [r7, r0]
    1c96:	e504      	b.n	16a2 <tdefl_start_dynamic_block+0x1c6>
    1c98:	f60d 2bd4 	addw	fp, sp, #2772	; 0xad4
    1c9c:	f8b9 3632 	ldrh.w	r3, [r9, #1586]	; 0x632
    1ca0:	f04f 3aff 	mov.w	sl, #4294967295	; 0xffffffff
    1ca4:	2600      	movs	r6, #0
    1ca6:	3301      	adds	r3, #1
    1ca8:	f8a9 3632 	strh.w	r3, [r9, #1586]	; 0x632
    1cac:	f44f 7344 	mov.w	r3, #784	; 0x310
    1cb0:	f82b 3005 	strh.w	r3, [fp, r5]
    1cb4:	3502      	adds	r5, #2
    1cb6:	46d3      	mov	fp, sl
    1cb8:	4633      	mov	r3, r6
    1cba:	e491      	b.n	15e0 <tdefl_start_dynamic_block+0x104>
    1cbc:	462f      	mov	r7, r5
    1cbe:	9201      	str	r2, [sp, #4]
    1cc0:	e43e      	b.n	1540 <tdefl_start_dynamic_block+0x64>
    1cc2:	9b00      	ldr	r3, [sp, #0]
    1cc4:	f60d 2bd4 	addw	fp, sp, #2772	; 0xad4
    1cc8:	eb0b 0005 	add.w	r0, fp, r5
    1ccc:	4651      	mov	r1, sl
    1cce:	4632      	mov	r2, r6
    1cd0:	4435      	add	r5, r6
    1cd2:	eb03 034a 	add.w	r3, r3, sl, lsl #1
    1cd6:	f503 4300 	add.w	r3, r3, #32768	; 0x8000
    1cda:	f8b3 c612 	ldrh.w	ip, [r3, #1554]	; 0x612
    1cde:	44b4      	add	ip, r6
    1ce0:	f8a3 c612 	strh.w	ip, [r3, #1554]	; 0x612
    1ce4:	f7ff fffe 	bl	0 <memset>
    1ce8:	e4b1      	b.n	164e <tdefl_start_dynamic_block+0x172>
    1cea:	46b2      	mov	sl, r6
    1cec:	9202      	str	r2, [sp, #8]
    1cee:	e437      	b.n	1560 <tdefl_start_dynamic_block+0x84>
    1cf0:	2118      	movs	r1, #24
    1cf2:	4684      	mov	ip, r0
    1cf4:	e66a      	b.n	19cc <tdefl_start_dynamic_block+0x4f0>
    1cf6:	210c      	movs	r1, #12
    1cf8:	f10d 0c18 	add.w	ip, sp, #24
    1cfc:	e666      	b.n	19cc <tdefl_start_dynamic_block+0x4f0>
    1cfe:	2110      	movs	r1, #16
    1d00:	46dc      	mov	ip, fp
    1d02:	e663      	b.n	19cc <tdefl_start_dynamic_block+0x4f0>
    1d04:	2114      	movs	r1, #20
    1d06:	46f4      	mov	ip, lr
    1d08:	e660      	b.n	19cc <tdefl_start_dynamic_block+0x4f0>
    1d0a:	f8b9 2612 	ldrh.w	r2, [r9, #1554]	; 0x612
    1d0e:	f60d 27d4 	addw	r7, sp, #2772	; 0xad4
    1d12:	1978      	adds	r0, r7, r5
    1d14:	4631      	mov	r1, r6
    1d16:	4413      	add	r3, r2
    1d18:	f10b 0201 	add.w	r2, fp, #1
    1d1c:	f8a9 3612 	strh.w	r3, [r9, #1554]	; 0x612
    1d20:	44ab      	add	fp, r5
    1d22:	f10b 0501 	add.w	r5, fp, #1
    1d26:	f7ff fffe 	bl	0 <memset>
    1d2a:	e4ba      	b.n	16a2 <tdefl_start_dynamic_block+0x1c6>
    1d2c:	9f02      	ldr	r7, [sp, #8]
    1d2e:	310a      	adds	r1, #10
    1d30:	409f      	lsls	r7, r3
    1d32:	433a      	orrs	r2, r7
    1d34:	e9c4 1211 	strd	r1, r2, [r4, #68]	; 0x44
    1d38:	e675      	b.n	1a26 <tdefl_start_dynamic_block+0x54a>
    1d3a:	f60d 27d4 	addw	r7, sp, #2772	; 0xad4
    1d3e:	f8b9 3636 	ldrh.w	r3, [r9, #1590]	; 0x636
    1d42:	3a0b      	subs	r2, #11
    1d44:	3301      	adds	r3, #1
    1d46:	f8a9 3636 	strh.w	r3, [r9, #1590]	; 0x636
    1d4a:	2312      	movs	r3, #18
    1d4c:	557b      	strb	r3, [r7, r5]
    1d4e:	460d      	mov	r5, r1
    1d50:	543a      	strb	r2, [r7, r0]
    1d52:	e4a6      	b.n	16a2 <tdefl_start_dynamic_block+0x1c6>
    1d54:	4b1e      	ldr	r3, [pc, #120]	; (1dd0 <tdefl_start_dynamic_block+0x8f4>)
    1d56:	f240 32fa 	movw	r2, #1018	; 0x3fa
    1d5a:	491e      	ldr	r1, [pc, #120]	; (1dd4 <tdefl_start_dynamic_block+0x8f8>)
    1d5c:	481e      	ldr	r0, [pc, #120]	; (1dd8 <tdefl_start_dynamic_block+0x8fc>)
    1d5e:	447b      	add	r3, pc
    1d60:	4479      	add	r1, pc
    1d62:	f603 03a8 	addw	r3, r3, #2216	; 0x8a8
    1d66:	4478      	add	r0, pc
    1d68:	f7ff fffe 	bl	0 <__assert_fail>
    1d6c:	4b1b      	ldr	r3, [pc, #108]	; (1ddc <tdefl_start_dynamic_block+0x900>)
    1d6e:	f240 32ff 	movw	r2, #1023	; 0x3ff
    1d72:	491b      	ldr	r1, [pc, #108]	; (1de0 <tdefl_start_dynamic_block+0x904>)
    1d74:	481b      	ldr	r0, [pc, #108]	; (1de4 <tdefl_start_dynamic_block+0x908>)
    1d76:	447b      	add	r3, pc
    1d78:	4479      	add	r1, pc
    1d7a:	f603 03a8 	addw	r3, r3, #2216	; 0x8a8
    1d7e:	4478      	add	r0, pc
    1d80:	f7ff fffe 	bl	0 <__assert_fail>
    1d84:	4b18      	ldr	r3, [pc, #96]	; (1de8 <tdefl_start_dynamic_block+0x90c>)
    1d86:	f44f 6280 	mov.w	r2, #1024	; 0x400
    1d8a:	4918      	ldr	r1, [pc, #96]	; (1dec <tdefl_start_dynamic_block+0x910>)
    1d8c:	4818      	ldr	r0, [pc, #96]	; (1df0 <tdefl_start_dynamic_block+0x914>)
    1d8e:	447b      	add	r3, pc
    1d90:	4479      	add	r1, pc
    1d92:	f603 03a8 	addw	r3, r3, #2216	; 0x8a8
    1d96:	4478      	add	r0, pc
    1d98:	f7ff fffe 	bl	0 <__assert_fail>
    1d9c:	f7ff fffe 	bl	0 <__stack_chk_fail>
    1da0:	4b14      	ldr	r3, [pc, #80]	; (1df4 <tdefl_start_dynamic_block+0x918>)
    1da2:	f240 4202 	movw	r2, #1026	; 0x402
    1da6:	4914      	ldr	r1, [pc, #80]	; (1df8 <tdefl_start_dynamic_block+0x91c>)
    1da8:	4814      	ldr	r0, [pc, #80]	; (1dfc <tdefl_start_dynamic_block+0x920>)
    1daa:	447b      	add	r3, pc
    1dac:	4479      	add	r1, pc
    1dae:	f603 03a8 	addw	r3, r3, #2216	; 0x8a8
    1db2:	4478      	add	r0, pc
    1db4:	f7ff fffe 	bl	0 <__assert_fail>
    1db8:	000008c4 	.word	0x000008c4
    1dbc:	00000000 	.word	0x00000000
    1dc0:	0000037c 	.word	0x0000037c
    1dc4:	0000032a 	.word	0x0000032a
    1dc8:	000002ce 	.word	0x000002ce
    1dcc:	0000024e 	.word	0x0000024e
    1dd0:	0000006e 	.word	0x0000006e
    1dd4:	00000070 	.word	0x00000070
    1dd8:	0000006e 	.word	0x0000006e
    1ddc:	00000062 	.word	0x00000062
    1de0:	00000064 	.word	0x00000064
    1de4:	00000062 	.word	0x00000062
    1de8:	00000056 	.word	0x00000056
    1dec:	00000058 	.word	0x00000058
    1df0:	00000056 	.word	0x00000056
    1df4:	00000046 	.word	0x00000046
    1df8:	00000048 	.word	0x00000048
    1dfc:	00000046 	.word	0x00000046

00001e00 <tdefl_flush_block>:
    1e00:	e92d 43f0 	stmdb	sp!, {r4, r5, r6, r7, r8, r9, lr}
    1e04:	4604      	mov	r4, r0
    1e06:	6883      	ldr	r3, [r0, #8]
    1e08:	b083      	sub	sp, #12
    1e0a:	4688      	mov	r8, r1
    1e0c:	f413 2c00 	ands.w	ip, r3, #524288	; 0x80000
    1e10:	d009      	beq.n	1e26 <tdefl_flush_block+0x26>
    1e12:	69c3      	ldr	r3, [r0, #28]
    1e14:	6c01      	ldr	r1, [r0, #64]	; 0x40
    1e16:	6a42      	ldr	r2, [r0, #36]	; 0x24
    1e18:	1a5b      	subs	r3, r3, r1
    1e1a:	4293      	cmp	r3, r2
    1e1c:	bf8c      	ite	hi
    1e1e:	f04f 0c00 	movhi.w	ip, #0
    1e22:	f04f 0c01 	movls.w	ip, #1
    1e26:	6823      	ldr	r3, [r4, #0]
    1e28:	2b00      	cmp	r3, #0
    1e2a:	f000 8208 	beq.w	223e <tdefl_flush_block+0x43e>
    1e2e:	f504 3764 	add.w	r7, r4, #233472	; 0x39000
    1e32:	f207 2772 	addw	r7, r7, #626	; 0x272
    1e36:	f8d4 905c 	ldr.w	r9, [r4, #92]	; 0x5c
    1e3a:	f507 33a6 	add.w	r3, r7, #84992	; 0x14c00
    1e3e:	33bc      	adds	r3, #188	; 0xbc
    1e40:	6327      	str	r7, [r4, #48]	; 0x30
    1e42:	6363      	str	r3, [r4, #52]	; 0x34
    1e44:	f1b9 0f00 	cmp.w	r9, #0
    1e48:	f040 82c3 	bne.w	23d2 <tdefl_flush_block+0x5d2>
    1e4c:	6ae2      	ldr	r2, [r4, #44]	; 0x2c
    1e4e:	f8c4 9058 	str.w	r9, [r4, #88]	; 0x58
    1e52:	6ba1      	ldr	r1, [r4, #56]	; 0x38
    1e54:	7813      	ldrb	r3, [r2, #0]
    1e56:	410b      	asrs	r3, r1
    1e58:	7013      	strb	r3, [r2, #0]
    1e5a:	6aa3      	ldr	r3, [r4, #40]	; 0x28
    1e5c:	6ba2      	ldr	r2, [r4, #56]	; 0x38
    1e5e:	2a08      	cmp	r2, #8
    1e60:	bf08      	it	eq
    1e62:	3b01      	subeq	r3, #1
    1e64:	62a3      	str	r3, [r4, #40]	; 0x28
    1e66:	68a3      	ldr	r3, [r4, #8]
    1e68:	04d8      	lsls	r0, r3, #19
    1e6a:	d54e      	bpl.n	1f0a <tdefl_flush_block+0x10a>
    1e6c:	6e61      	ldr	r1, [r4, #100]	; 0x64
    1e6e:	e9d4 3211 	ldrd	r3, r2, [r4, #68]	; 0x44
    1e72:	2900      	cmp	r1, #0
    1e74:	d14b      	bne.n	1f0e <tdefl_flush_block+0x10e>
    1e76:	2178      	movs	r1, #120	; 0x78
    1e78:	f103 0508 	add.w	r5, r3, #8
    1e7c:	e9d4 600c 	ldrd	r6, r0, [r4, #48]	; 0x30
    1e80:	4099      	lsls	r1, r3
    1e82:	4311      	orrs	r1, r2
    1e84:	2d07      	cmp	r5, #7
    1e86:	64a1      	str	r1, [r4, #72]	; 0x48
    1e88:	6465      	str	r5, [r4, #68]	; 0x44
    1e8a:	d80f      	bhi.n	1eac <tdefl_flush_block+0xac>
    1e8c:	e282      	b.n	2394 <tdefl_flush_block+0x594>
    1e8e:	1c73      	adds	r3, r6, #1
    1e90:	6323      	str	r3, [r4, #48]	; 0x30
    1e92:	7031      	strb	r1, [r6, #0]
    1e94:	e9d4 3111 	ldrd	r3, r1, [r4, #68]	; 0x44
    1e98:	e9d4 600c 	ldrd	r6, r0, [r4, #48]	; 0x30
    1e9c:	f1a3 0208 	sub.w	r2, r3, #8
    1ea0:	0a09      	lsrs	r1, r1, #8
    1ea2:	2a07      	cmp	r2, #7
    1ea4:	64a1      	str	r1, [r4, #72]	; 0x48
    1ea6:	6462      	str	r2, [r4, #68]	; 0x44
    1ea8:	d910      	bls.n	1ecc <tdefl_flush_block+0xcc>
    1eaa:	4615      	mov	r5, r2
    1eac:	4286      	cmp	r6, r0
    1eae:	d3ee      	bcc.n	1e8e <tdefl_flush_block+0x8e>
    1eb0:	f1a5 0208 	sub.w	r2, r5, #8
    1eb4:	0a09      	lsrs	r1, r1, #8
    1eb6:	2a07      	cmp	r2, #7
    1eb8:	64a1      	str	r1, [r4, #72]	; 0x48
    1eba:	bf98      	it	ls
    1ebc:	462b      	movls	r3, r5
    1ebe:	6462      	str	r2, [r4, #68]	; 0x44
    1ec0:	d904      	bls.n	1ecc <tdefl_flush_block+0xcc>
    1ec2:	4613      	mov	r3, r2
    1ec4:	3a08      	subs	r2, #8
    1ec6:	0a09      	lsrs	r1, r1, #8
    1ec8:	2a07      	cmp	r2, #7
    1eca:	d8fa      	bhi.n	1ec2 <tdefl_flush_block+0xc2>
    1ecc:	2501      	movs	r5, #1
    1ece:	6463      	str	r3, [r4, #68]	; 0x44
    1ed0:	fa05 f202 	lsl.w	r2, r5, r2
    1ed4:	430a      	orrs	r2, r1
    1ed6:	64a2      	str	r2, [r4, #72]	; 0x48
    1ed8:	4286      	cmp	r6, r0
    1eda:	d20f      	bcs.n	1efc <tdefl_flush_block+0xfc>
    1edc:	1c73      	adds	r3, r6, #1
    1ede:	6323      	str	r3, [r4, #48]	; 0x30
    1ee0:	7032      	strb	r2, [r6, #0]
    1ee2:	6c63      	ldr	r3, [r4, #68]	; 0x44
    1ee4:	6ca2      	ldr	r2, [r4, #72]	; 0x48
    1ee6:	3b08      	subs	r3, #8
    1ee8:	6b26      	ldr	r6, [r4, #48]	; 0x30
    1eea:	2b07      	cmp	r3, #7
    1eec:	6463      	str	r3, [r4, #68]	; 0x44
    1eee:	ea4f 2212 	mov.w	r2, r2, lsr #8
    1ef2:	64a2      	str	r2, [r4, #72]	; 0x48
    1ef4:	d90c      	bls.n	1f10 <tdefl_flush_block+0x110>
    1ef6:	6b60      	ldr	r0, [r4, #52]	; 0x34
    1ef8:	4286      	cmp	r6, r0
    1efa:	d3ef      	bcc.n	1edc <tdefl_flush_block+0xdc>
    1efc:	3b08      	subs	r3, #8
    1efe:	0a12      	lsrs	r2, r2, #8
    1f00:	2b07      	cmp	r3, #7
    1f02:	e9c4 3211 	strd	r3, r2, [r4, #68]	; 0x44
    1f06:	d8e7      	bhi.n	1ed8 <tdefl_flush_block+0xd8>
    1f08:	e002      	b.n	1f10 <tdefl_flush_block+0x110>
    1f0a:	e9d4 3211 	ldrd	r3, r2, [r4, #68]	; 0x44
    1f0e:	6b26      	ldr	r6, [r4, #48]	; 0x30
    1f10:	f1a8 0504 	sub.w	r5, r8, #4
    1f14:	fab5 f585 	clz	r5, r5
    1f18:	096d      	lsrs	r5, r5, #5
    1f1a:	409d      	lsls	r5, r3
    1f1c:	3301      	adds	r3, #1
    1f1e:	4315      	orrs	r5, r2
    1f20:	2b07      	cmp	r3, #7
    1f22:	e9c4 3511 	strd	r3, r5, [r4, #68]	; 0x44
    1f26:	d90e      	bls.n	1f46 <tdefl_flush_block+0x146>
    1f28:	6b60      	ldr	r0, [r4, #52]	; 0x34
    1f2a:	42b0      	cmp	r0, r6
    1f2c:	d964      	bls.n	1ff8 <tdefl_flush_block+0x1f8>
    1f2e:	1c73      	adds	r3, r6, #1
    1f30:	6323      	str	r3, [r4, #48]	; 0x30
    1f32:	7035      	strb	r5, [r6, #0]
    1f34:	e9d4 3511 	ldrd	r3, r5, [r4, #68]	; 0x44
    1f38:	6b26      	ldr	r6, [r4, #48]	; 0x30
    1f3a:	3b08      	subs	r3, #8
    1f3c:	6463      	str	r3, [r4, #68]	; 0x44
    1f3e:	0a2d      	lsrs	r5, r5, #8
    1f40:	2b07      	cmp	r3, #7
    1f42:	64a5      	str	r5, [r4, #72]	; 0x48
    1f44:	d8f0      	bhi.n	1f28 <tdefl_flush_block+0x128>
    1f46:	f1bc 0f00 	cmp.w	ip, #0
    1f4a:	d064      	beq.n	2016 <tdefl_flush_block+0x216>
    1f4c:	6c21      	ldr	r1, [r4, #64]	; 0x40
    1f4e:	69e2      	ldr	r2, [r4, #28]
    1f50:	1a52      	subs	r2, r2, r1
    1f52:	6a61      	ldr	r1, [r4, #36]	; 0x24
    1f54:	4291      	cmp	r1, r2
    1f56:	f080 80ea 	bcs.w	212e <tdefl_flush_block+0x32e>
    1f5a:	4620      	mov	r0, r4
    1f5c:	e9c4 3511 	strd	r3, r5, [r4, #68]	; 0x44
    1f60:	6326      	str	r6, [r4, #48]	; 0x30
    1f62:	f7ff fa61 	bl	1428 <tdefl_start_static_block>
    1f66:	4620      	mov	r0, r4
    1f68:	f7fe fa84 	bl	474 <tdefl_compress_lz_codes>
    1f6c:	e9d4 200c 	ldrd	r2, r0, [r4, #48]	; 0x30
    1f70:	4616      	mov	r6, r2
    1f72:	f1b8 0f00 	cmp.w	r8, #0
    1f76:	d06d      	beq.n	2054 <tdefl_flush_block+0x254>
    1f78:	6c63      	ldr	r3, [r4, #68]	; 0x44
    1f7a:	f1b8 0f04 	cmp.w	r8, #4
    1f7e:	f000 81aa 	beq.w	22d6 <tdefl_flush_block+0x4d6>
    1f82:	3303      	adds	r3, #3
    1f84:	6463      	str	r3, [r4, #68]	; 0x44
    1f86:	2b07      	cmp	r3, #7
    1f88:	bf98      	it	ls
    1f8a:	6ca5      	ldrls	r5, [r4, #72]	; 0x48
    1f8c:	d911      	bls.n	1fb2 <tdefl_flush_block+0x1b2>
    1f8e:	6ca1      	ldr	r1, [r4, #72]	; 0x48
    1f90:	4282      	cmp	r2, r0
    1f92:	f080 80af 	bcs.w	20f4 <tdefl_flush_block+0x2f4>
    1f96:	1c53      	adds	r3, r2, #1
    1f98:	6323      	str	r3, [r4, #48]	; 0x30
    1f9a:	7011      	strb	r1, [r2, #0]
    1f9c:	e9d4 3511 	ldrd	r3, r5, [r4, #68]	; 0x44
    1fa0:	e9d4 200c 	ldrd	r2, r0, [r4, #48]	; 0x30
    1fa4:	3b08      	subs	r3, #8
    1fa6:	0a2d      	lsrs	r5, r5, #8
    1fa8:	2b07      	cmp	r3, #7
    1faa:	4629      	mov	r1, r5
    1fac:	6463      	str	r3, [r4, #68]	; 0x44
    1fae:	64a5      	str	r5, [r4, #72]	; 0x48
    1fb0:	d8ee      	bhi.n	1f90 <tdefl_flush_block+0x190>
    1fb2:	4616      	mov	r6, r2
    1fb4:	2b00      	cmp	r3, #0
    1fb6:	f040 8151 	bne.w	225c <tdefl_flush_block+0x45c>
    1fba:	2202      	movs	r2, #2
    1fbc:	f64f 7cff 	movw	ip, #65535	; 0xffff
    1fc0:	fa09 f103 	lsl.w	r1, r9, r3
    1fc4:	3310      	adds	r3, #16
    1fc6:	430d      	orrs	r5, r1
    1fc8:	e9c4 3511 	strd	r3, r5, [r4, #68]	; 0x44
    1fcc:	4286      	cmp	r6, r0
    1fce:	f080 8084 	bcs.w	20da <tdefl_flush_block+0x2da>
    1fd2:	1c73      	adds	r3, r6, #1
    1fd4:	6323      	str	r3, [r4, #48]	; 0x30
    1fd6:	7035      	strb	r5, [r6, #0]
    1fd8:	e9d4 3511 	ldrd	r3, r5, [r4, #68]	; 0x44
    1fdc:	e9d4 600c 	ldrd	r6, r0, [r4, #48]	; 0x30
    1fe0:	3b08      	subs	r3, #8
    1fe2:	0a2d      	lsrs	r5, r5, #8
    1fe4:	2b07      	cmp	r3, #7
    1fe6:	6463      	str	r3, [r4, #68]	; 0x44
    1fe8:	64a5      	str	r5, [r4, #72]	; 0x48
    1fea:	d8ef      	bhi.n	1fcc <tdefl_flush_block+0x1cc>
    1fec:	ea89 090c 	eor.w	r9, r9, ip
    1ff0:	2a01      	cmp	r2, #1
    1ff2:	d02f      	beq.n	2054 <tdefl_flush_block+0x254>
    1ff4:	2201      	movs	r2, #1
    1ff6:	e7e3      	b.n	1fc0 <tdefl_flush_block+0x1c0>
    1ff8:	3b08      	subs	r3, #8
    1ffa:	0a2d      	lsrs	r5, r5, #8
    1ffc:	2b07      	cmp	r3, #7
    1ffe:	e9c4 3511 	strd	r3, r5, [r4, #68]	; 0x44
    2002:	d9a0      	bls.n	1f46 <tdefl_flush_block+0x146>
    2004:	3b08      	subs	r3, #8
    2006:	0a2d      	lsrs	r5, r5, #8
    2008:	2b07      	cmp	r3, #7
    200a:	d8fb      	bhi.n	2004 <tdefl_flush_block+0x204>
    200c:	e9c4 3511 	strd	r3, r5, [r4, #68]	; 0x44
    2010:	f1bc 0f00 	cmp.w	ip, #0
    2014:	d19a      	bne.n	1f4c <tdefl_flush_block+0x14c>
    2016:	68a2      	ldr	r2, [r4, #8]
    2018:	0351      	lsls	r1, r2, #13
    201a:	d47c      	bmi.n	2116 <tdefl_flush_block+0x316>
    201c:	6be2      	ldr	r2, [r4, #60]	; 0x3c
    201e:	2a2f      	cmp	r2, #47	; 0x2f
    2020:	d979      	bls.n	2116 <tdefl_flush_block+0x316>
    2022:	4620      	mov	r0, r4
    2024:	9301      	str	r3, [sp, #4]
    2026:	f7ff fa59 	bl	14dc <tdefl_start_dynamic_block>
    202a:	9b01      	ldr	r3, [sp, #4]
    202c:	4620      	mov	r0, r4
    202e:	9301      	str	r3, [sp, #4]
    2030:	f7fe fa20 	bl	474 <tdefl_compress_lz_codes>
    2034:	6be1      	ldr	r1, [r4, #60]	; 0x3c
    2036:	9b01      	ldr	r3, [sp, #4]
    2038:	b121      	cbz	r1, 2044 <tdefl_flush_block+0x244>
    203a:	6b22      	ldr	r2, [r4, #48]	; 0x30
    203c:	1b92      	subs	r2, r2, r6
    203e:	3201      	adds	r2, #1
    2040:	4291      	cmp	r1, r2
    2042:	d96e      	bls.n	2122 <tdefl_flush_block+0x322>
    2044:	2800      	cmp	r0, #0
    2046:	d088      	beq.n	1f5a <tdefl_flush_block+0x15a>
    2048:	e9d4 200c 	ldrd	r2, r0, [r4, #48]	; 0x30
    204c:	4616      	mov	r6, r2
    204e:	f1b8 0f00 	cmp.w	r8, #0
    2052:	d191      	bne.n	1f78 <tdefl_flush_block+0x178>
    2054:	4286      	cmp	r6, r0
    2056:	f080 81c8 	bcs.w	23ea <tdefl_flush_block+0x5ea>
    205a:	f504 4001 	add.w	r0, r4, #33024	; 0x8100
    205e:	f44f 7210 	mov.w	r2, #576	; 0x240
    2062:	2100      	movs	r1, #0
    2064:	3092      	adds	r0, #146	; 0x92
    2066:	f7ff fffe 	bl	0 <memset>
    206a:	f504 4003 	add.w	r0, r4, #33536	; 0x8300
    206e:	2240      	movs	r2, #64	; 0x40
    2070:	2100      	movs	r1, #0
    2072:	30d2      	adds	r0, #210	; 0xd2
    2074:	f7ff fffe 	bl	0 <memset>
    2078:	f504 4112 	add.w	r1, r4, #37376	; 0x9200
    207c:	e9d4 230f 	ldrd	r2, r3, [r4, #60]	; 0x3c
    2080:	3173      	adds	r1, #115	; 0x73
    2082:	1bf6      	subs	r6, r6, r7
    2084:	62a1      	str	r1, [r4, #40]	; 0x28
    2086:	441a      	add	r2, r3
    2088:	f504 4312 	add.w	r3, r4, #37376	; 0x9200
    208c:	f103 0372 	add.w	r3, r3, #114	; 0x72
    2090:	62e3      	str	r3, [r4, #44]	; 0x2c
    2092:	6e63      	ldr	r3, [r4, #100]	; 0x64
    2094:	f04f 0100 	mov.w	r1, #0
    2098:	6422      	str	r2, [r4, #64]	; 0x40
    209a:	f04f 0208 	mov.w	r2, #8
    209e:	f103 0301 	add.w	r3, r3, #1
    20a2:	63e1      	str	r1, [r4, #60]	; 0x3c
    20a4:	63a2      	str	r2, [r4, #56]	; 0x38
    20a6:	6663      	str	r3, [r4, #100]	; 0x64
    20a8:	d013      	beq.n	20d2 <tdefl_flush_block+0x2d2>
    20aa:	6825      	ldr	r5, [r4, #0]
    20ac:	f504 3064 	add.w	r0, r4, #233472	; 0x39000
    20b0:	f200 2072 	addw	r0, r0, #626	; 0x272
    20b4:	2d00      	cmp	r5, #0
    20b6:	f000 8162 	beq.w	237e <tdefl_flush_block+0x57e>
    20ba:	6fa2      	ldr	r2, [r4, #120]	; 0x78
    20bc:	4631      	mov	r1, r6
    20be:	f8d4 3084 	ldr.w	r3, [r4, #132]	; 0x84
    20c2:	6f26      	ldr	r6, [r4, #112]	; 0x70
    20c4:	1b9b      	subs	r3, r3, r6
    20c6:	6013      	str	r3, [r2, #0]
    20c8:	6862      	ldr	r2, [r4, #4]
    20ca:	47a8      	blx	r5
    20cc:	2800      	cmp	r0, #0
    20ce:	f000 817c 	beq.w	23ca <tdefl_flush_block+0x5ca>
    20d2:	6de0      	ldr	r0, [r4, #92]	; 0x5c
    20d4:	b003      	add	sp, #12
    20d6:	e8bd 83f0 	ldmia.w	sp!, {r4, r5, r6, r7, r8, r9, pc}
    20da:	3b08      	subs	r3, #8
    20dc:	0a2d      	lsrs	r5, r5, #8
    20de:	2b07      	cmp	r3, #7
    20e0:	e9c4 3511 	strd	r3, r5, [r4, #68]	; 0x44
    20e4:	d982      	bls.n	1fec <tdefl_flush_block+0x1ec>
    20e6:	3b08      	subs	r3, #8
    20e8:	0a2d      	lsrs	r5, r5, #8
    20ea:	2b07      	cmp	r3, #7
    20ec:	d8fb      	bhi.n	20e6 <tdefl_flush_block+0x2e6>
    20ee:	e9c4 3511 	strd	r3, r5, [r4, #68]	; 0x44
    20f2:	e77b      	b.n	1fec <tdefl_flush_block+0x1ec>
    20f4:	3b08      	subs	r3, #8
    20f6:	0a09      	lsrs	r1, r1, #8
    20f8:	2b07      	cmp	r3, #7
    20fa:	e9c4 3111 	strd	r3, r1, [r4, #68]	; 0x44
    20fe:	d904      	bls.n	210a <tdefl_flush_block+0x30a>
    2100:	3b08      	subs	r3, #8
    2102:	0a09      	lsrs	r1, r1, #8
    2104:	2b07      	cmp	r3, #7
    2106:	d8fb      	bhi.n	2100 <tdefl_flush_block+0x300>
    2108:	64a1      	str	r1, [r4, #72]	; 0x48
    210a:	460d      	mov	r5, r1
    210c:	4616      	mov	r6, r2
    210e:	2b00      	cmp	r3, #0
    2110:	f43f af53 	beq.w	1fba <tdefl_flush_block+0x1ba>
    2114:	e0a2      	b.n	225c <tdefl_flush_block+0x45c>
    2116:	4620      	mov	r0, r4
    2118:	9301      	str	r3, [sp, #4]
    211a:	f7ff f985 	bl	1428 <tdefl_start_static_block>
    211e:	9b01      	ldr	r3, [sp, #4]
    2120:	e784      	b.n	202c <tdefl_flush_block+0x22c>
    2122:	6c21      	ldr	r1, [r4, #64]	; 0x40
    2124:	69e2      	ldr	r2, [r4, #28]
    2126:	1a52      	subs	r2, r2, r1
    2128:	6a61      	ldr	r1, [r4, #36]	; 0x24
    212a:	428a      	cmp	r2, r1
    212c:	d88a      	bhi.n	2044 <tdefl_flush_block+0x244>
    212e:	3302      	adds	r3, #2
    2130:	6b60      	ldr	r0, [r4, #52]	; 0x34
    2132:	2b07      	cmp	r3, #7
    2134:	6326      	str	r6, [r4, #48]	; 0x30
    2136:	e9c4 3511 	strd	r3, r5, [r4, #68]	; 0x44
    213a:	d80d      	bhi.n	2158 <tdefl_flush_block+0x358>
    213c:	e0b0      	b.n	22a0 <tdefl_flush_block+0x4a0>
    213e:	1c73      	adds	r3, r6, #1
    2140:	6323      	str	r3, [r4, #48]	; 0x30
    2142:	7035      	strb	r5, [r6, #0]
    2144:	e9d4 3511 	ldrd	r3, r5, [r4, #68]	; 0x44
    2148:	6b60      	ldr	r0, [r4, #52]	; 0x34
    214a:	3b08      	subs	r3, #8
    214c:	6463      	str	r3, [r4, #68]	; 0x44
    214e:	0a2d      	lsrs	r5, r5, #8
    2150:	2b07      	cmp	r3, #7
    2152:	64a5      	str	r5, [r4, #72]	; 0x48
    2154:	d908      	bls.n	2168 <tdefl_flush_block+0x368>
    2156:	6b26      	ldr	r6, [r4, #48]	; 0x30
    2158:	42b0      	cmp	r0, r6
    215a:	d8f0      	bhi.n	213e <tdefl_flush_block+0x33e>
    215c:	3b08      	subs	r3, #8
    215e:	0a2d      	lsrs	r5, r5, #8
    2160:	2b07      	cmp	r3, #7
    2162:	e9c4 3511 	strd	r3, r5, [r4, #68]	; 0x44
    2166:	d8f6      	bhi.n	2156 <tdefl_flush_block+0x356>
    2168:	2b00      	cmp	r3, #0
    216a:	f040 8098 	bne.w	229e <tdefl_flush_block+0x49e>
    216e:	6be1      	ldr	r1, [r4, #60]	; 0x3c
    2170:	f04f 0c02 	mov.w	ip, #2
    2174:	6b22      	ldr	r2, [r4, #48]	; 0x30
    2176:	f64f 76ff 	movw	r6, #65535	; 0xffff
    217a:	b289      	uxth	r1, r1
    217c:	4099      	lsls	r1, r3
    217e:	3310      	adds	r3, #16
    2180:	430d      	orrs	r5, r1
    2182:	e9c4 3511 	strd	r3, r5, [r4, #68]	; 0x44
    2186:	4282      	cmp	r2, r0
    2188:	d249      	bcs.n	221e <tdefl_flush_block+0x41e>
    218a:	1c53      	adds	r3, r2, #1
    218c:	6323      	str	r3, [r4, #48]	; 0x30
    218e:	7015      	strb	r5, [r2, #0]
    2190:	e9d4 3511 	ldrd	r3, r5, [r4, #68]	; 0x44
    2194:	e9d4 200c 	ldrd	r2, r0, [r4, #48]	; 0x30
    2198:	3b08      	subs	r3, #8
    219a:	0a2d      	lsrs	r5, r5, #8
    219c:	2b07      	cmp	r3, #7
    219e:	6463      	str	r3, [r4, #68]	; 0x44
    21a0:	64a5      	str	r5, [r4, #72]	; 0x48
    21a2:	d8f0      	bhi.n	2186 <tdefl_flush_block+0x386>
    21a4:	f8d4 e03c 	ldr.w	lr, [r4, #60]	; 0x3c
    21a8:	f1bc 0f01 	cmp.w	ip, #1
    21ac:	ea8e 0106 	eor.w	r1, lr, r6
    21b0:	63e1      	str	r1, [r4, #60]	; 0x3c
    21b2:	d141      	bne.n	2238 <tdefl_flush_block+0x438>
    21b4:	45b6      	cmp	lr, r6
    21b6:	f43f aedb 	beq.w	1f70 <tdefl_flush_block+0x170>
    21ba:	2600      	movs	r6, #0
    21bc:	6c21      	ldr	r1, [r4, #64]	; 0x40
    21be:	4431      	add	r1, r6
    21c0:	f3c1 010e 	ubfx	r1, r1, #0, #15
    21c4:	4421      	add	r1, r4
    21c6:	f891 1090 	ldrb.w	r1, [r1, #144]	; 0x90
    21ca:	4099      	lsls	r1, r3
    21cc:	3308      	adds	r3, #8
    21ce:	430d      	orrs	r5, r1
    21d0:	e9c4 3511 	strd	r3, r5, [r4, #68]	; 0x44
    21d4:	4282      	cmp	r2, r0
    21d6:	d211      	bcs.n	21fc <tdefl_flush_block+0x3fc>
    21d8:	1c53      	adds	r3, r2, #1
    21da:	6323      	str	r3, [r4, #48]	; 0x30
    21dc:	7015      	strb	r5, [r2, #0]
    21de:	e9d4 3511 	ldrd	r3, r5, [r4, #68]	; 0x44
    21e2:	e9d4 200c 	ldrd	r2, r0, [r4, #48]	; 0x30
    21e6:	3b08      	subs	r3, #8
    21e8:	0a2d      	lsrs	r5, r5, #8
    21ea:	2b07      	cmp	r3, #7
    21ec:	6463      	str	r3, [r4, #68]	; 0x44
    21ee:	64a5      	str	r5, [r4, #72]	; 0x48
    21f0:	d8f0      	bhi.n	21d4 <tdefl_flush_block+0x3d4>
    21f2:	6be1      	ldr	r1, [r4, #60]	; 0x3c
    21f4:	3601      	adds	r6, #1
    21f6:	428e      	cmp	r6, r1
    21f8:	d3e0      	bcc.n	21bc <tdefl_flush_block+0x3bc>
    21fa:	e6b9      	b.n	1f70 <tdefl_flush_block+0x170>
    21fc:	3b08      	subs	r3, #8
    21fe:	0a2d      	lsrs	r5, r5, #8
    2200:	2b07      	cmp	r3, #7
    2202:	e9c4 3511 	strd	r3, r5, [r4, #68]	; 0x44
    2206:	d9f4      	bls.n	21f2 <tdefl_flush_block+0x3f2>
    2208:	3b08      	subs	r3, #8
    220a:	0a2d      	lsrs	r5, r5, #8
    220c:	2b07      	cmp	r3, #7
    220e:	d8fb      	bhi.n	2208 <tdefl_flush_block+0x408>
    2210:	6be1      	ldr	r1, [r4, #60]	; 0x3c
    2212:	3601      	adds	r6, #1
    2214:	e9c4 3511 	strd	r3, r5, [r4, #68]	; 0x44
    2218:	428e      	cmp	r6, r1
    221a:	d3cf      	bcc.n	21bc <tdefl_flush_block+0x3bc>
    221c:	e6a8      	b.n	1f70 <tdefl_flush_block+0x170>
    221e:	3b08      	subs	r3, #8
    2220:	0a2d      	lsrs	r5, r5, #8
    2222:	2b07      	cmp	r3, #7
    2224:	e9c4 3511 	strd	r3, r5, [r4, #68]	; 0x44
    2228:	d9bc      	bls.n	21a4 <tdefl_flush_block+0x3a4>
    222a:	3b08      	subs	r3, #8
    222c:	0a2d      	lsrs	r5, r5, #8
    222e:	2b07      	cmp	r3, #7
    2230:	d8fb      	bhi.n	222a <tdefl_flush_block+0x42a>
    2232:	e9c4 3511 	strd	r3, r5, [r4, #68]	; 0x44
    2236:	e7b5      	b.n	21a4 <tdefl_flush_block+0x3a4>
    2238:	f04f 0c01 	mov.w	ip, #1
    223c:	e79d      	b.n	217a <tdefl_flush_block+0x37a>
    223e:	6fe3      	ldr	r3, [r4, #124]	; 0x7c
    2240:	f644 42cb 	movw	r2, #19659	; 0x4ccb
    2244:	f2c0 0201 	movt	r2, #1
    2248:	f8d4 108c 	ldr.w	r1, [r4, #140]	; 0x8c
    224c:	681b      	ldr	r3, [r3, #0]
    224e:	1a5b      	subs	r3, r3, r1
    2250:	4293      	cmp	r3, r2
    2252:	f67f adec 	bls.w	1e2e <tdefl_flush_block+0x2e>
    2256:	6f67      	ldr	r7, [r4, #116]	; 0x74
    2258:	440f      	add	r7, r1
    225a:	e5ec      	b.n	1e36 <tdefl_flush_block+0x36>
    225c:	2308      	movs	r3, #8
    225e:	4286      	cmp	r6, r0
    2260:	6463      	str	r3, [r4, #68]	; 0x44
    2262:	d210      	bcs.n	2286 <tdefl_flush_block+0x486>
    2264:	1c73      	adds	r3, r6, #1
    2266:	6323      	str	r3, [r4, #48]	; 0x30
    2268:	7035      	strb	r5, [r6, #0]
    226a:	6c63      	ldr	r3, [r4, #68]	; 0x44
    226c:	6ca5      	ldr	r5, [r4, #72]	; 0x48
    226e:	3b08      	subs	r3, #8
    2270:	6b26      	ldr	r6, [r4, #48]	; 0x30
    2272:	6b60      	ldr	r0, [r4, #52]	; 0x34
    2274:	2b07      	cmp	r3, #7
    2276:	ea4f 2515 	mov.w	r5, r5, lsr #8
    227a:	6463      	str	r3, [r4, #68]	; 0x44
    227c:	64a5      	str	r5, [r4, #72]	; 0x48
    227e:	f67f ae9c 	bls.w	1fba <tdefl_flush_block+0x1ba>
    2282:	4286      	cmp	r6, r0
    2284:	d3ee      	bcc.n	2264 <tdefl_flush_block+0x464>
    2286:	3b08      	subs	r3, #8
    2288:	0a2d      	lsrs	r5, r5, #8
    228a:	2b07      	cmp	r3, #7
    228c:	e9c4 3511 	strd	r3, r5, [r4, #68]	; 0x44
    2290:	f67f ae93 	bls.w	1fba <tdefl_flush_block+0x1ba>
    2294:	3b08      	subs	r3, #8
    2296:	0a2d      	lsrs	r5, r5, #8
    2298:	2b07      	cmp	r3, #7
    229a:	d8fb      	bhi.n	2294 <tdefl_flush_block+0x494>
    229c:	e68d      	b.n	1fba <tdefl_flush_block+0x1ba>
    229e:	6b26      	ldr	r6, [r4, #48]	; 0x30
    22a0:	2308      	movs	r3, #8
    22a2:	6463      	str	r3, [r4, #68]	; 0x44
    22a4:	e00e      	b.n	22c4 <tdefl_flush_block+0x4c4>
    22a6:	1c73      	adds	r3, r6, #1
    22a8:	6323      	str	r3, [r4, #48]	; 0x30
    22aa:	7035      	strb	r5, [r6, #0]
    22ac:	6c63      	ldr	r3, [r4, #68]	; 0x44
    22ae:	6ca5      	ldr	r5, [r4, #72]	; 0x48
    22b0:	3b08      	subs	r3, #8
    22b2:	6b60      	ldr	r0, [r4, #52]	; 0x34
    22b4:	2b07      	cmp	r3, #7
    22b6:	6463      	str	r3, [r4, #68]	; 0x44
    22b8:	ea4f 2515 	mov.w	r5, r5, lsr #8
    22bc:	64a5      	str	r5, [r4, #72]	; 0x48
    22be:	f67f af56 	bls.w	216e <tdefl_flush_block+0x36e>
    22c2:	6b26      	ldr	r6, [r4, #48]	; 0x30
    22c4:	42b0      	cmp	r0, r6
    22c6:	d8ee      	bhi.n	22a6 <tdefl_flush_block+0x4a6>
    22c8:	3b08      	subs	r3, #8
    22ca:	0a2d      	lsrs	r5, r5, #8
    22cc:	2b07      	cmp	r3, #7
    22ce:	e9c4 3511 	strd	r3, r5, [r4, #68]	; 0x44
    22d2:	d8f6      	bhi.n	22c2 <tdefl_flush_block+0x4c2>
    22d4:	e74b      	b.n	216e <tdefl_flush_block+0x36e>
    22d6:	b18b      	cbz	r3, 22fc <tdefl_flush_block+0x4fc>
    22d8:	6ca2      	ldr	r2, [r4, #72]	; 0x48
    22da:	2308      	movs	r3, #8
    22dc:	6463      	str	r3, [r4, #68]	; 0x44
    22de:	4286      	cmp	r6, r0
    22e0:	d240      	bcs.n	2364 <tdefl_flush_block+0x564>
    22e2:	1c73      	adds	r3, r6, #1
    22e4:	6323      	str	r3, [r4, #48]	; 0x30
    22e6:	7032      	strb	r2, [r6, #0]
    22e8:	6c63      	ldr	r3, [r4, #68]	; 0x44
    22ea:	6ca2      	ldr	r2, [r4, #72]	; 0x48
    22ec:	3b08      	subs	r3, #8
    22ee:	6463      	str	r3, [r4, #68]	; 0x44
    22f0:	e9d4 600c 	ldrd	r6, r0, [r4, #48]	; 0x30
    22f4:	0a12      	lsrs	r2, r2, #8
    22f6:	2b07      	cmp	r3, #7
    22f8:	64a2      	str	r2, [r4, #72]	; 0x48
    22fa:	d8f0      	bhi.n	22de <tdefl_flush_block+0x4de>
    22fc:	68a2      	ldr	r2, [r4, #8]
    22fe:	04d2      	lsls	r2, r2, #19
    2300:	f57f aea8 	bpl.w	2054 <tdefl_flush_block+0x254>
    2304:	f8d4 c018 	ldr.w	ip, [r4, #24]
    2308:	2504      	movs	r5, #4
    230a:	6ca2      	ldr	r2, [r4, #72]	; 0x48
    230c:	ea4f 611c 	mov.w	r1, ip, lsr #24
    2310:	4099      	lsls	r1, r3
    2312:	3308      	adds	r3, #8
    2314:	430a      	orrs	r2, r1
    2316:	e9c4 3211 	strd	r3, r2, [r4, #68]	; 0x44
    231a:	4286      	cmp	r6, r0
    231c:	d211      	bcs.n	2342 <tdefl_flush_block+0x542>
    231e:	1c73      	adds	r3, r6, #1
    2320:	6323      	str	r3, [r4, #48]	; 0x30
    2322:	7032      	strb	r2, [r6, #0]
    2324:	e9d4 3211 	ldrd	r3, r2, [r4, #68]	; 0x44
    2328:	e9d4 600c 	ldrd	r6, r0, [r4, #48]	; 0x30
    232c:	3b08      	subs	r3, #8
    232e:	0a12      	lsrs	r2, r2, #8
    2330:	2b07      	cmp	r3, #7
    2332:	6463      	str	r3, [r4, #68]	; 0x44
    2334:	64a2      	str	r2, [r4, #72]	; 0x48
    2336:	d8f0      	bhi.n	231a <tdefl_flush_block+0x51a>
    2338:	ea4f 2c0c 	mov.w	ip, ip, lsl #8
    233c:	3d01      	subs	r5, #1
    233e:	d1e5      	bne.n	230c <tdefl_flush_block+0x50c>
    2340:	e688      	b.n	2054 <tdefl_flush_block+0x254>
    2342:	3b08      	subs	r3, #8
    2344:	0a12      	lsrs	r2, r2, #8
    2346:	2b07      	cmp	r3, #7
    2348:	e9c4 3211 	strd	r3, r2, [r4, #68]	; 0x44
    234c:	d9f4      	bls.n	2338 <tdefl_flush_block+0x538>
    234e:	3b08      	subs	r3, #8
    2350:	0a12      	lsrs	r2, r2, #8
    2352:	2b07      	cmp	r3, #7
    2354:	d8fb      	bhi.n	234e <tdefl_flush_block+0x54e>
    2356:	ea4f 2c0c 	mov.w	ip, ip, lsl #8
    235a:	3d01      	subs	r5, #1
    235c:	e9c4 3211 	strd	r3, r2, [r4, #68]	; 0x44
    2360:	d1d4      	bne.n	230c <tdefl_flush_block+0x50c>
    2362:	e677      	b.n	2054 <tdefl_flush_block+0x254>
    2364:	3b08      	subs	r3, #8
    2366:	0a12      	lsrs	r2, r2, #8
    2368:	2b07      	cmp	r3, #7
    236a:	e9c4 3211 	strd	r3, r2, [r4, #68]	; 0x44
    236e:	d9c5      	bls.n	22fc <tdefl_flush_block+0x4fc>
    2370:	3b08      	subs	r3, #8
    2372:	0a12      	lsrs	r2, r2, #8
    2374:	2b07      	cmp	r3, #7
    2376:	d8fb      	bhi.n	2370 <tdefl_flush_block+0x570>
    2378:	e9c4 3211 	strd	r3, r2, [r4, #68]	; 0x44
    237c:	e7be      	b.n	22fc <tdefl_flush_block+0x4fc>
    237e:	f8d4 308c 	ldr.w	r3, [r4, #140]	; 0x8c
    2382:	4287      	cmp	r7, r0
    2384:	d009      	beq.n	239a <tdefl_flush_block+0x59a>
    2386:	6de0      	ldr	r0, [r4, #92]	; 0x5c
    2388:	4433      	add	r3, r6
    238a:	f8c4 308c 	str.w	r3, [r4, #140]	; 0x8c
    238e:	b003      	add	sp, #12
    2390:	e8bd 83f0 	ldmia.w	sp!, {r4, r5, r6, r7, r8, r9, pc}
    2394:	3310      	adds	r3, #16
    2396:	462a      	mov	r2, r5
    2398:	e598      	b.n	1ecc <tdefl_flush_block+0xcc>
    239a:	6fe2      	ldr	r2, [r4, #124]	; 0x7c
    239c:	4639      	mov	r1, r7
    239e:	6f60      	ldr	r0, [r4, #116]	; 0x74
    23a0:	6815      	ldr	r5, [r2, #0]
    23a2:	4418      	add	r0, r3
    23a4:	1aed      	subs	r5, r5, r3
    23a6:	42b5      	cmp	r5, r6
    23a8:	bf28      	it	cs
    23aa:	4635      	movcs	r5, r6
    23ac:	462a      	mov	r2, r5
    23ae:	f7ff fffe 	bl	0 <memcpy>
    23b2:	f8d4 308c 	ldr.w	r3, [r4, #140]	; 0x8c
    23b6:	1b70      	subs	r0, r6, r5
    23b8:	bf18      	it	ne
    23ba:	e9c4 5016 	strdne	r5, r0, [r4, #88]	; 0x58
    23be:	442b      	add	r3, r5
    23c0:	f8c4 308c 	str.w	r3, [r4, #140]	; 0x8c
    23c4:	f47f ae86 	bne.w	20d4 <tdefl_flush_block+0x2d4>
    23c8:	e683      	b.n	20d2 <tdefl_flush_block+0x2d2>
    23ca:	f04f 30ff 	mov.w	r0, #4294967295	; 0xffffffff
    23ce:	66e0      	str	r0, [r4, #108]	; 0x6c
    23d0:	e680      	b.n	20d4 <tdefl_flush_block+0x2d4>
    23d2:	4b0c      	ldr	r3, [pc, #48]	; (2404 <tdefl_flush_block+0x604>)
    23d4:	f240 42c1 	movw	r2, #1217	; 0x4c1
    23d8:	490b      	ldr	r1, [pc, #44]	; (2408 <tdefl_flush_block+0x608>)
    23da:	480c      	ldr	r0, [pc, #48]	; (240c <tdefl_flush_block+0x60c>)
    23dc:	447b      	add	r3, pc
    23de:	4479      	add	r1, pc
    23e0:	f603 03c4 	addw	r3, r3, #2244	; 0x8c4
    23e4:	4478      	add	r0, pc
    23e6:	f7ff fffe 	bl	0 <__assert_fail>
    23ea:	4b09      	ldr	r3, [pc, #36]	; (2410 <tdefl_flush_block+0x610>)
    23ec:	f240 5215 	movw	r2, #1301	; 0x515
    23f0:	4908      	ldr	r1, [pc, #32]	; (2414 <tdefl_flush_block+0x614>)
    23f2:	4809      	ldr	r0, [pc, #36]	; (2418 <tdefl_flush_block+0x618>)
    23f4:	447b      	add	r3, pc
    23f6:	4479      	add	r1, pc
    23f8:	f603 03c4 	addw	r3, r3, #2244	; 0x8c4
    23fc:	4478      	add	r0, pc
    23fe:	f7ff fffe 	bl	0 <__assert_fail>
    2402:	bf00      	nop
    2404:	00000024 	.word	0x00000024
    2408:	00000026 	.word	0x00000026
    240c:	00000024 	.word	0x00000024
    2410:	00000018 	.word	0x00000018
    2414:	0000001a 	.word	0x0000001a
    2418:	00000018 	.word	0x00000018

0000241c <tdefl_compress_normal.constprop.0>:
    241c:	e92d 4ff0 	stmdb	sp!, {r4, r5, r6, r7, r8, r9, sl, fp, lr}
    2420:	4683      	mov	fp, r0
    2422:	f8df 3830 	ldr.w	r3, [pc, #2096]	; 2c54 <tdefl_compress_normal.constprop.0+0x838>
    2426:	b091      	sub	sp, #68	; 0x44
    2428:	e9d0 a921 	ldrd	sl, r9, [r0, #132]	; 0x84
    242c:	447b      	add	r3, pc
    242e:	930f      	str	r3, [sp, #60]	; 0x3c
    2430:	464e      	mov	r6, r9
    2432:	f8d0 3080 	ldr.w	r3, [r0, #128]	; 0x80
    2436:	9306      	str	r3, [sp, #24]
    2438:	2e00      	cmp	r6, #0
    243a:	f040 816c 	bne.w	2716 <tdefl_compress_normal.constprop.0+0x2fa>
    243e:	9b06      	ldr	r3, [sp, #24]
    2440:	2b00      	cmp	r3, #0
    2442:	f000 83cf 	beq.w	2be4 <tdefl_compress_normal.constprop.0+0x7c8>
    2446:	f8db 0020 	ldr.w	r0, [fp, #32]
    244a:	2800      	cmp	r0, #0
    244c:	f000 83ca 	beq.w	2be4 <tdefl_compress_normal.constprop.0+0x7c8>
    2450:	f8db 5024 	ldr.w	r5, [fp, #36]	; 0x24
    2454:	182b      	adds	r3, r5, r0
    2456:	2b01      	cmp	r3, #1
    2458:	f240 83ba 	bls.w	2bd0 <tdefl_compress_normal.constprop.0+0x7b4>
    245c:	f8db 701c 	ldr.w	r7, [fp, #28]
    2460:	f5c0 7481 	rsb	r4, r0, #258	; 0x102
    2464:	42b4      	cmp	r4, r6
    2466:	4407      	add	r7, r0
    2468:	bf28      	it	cs
    246a:	4634      	movcs	r4, r6
    246c:	1e7a      	subs	r2, r7, #1
    246e:	f1a7 0c02 	sub.w	ip, r7, #2
    2472:	1821      	adds	r1, r4, r0
    2474:	1b36      	subs	r6, r6, r4
    2476:	f3c2 020e 	ubfx	r2, r2, #0, #15
    247a:	f3cc 030e 	ubfx	r3, ip, #0, #15
    247e:	445a      	add	r2, fp
    2480:	4454      	add	r4, sl
    2482:	f3c7 070e 	ubfx	r7, r7, #0, #15
    2486:	45a2      	cmp	sl, r4
    2488:	f892 0090 	ldrb.w	r0, [r2, #144]	; 0x90
    248c:	eb0b 0203 	add.w	r2, fp, r3
    2490:	f892 2090 	ldrb.w	r2, [r2, #144]	; 0x90
    2494:	f8cb 1020 	str.w	r1, [fp, #32]
    2498:	ea80 1042 	eor.w	r0, r0, r2, lsl #5
    249c:	d02b      	beq.n	24f6 <tdefl_compress_normal.constprop.0+0xda>
    249e:	f64c 1e38 	movw	lr, #51512	; 0xc938
    24a2:	e001      	b.n	24a8 <tdefl_compress_normal.constprop.0+0x8c>
    24a4:	f3cc 030e 	ubfx	r3, ip, #0, #15
    24a8:	f5b7 7f80 	cmp.w	r7, #256	; 0x100
    24ac:	f81a 2b01 	ldrb.w	r2, [sl], #1
    24b0:	eb0b 0807 	add.w	r8, fp, r7
    24b4:	4473      	add	r3, lr
    24b6:	bf98      	it	ls
    24b8:	f248 0990 	movwls	r9, #32912	; 0x8090
    24bc:	f107 0701 	add.w	r7, r7, #1
    24c0:	eb0b 0343 	add.w	r3, fp, r3, lsl #1
    24c4:	f888 2090 	strb.w	r2, [r8, #144]	; 0x90
    24c8:	f3c7 070e 	ubfx	r7, r7, #0, #15
    24cc:	bf98      	it	ls
    24ce:	f808 2009 	strbls.w	r2, [r8, r9]
    24d2:	ea82 1240 	eor.w	r2, r2, r0, lsl #5
    24d6:	4554      	cmp	r4, sl
    24d8:	f3c2 000e 	ubfx	r0, r2, #0, #15
    24dc:	eb0b 0240 	add.w	r2, fp, r0, lsl #1
    24e0:	f502 3224 	add.w	r2, r2, #167936	; 0x29000
    24e4:	f8b2 8272 	ldrh.w	r8, [r2, #626]	; 0x272
    24e8:	f8a3 8002 	strh.w	r8, [r3, #2]
    24ec:	f8a2 c272 	strh.w	ip, [r2, #626]	; 0x272
    24f0:	f10c 0c01 	add.w	ip, ip, #1
    24f4:	d1d6      	bne.n	24a4 <tdefl_compress_normal.constprop.0+0x88>
    24f6:	9a06      	ldr	r2, [sp, #24]
    24f8:	f5c1 4300 	rsb	r3, r1, #32768	; 0x8000
    24fc:	f5b1 7f81 	cmp.w	r1, #258	; 0x102
    2500:	fab2 f282 	clz	r2, r2
    2504:	ea4f 1252 	mov.w	r2, r2, lsr #5
    2508:	bf28      	it	cs
    250a:	2200      	movcs	r2, #0
    250c:	429d      	cmp	r5, r3
    250e:	bf28      	it	cs
    2510:	461d      	movcs	r5, r3
    2512:	f8cb 5024 	str.w	r5, [fp, #36]	; 0x24
    2516:	2a00      	cmp	r2, #0
    2518:	f040 836d 	bne.w	2bf6 <tdefl_compress_normal.constprop.0+0x7da>
    251c:	f8db 301c 	ldr.w	r3, [fp, #28]
    2520:	46a2      	mov	sl, r4
    2522:	9301      	str	r3, [sp, #4]
    2524:	461a      	mov	r2, r3
    2526:	f8db 3050 	ldr.w	r3, [fp, #80]	; 0x50
    252a:	f3c2 020e 	ubfx	r2, r2, #0, #15
    252e:	9202      	str	r2, [sp, #8]
    2530:	f8db 2008 	ldr.w	r2, [fp, #8]
    2534:	2b00      	cmp	r3, #0
    2536:	bf14      	ite	ne
    2538:	4618      	movne	r0, r3
    253a:	2002      	moveq	r0, #2
    253c:	9304      	str	r3, [sp, #16]
    253e:	f412 2310 	ands.w	r3, r2, #589824	; 0x90000
    2542:	9205      	str	r2, [sp, #20]
    2544:	f000 8142 	beq.w	27cc <tdefl_compress_normal.constprop.0+0x3b0>
    2548:	b13d      	cbz	r5, 255a <tdefl_compress_normal.constprop.0+0x13e>
    254a:	f412 2300 	ands.w	r3, r2, #524288	; 0x80000
    254e:	f000 8320 	beq.w	2b92 <tdefl_compress_normal.constprop.0+0x776>
    2552:	2803      	cmp	r0, #3
    2554:	f000 833a 	beq.w	2bcc <tdefl_compress_normal.constprop.0+0x7b0>
    2558:	2500      	movs	r5, #0
    255a:	9b02      	ldr	r3, [sp, #8]
    255c:	42ab      	cmp	r3, r5
    255e:	d06c      	beq.n	263a <tdefl_compress_normal.constprop.0+0x21e>
    2560:	9a05      	ldr	r2, [sp, #20]
    2562:	2805      	cmp	r0, #5
    2564:	bf8c      	ite	hi
    2566:	2300      	movhi	r3, #0
    2568:	2301      	movls	r3, #1
    256a:	ea13 4352 	ands.w	r3, r3, r2, lsr #17
    256e:	d164      	bne.n	263a <tdefl_compress_normal.constprop.0+0x21e>
    2570:	9b04      	ldr	r3, [sp, #16]
    2572:	2b00      	cmp	r3, #0
    2574:	f040 8202 	bne.w	297c <tdefl_compress_normal.constprop.0+0x560>
    2578:	2d00      	cmp	r5, #0
    257a:	f000 81cc 	beq.w	2916 <tdefl_compress_normal.constprop.0+0x4fa>
    257e:	9b05      	ldr	r3, [sp, #20]
    2580:	f403 3280 	and.w	r2, r3, #65536	; 0x10000
    2584:	f8db 3014 	ldr.w	r3, [fp, #20]
    2588:	431a      	orrs	r2, r3
    258a:	f040 8282 	bne.w	2a92 <tdefl_compress_normal.constprop.0+0x676>
    258e:	287f      	cmp	r0, #127	; 0x7f
    2590:	f200 8282 	bhi.w	2a98 <tdefl_compress_normal.constprop.0+0x67c>
    2594:	9b02      	ldr	r3, [sp, #8]
    2596:	445b      	add	r3, fp
    2598:	f893 3090 	ldrb.w	r3, [r3, #144]	; 0x90
    259c:	e9cb 0314 	strd	r0, r3, [fp, #80]	; 0x50
    25a0:	2001      	movs	r0, #1
    25a2:	9b01      	ldr	r3, [sp, #4]
    25a4:	f8cb 504c 	str.w	r5, [fp, #76]	; 0x4c
    25a8:	f8db 2020 	ldr.w	r2, [fp, #32]
    25ac:	4403      	add	r3, r0
    25ae:	f8cb 301c 	str.w	r3, [fp, #28]
    25b2:	4290      	cmp	r0, r2
    25b4:	f200 832e 	bhi.w	2c14 <tdefl_compress_normal.constprop.0+0x7f8>
    25b8:	f8db 3024 	ldr.w	r3, [fp, #36]	; 0x24
    25bc:	f50b 31c9 	add.w	r1, fp, #102912	; 0x19200
    25c0:	f8db 5028 	ldr.w	r5, [fp, #40]	; 0x28
    25c4:	316a      	adds	r1, #106	; 0x6a
    25c6:	4403      	add	r3, r0
    25c8:	1a12      	subs	r2, r2, r0
    25ca:	f5b3 4f00 	cmp.w	r3, #32768	; 0x8000
    25ce:	bf28      	it	cs
    25d0:	f44f 4300 	movcs.w	r3, #32768	; 0x8000
    25d4:	428d      	cmp	r5, r1
    25d6:	e9cb 2308 	strd	r2, r3, [fp, #32]
    25da:	d814      	bhi.n	2606 <tdefl_compress_normal.constprop.0+0x1ea>
    25dc:	f8db 303c 	ldr.w	r3, [fp, #60]	; 0x3c
    25e0:	f5b3 4ff8 	cmp.w	r3, #31744	; 0x7c00
    25e4:	f67f af28 	bls.w	2438 <tdefl_compress_normal.constprop.0+0x1c>
    25e8:	f50b 4212 	add.w	r2, fp, #37376	; 0x9200
    25ec:	2173      	movs	r1, #115	; 0x73
    25ee:	3272      	adds	r2, #114	; 0x72
    25f0:	1aad      	subs	r5, r5, r2
    25f2:	fb01 f505 	mul.w	r5, r1, r5
    25f6:	ebb3 1fd5 	cmp.w	r3, r5, lsr #7
    25fa:	d904      	bls.n	2606 <tdefl_compress_normal.constprop.0+0x1ea>
    25fc:	f8db 3008 	ldr.w	r3, [fp, #8]
    2600:	031b      	lsls	r3, r3, #12
    2602:	f57f af19 	bpl.w	2438 <tdefl_compress_normal.constprop.0+0x1c>
    2606:	2100      	movs	r1, #0
    2608:	4658      	mov	r0, fp
    260a:	e9cb 4621 	strd	r4, r6, [fp, #132]	; 0x84
    260e:	f7ff fbf7 	bl	1e00 <tdefl_flush_block>
    2612:	2800      	cmp	r0, #0
    2614:	f43f af10 	beq.w	2438 <tdefl_compress_normal.constprop.0+0x1c>
    2618:	43c0      	mvns	r0, r0
    261a:	0fc0      	lsrs	r0, r0, #31
    261c:	b011      	add	sp, #68	; 0x44
    261e:	e8bd 8ff0 	ldmia.w	sp!, {r4, r5, r6, r7, r8, r9, sl, fp, pc}
    2622:	e9dd a40c 	ldrd	sl, r4, [sp, #48]	; 0x30
    2626:	9e0e      	ldr	r6, [sp, #56]	; 0x38
    2628:	2803      	cmp	r0, #3
    262a:	bf18      	it	ne
    262c:	9d08      	ldrne	r5, [sp, #32]
    262e:	d194      	bne.n	255a <tdefl_compress_normal.constprop.0+0x13e>
    2630:	9b08      	ldr	r3, [sp, #32]
    2632:	f5b3 5f00 	cmp.w	r3, #8192	; 0x2000
    2636:	f0c0 8288 	bcc.w	2b4a <tdefl_compress_normal.constprop.0+0x72e>
    263a:	9b04      	ldr	r3, [sp, #16]
    263c:	2b00      	cmp	r3, #0
    263e:	f000 816a 	beq.w	2916 <tdefl_compress_normal.constprop.0+0x4fa>
    2642:	9d04      	ldr	r5, [sp, #16]
    2644:	f8db 104c 	ldr.w	r1, [fp, #76]	; 0x4c
    2648:	2d02      	cmp	r5, #2
    264a:	462b      	mov	r3, r5
    264c:	f101 31ff 	add.w	r1, r1, #4294967295	; 0xffffffff
    2650:	bf94      	ite	ls
    2652:	2300      	movls	r3, #0
    2654:	2301      	movhi	r3, #1
    2656:	f5b1 4f00 	cmp.w	r1, #32768	; 0x8000
    265a:	bf28      	it	cs
    265c:	2300      	movcs	r3, #0
    265e:	2b00      	cmp	r3, #0
    2660:	f000 82cc 	beq.w	2bfc <tdefl_compress_normal.constprop.0+0x7e0>
    2664:	f8db 2028 	ldr.w	r2, [fp, #40]	; 0x28
    2668:	1ee8      	subs	r0, r5, #3
    266a:	f8db 303c 	ldr.w	r3, [fp, #60]	; 0x3c
    266e:	f3c1 0708 	ubfx	r7, r1, #0, #9
    2672:	442b      	add	r3, r5
    2674:	f8cb 303c 	str.w	r3, [fp, #60]	; 0x3c
    2678:	7010      	strb	r0, [r2, #0]
    267a:	0a0a      	lsrs	r2, r1, #8
    267c:	f8db 3028 	ldr.w	r3, [fp, #40]	; 0x28
    2680:	7059      	strb	r1, [r3, #1]
    2682:	f8db 3028 	ldr.w	r3, [fp, #40]	; 0x28
    2686:	709a      	strb	r2, [r3, #2]
    2688:	e9db 350a 	ldrd	r3, r5, [fp, #40]	; 0x28
    268c:	3303      	adds	r3, #3
    268e:	f8cb 3028 	str.w	r3, [fp, #40]	; 0x28
    2692:	782b      	ldrb	r3, [r5, #0]
    2694:	085b      	lsrs	r3, r3, #1
    2696:	f063 037f 	orn	r3, r3, #127	; 0x7f
    269a:	702b      	strb	r3, [r5, #0]
    269c:	f8df 55b8 	ldr.w	r5, [pc, #1464]	; 2c58 <tdefl_compress_normal.constprop.0+0x83c>
    26a0:	f8db 3038 	ldr.w	r3, [fp, #56]	; 0x38
    26a4:	447d      	add	r5, pc
    26a6:	3b01      	subs	r3, #1
    26a8:	bf11      	iteee	ne
    26aa:	f8cb 3038 	strne.w	r3, [fp, #56]	; 0x38
    26ae:	2308      	moveq	r3, #8
    26b0:	f8cb 3038 	streq.w	r3, [fp, #56]	; 0x38
    26b4:	f8db 3028 	ldreq.w	r3, [fp, #40]	; 0x28
    26b8:	bf02      	ittt	eq
    26ba:	f8cb 302c 	streq.w	r3, [fp, #44]	; 0x2c
    26be:	3301      	addeq	r3, #1
    26c0:	f8cb 3028 	streq.w	r3, [fp, #40]	; 0x28
    26c4:	9b0f      	ldr	r3, [sp, #60]	; 0x3c
    26c6:	441a      	add	r2, r3
    26c8:	441f      	add	r7, r3
    26ca:	f892 375c 	ldrb.w	r3, [r2, #1884]	; 0x75c
    26ce:	f897 735c 	ldrb.w	r7, [r7, #860]	; 0x35c
    26d2:	f835 2010 	ldrh.w	r2, [r5, r0, lsl #1]
    26d6:	f5b1 7f00 	cmp.w	r1, #512	; 0x200
    26da:	bf38      	it	cc
    26dc:	463b      	movcc	r3, r7
    26de:	2100      	movs	r1, #0
    26e0:	eb0b 0343 	add.w	r3, fp, r3, lsl #1
    26e4:	eb0b 0242 	add.w	r2, fp, r2, lsl #1
    26e8:	f503 4300 	add.w	r3, r3, #32768	; 0x8000
    26ec:	f502 4200 	add.w	r2, r2, #32768	; 0x8000
    26f0:	f8b3 03d2 	ldrh.w	r0, [r3, #978]	; 0x3d2
    26f4:	3001      	adds	r0, #1
    26f6:	f8a3 03d2 	strh.w	r0, [r3, #978]	; 0x3d2
    26fa:	f8b2 3192 	ldrh.w	r3, [r2, #402]	; 0x192
    26fe:	3301      	adds	r3, #1
    2700:	f8a2 3192 	strh.w	r3, [r2, #402]	; 0x192
    2704:	f8db 0050 	ldr.w	r0, [fp, #80]	; 0x50
    2708:	f8db 301c 	ldr.w	r3, [fp, #28]
    270c:	3801      	subs	r0, #1
    270e:	9301      	str	r3, [sp, #4]
    2710:	f8cb 1050 	str.w	r1, [fp, #80]	; 0x50
    2714:	e748      	b.n	25a8 <tdefl_compress_normal.constprop.0+0x18c>
    2716:	e9db 0508 	ldrd	r0, r5, [fp, #32]
    271a:	1943      	adds	r3, r0, r5
    271c:	2b01      	cmp	r3, #1
    271e:	f63f ae9d 	bhi.w	245c <tdefl_compress_normal.constprop.0+0x40>
    2722:	f8db 301c 	ldr.w	r3, [fp, #28]
    2726:	eba5 0c0a 	sub.w	ip, r5, sl
    272a:	4654      	mov	r4, sl
    272c:	4601      	mov	r1, r0
    272e:	1e9a      	subs	r2, r3, #2
    2730:	4484      	add	ip, r0
    2732:	4402      	add	r2, r0
    2734:	9301      	str	r3, [sp, #4]
    2736:	f64c 1e38 	movw	lr, #51512	; 0xc938
    273a:	e03a      	b.n	27b2 <tdefl_compress_normal.constprop.0+0x396>
    273c:	1c90      	adds	r0, r2, #2
    273e:	f814 3b01 	ldrb.w	r3, [r4], #1
    2742:	3101      	adds	r1, #1
    2744:	3e01      	subs	r6, #1
    2746:	f3c0 000e 	ubfx	r0, r0, #0, #15
    274a:	f5b0 7f80 	cmp.w	r0, #256	; 0x100
    274e:	eb0b 0700 	add.w	r7, fp, r0
    2752:	bf98      	it	ls
    2754:	f248 0090 	movwls	r0, #32912	; 0x8090
    2758:	f887 3090 	strb.w	r3, [r7, #144]	; 0x90
    275c:	bf98      	it	ls
    275e:	543b      	strbls	r3, [r7, r0]
    2760:	eb04 000c 	add.w	r0, r4, ip
    2764:	1c57      	adds	r7, r2, #1
    2766:	2802      	cmp	r0, #2
    2768:	f8cb 1020 	str.w	r1, [fp, #32]
    276c:	d91d      	bls.n	27aa <tdefl_compress_normal.constprop.0+0x38e>
    276e:	f3c2 000e 	ubfx	r0, r2, #0, #15
    2772:	eb0b 0800 	add.w	r8, fp, r0
    2776:	4470      	add	r0, lr
    2778:	eb0b 0040 	add.w	r0, fp, r0, lsl #1
    277c:	f898 8090 	ldrb.w	r8, [r8, #144]	; 0x90
    2780:	ea43 2388 	orr.w	r3, r3, r8, lsl #10
    2784:	f3c7 080e 	ubfx	r8, r7, #0, #15
    2788:	44d8      	add	r8, fp
    278a:	f898 8090 	ldrb.w	r8, [r8, #144]	; 0x90
    278e:	ea83 1348 	eor.w	r3, r3, r8, lsl #5
    2792:	f3c3 030e 	ubfx	r3, r3, #0, #15
    2796:	eb0b 0343 	add.w	r3, fp, r3, lsl #1
    279a:	f503 3324 	add.w	r3, r3, #167936	; 0x29000
    279e:	f8b3 8272 	ldrh.w	r8, [r3, #626]	; 0x272
    27a2:	f8a0 8002 	strh.w	r8, [r0, #2]
    27a6:	f8a3 2272 	strh.w	r2, [r3, #626]	; 0x272
    27aa:	463a      	mov	r2, r7
    27ac:	2e00      	cmp	r6, #0
    27ae:	f43f aea2 	beq.w	24f6 <tdefl_compress_normal.constprop.0+0xda>
    27b2:	f5b1 7f81 	cmp.w	r1, #258	; 0x102
    27b6:	d3c1      	bcc.n	273c <tdefl_compress_normal.constprop.0+0x320>
    27b8:	f5c1 4300 	rsb	r3, r1, #32768	; 0x8000
    27bc:	9a01      	ldr	r2, [sp, #4]
    27be:	429d      	cmp	r5, r3
    27c0:	46a2      	mov	sl, r4
    27c2:	bf28      	it	cs
    27c4:	461d      	movcs	r5, r3
    27c6:	f8cb 5024 	str.w	r5, [fp, #36]	; 0x24
    27ca:	e6ac      	b.n	2526 <tdefl_compress_normal.constprop.0+0x10a>
    27cc:	9f02      	ldr	r7, [sp, #8]
    27ce:	281f      	cmp	r0, #31
    27d0:	bf94      	ite	ls
    27d2:	2200      	movls	r2, #0
    27d4:	2201      	movhi	r2, #1
    27d6:	4407      	add	r7, r0
    27d8:	f5b1 7f81 	cmp.w	r1, #258	; 0x102
    27dc:	445f      	add	r7, fp
    27de:	eb0b 0282 	add.w	r2, fp, r2, lsl #2
    27e2:	f897 e090 	ldrb.w	lr, [r7, #144]	; 0x90
    27e6:	f897 708f 	ldrb.w	r7, [r7, #143]	; 0x8f
    27ea:	68d2      	ldr	r2, [r2, #12]
    27ec:	9703      	str	r7, [sp, #12]
    27ee:	f200 8224 	bhi.w	2c3a <tdefl_compress_normal.constprop.0+0x81e>
    27f2:	4288      	cmp	r0, r1
    27f4:	f080 81a6 	bcs.w	2b44 <tdefl_compress_normal.constprop.0+0x728>
    27f8:	3a01      	subs	r2, #1
    27fa:	f000 81a3 	beq.w	2b44 <tdefl_compress_normal.constprop.0+0x728>
    27fe:	9308      	str	r3, [sp, #32]
    2800:	f10b 0390 	add.w	r3, fp, #144	; 0x90
    2804:	461f      	mov	r7, r3
    2806:	930a      	str	r3, [sp, #40]	; 0x28
    2808:	9b02      	ldr	r3, [sp, #8]
    280a:	f64c 1838 	movw	r8, #51512	; 0xc938
    280e:	9107      	str	r1, [sp, #28]
    2810:	4611      	mov	r1, r2
    2812:	441f      	add	r7, r3
    2814:	f8bd 9004 	ldrh.w	r9, [sp, #4]
    2818:	970b      	str	r7, [sp, #44]	; 0x2c
    281a:	e9cd a40c 	strd	sl, r4, [sp, #48]	; 0x30
    281e:	960e      	str	r6, [sp, #56]	; 0x38
    2820:	e02c      	b.n	287c <tdefl_compress_normal.constprop.0+0x460>
    2822:	4443      	add	r3, r8
    2824:	eb0b 0343 	add.w	r3, fp, r3, lsl #1
    2828:	885b      	ldrh	r3, [r3, #2]
    282a:	2b00      	cmp	r3, #0
    282c:	f43f aef9 	beq.w	2622 <tdefl_compress_normal.constprop.0+0x206>
    2830:	eba9 0203 	sub.w	r2, r9, r3
    2834:	b292      	uxth	r2, r2
    2836:	4295      	cmp	r5, r2
    2838:	f4ff aef3 	bcc.w	2622 <tdefl_compress_normal.constprop.0+0x206>
    283c:	f3c3 030e 	ubfx	r3, r3, #0, #15
    2840:	181c      	adds	r4, r3, r0
    2842:	445c      	add	r4, fp
    2844:	f894 6090 	ldrb.w	r6, [r4, #144]	; 0x90
    2848:	4576      	cmp	r6, lr
    284a:	d058      	beq.n	28fe <tdefl_compress_normal.constprop.0+0x4e2>
    284c:	4443      	add	r3, r8
    284e:	eb0b 0343 	add.w	r3, fp, r3, lsl #1
    2852:	885b      	ldrh	r3, [r3, #2]
    2854:	2b00      	cmp	r3, #0
    2856:	f43f aee4 	beq.w	2622 <tdefl_compress_normal.constprop.0+0x206>
    285a:	eba9 0203 	sub.w	r2, r9, r3
    285e:	b292      	uxth	r2, r2
    2860:	4295      	cmp	r5, r2
    2862:	f4ff aede 	bcc.w	2622 <tdefl_compress_normal.constprop.0+0x206>
    2866:	f3c3 030e 	ubfx	r3, r3, #0, #15
    286a:	181c      	adds	r4, r3, r0
    286c:	445c      	add	r4, fp
    286e:	f894 6090 	ldrb.w	r6, [r4, #144]	; 0x90
    2872:	4576      	cmp	r6, lr
    2874:	d049      	beq.n	290a <tdefl_compress_normal.constprop.0+0x4ee>
    2876:	3901      	subs	r1, #1
    2878:	f43f aed3 	beq.w	2622 <tdefl_compress_normal.constprop.0+0x206>
    287c:	4443      	add	r3, r8
    287e:	eb0b 0343 	add.w	r3, fp, r3, lsl #1
    2882:	885b      	ldrh	r3, [r3, #2]
    2884:	2b00      	cmp	r3, #0
    2886:	f43f aecc 	beq.w	2622 <tdefl_compress_normal.constprop.0+0x206>
    288a:	eba9 0203 	sub.w	r2, r9, r3
    288e:	b292      	uxth	r2, r2
    2890:	4295      	cmp	r5, r2
    2892:	f4ff aec6 	bcc.w	2622 <tdefl_compress_normal.constprop.0+0x206>
    2896:	f3c3 030e 	ubfx	r3, r3, #0, #15
    289a:	181c      	adds	r4, r3, r0
    289c:	445c      	add	r4, fp
    289e:	f894 6090 	ldrb.w	r6, [r4, #144]	; 0x90
    28a2:	4576      	cmp	r6, lr
    28a4:	d1bd      	bne.n	2822 <tdefl_compress_normal.constprop.0+0x406>
    28a6:	f894 408f 	ldrb.w	r4, [r4, #143]	; 0x8f
    28aa:	9e03      	ldr	r6, [sp, #12]
    28ac:	42b4      	cmp	r4, r6
    28ae:	d1b8      	bne.n	2822 <tdefl_compress_normal.constprop.0+0x406>
    28b0:	2a00      	cmp	r2, #0
    28b2:	f43f aeb6 	beq.w	2622 <tdefl_compress_normal.constprop.0+0x206>
    28b6:	9c0a      	ldr	r4, [sp, #40]	; 0x28
    28b8:	2700      	movs	r7, #0
    28ba:	f8dd a01c 	ldr.w	sl, [sp, #28]
    28be:	18e6      	adds	r6, r4, r3
    28c0:	9509      	str	r5, [sp, #36]	; 0x24
    28c2:	9c0b      	ldr	r4, [sp, #44]	; 0x2c
    28c4:	e003      	b.n	28ce <tdefl_compress_normal.constprop.0+0x4b2>
    28c6:	3701      	adds	r7, #1
    28c8:	4557      	cmp	r7, sl
    28ca:	f000 814a 	beq.w	2b62 <tdefl_compress_normal.constprop.0+0x746>
    28ce:	f814 cb01 	ldrb.w	ip, [r4], #1
    28d2:	f816 5b01 	ldrb.w	r5, [r6], #1
    28d6:	45ac      	cmp	ip, r5
    28d8:	d0f5      	beq.n	28c6 <tdefl_compress_normal.constprop.0+0x4aa>
    28da:	9d09      	ldr	r5, [sp, #36]	; 0x24
    28dc:	4287      	cmp	r7, r0
    28de:	d9ca      	bls.n	2876 <tdefl_compress_normal.constprop.0+0x45a>
    28e0:	9807      	ldr	r0, [sp, #28]
    28e2:	42b8      	cmp	r0, r7
    28e4:	f000 81a2 	beq.w	2c2c <tdefl_compress_normal.constprop.0+0x810>
    28e8:	9208      	str	r2, [sp, #32]
    28ea:	4638      	mov	r0, r7
    28ec:	9a02      	ldr	r2, [sp, #8]
    28ee:	443a      	add	r2, r7
    28f0:	445a      	add	r2, fp
    28f2:	f892 e090 	ldrb.w	lr, [r2, #144]	; 0x90
    28f6:	f892 208f 	ldrb.w	r2, [r2, #143]	; 0x8f
    28fa:	9203      	str	r2, [sp, #12]
    28fc:	e7bb      	b.n	2876 <tdefl_compress_normal.constprop.0+0x45a>
    28fe:	f894 408f 	ldrb.w	r4, [r4, #143]	; 0x8f
    2902:	9e03      	ldr	r6, [sp, #12]
    2904:	42b4      	cmp	r4, r6
    2906:	d1a1      	bne.n	284c <tdefl_compress_normal.constprop.0+0x430>
    2908:	e7d2      	b.n	28b0 <tdefl_compress_normal.constprop.0+0x494>
    290a:	f894 408f 	ldrb.w	r4, [r4, #143]	; 0x8f
    290e:	9e03      	ldr	r6, [sp, #12]
    2910:	42b4      	cmp	r4, r6
    2912:	d1b0      	bne.n	2876 <tdefl_compress_normal.constprop.0+0x45a>
    2914:	e7cc      	b.n	28b0 <tdefl_compress_normal.constprop.0+0x494>
    2916:	9b02      	ldr	r3, [sp, #8]
    2918:	f8db 1028 	ldr.w	r1, [fp, #40]	; 0x28
    291c:	445b      	add	r3, fp
    291e:	f8db 203c 	ldr.w	r2, [fp, #60]	; 0x3c
    2922:	1c48      	adds	r0, r1, #1
    2924:	3201      	adds	r2, #1
    2926:	f893 3090 	ldrb.w	r3, [r3, #144]	; 0x90
    292a:	f8cb 0028 	str.w	r0, [fp, #40]	; 0x28
    292e:	2001      	movs	r0, #1
    2930:	f8cb 203c 	str.w	r2, [fp, #60]	; 0x3c
    2934:	700b      	strb	r3, [r1, #0]
    2936:	eb0b 0343 	add.w	r3, fp, r3, lsl #1
    293a:	f503 4300 	add.w	r3, r3, #32768	; 0x8000
    293e:	f8db 102c 	ldr.w	r1, [fp, #44]	; 0x2c
    2942:	780a      	ldrb	r2, [r1, #0]
    2944:	0852      	lsrs	r2, r2, #1
    2946:	700a      	strb	r2, [r1, #0]
    2948:	f8db 2038 	ldr.w	r2, [fp, #56]	; 0x38
    294c:	3a01      	subs	r2, #1
    294e:	bf11      	iteee	ne
    2950:	f8cb 2038 	strne.w	r2, [fp, #56]	; 0x38
    2954:	2108      	moveq	r1, #8
    2956:	f8cb 1038 	streq.w	r1, [fp, #56]	; 0x38
    295a:	f8db 2028 	ldreq.w	r2, [fp, #40]	; 0x28
    295e:	bf02      	ittt	eq
    2960:	f8cb 202c 	streq.w	r2, [fp, #44]	; 0x2c
    2964:	3201      	addeq	r2, #1
    2966:	f8cb 2028 	streq.w	r2, [fp, #40]	; 0x28
    296a:	f8b3 2192 	ldrh.w	r2, [r3, #402]	; 0x192
    296e:	4402      	add	r2, r0
    2970:	f8a3 2192 	strh.w	r2, [r3, #402]	; 0x192
    2974:	f8db 301c 	ldr.w	r3, [fp, #28]
    2978:	9301      	str	r3, [sp, #4]
    297a:	e615      	b.n	25a8 <tdefl_compress_normal.constprop.0+0x18c>
    297c:	4283      	cmp	r3, r0
    297e:	f4bf ae60 	bcs.w	2642 <tdefl_compress_normal.constprop.0+0x226>
    2982:	f8db 1028 	ldr.w	r1, [fp, #40]	; 0x28
    2986:	f8db 303c 	ldr.w	r3, [fp, #60]	; 0x3c
    298a:	f8db 2054 	ldr.w	r2, [fp, #84]	; 0x54
    298e:	3301      	adds	r3, #1
    2990:	f8cb 303c 	str.w	r3, [fp, #60]	; 0x3c
    2994:	1c4b      	adds	r3, r1, #1
    2996:	f8cb 3028 	str.w	r3, [fp, #40]	; 0x28
    299a:	700a      	strb	r2, [r1, #0]
    299c:	f8db 102c 	ldr.w	r1, [fp, #44]	; 0x2c
    29a0:	780b      	ldrb	r3, [r1, #0]
    29a2:	085b      	lsrs	r3, r3, #1
    29a4:	700b      	strb	r3, [r1, #0]
    29a6:	f8db 3038 	ldr.w	r3, [fp, #56]	; 0x38
    29aa:	3b01      	subs	r3, #1
    29ac:	bf01      	itttt	eq
    29ae:	f8db 3028 	ldreq.w	r3, [fp, #40]	; 0x28
    29b2:	f8cb 302c 	streq.w	r3, [fp, #44]	; 0x2c
    29b6:	3301      	addeq	r3, #1
    29b8:	f8cb 3028 	streq.w	r3, [fp, #40]	; 0x28
    29bc:	bf08      	it	eq
    29be:	2308      	moveq	r3, #8
    29c0:	f8cb 3038 	str.w	r3, [fp, #56]	; 0x38
    29c4:	b2d3      	uxtb	r3, r2
    29c6:	287f      	cmp	r0, #127	; 0x7f
    29c8:	eb0b 0343 	add.w	r3, fp, r3, lsl #1
    29cc:	f503 4300 	add.w	r3, r3, #32768	; 0x8000
    29d0:	f8b3 2192 	ldrh.w	r2, [r3, #402]	; 0x192
    29d4:	f102 0201 	add.w	r2, r2, #1
    29d8:	f8a3 2192 	strh.w	r2, [r3, #402]	; 0x192
    29dc:	f240 80cb 	bls.w	2b76 <tdefl_compress_normal.constprop.0+0x75a>
    29e0:	3d01      	subs	r5, #1
    29e2:	f5b5 4f00 	cmp.w	r5, #32768	; 0x8000
    29e6:	f080 8109 	bcs.w	2bfc <tdefl_compress_normal.constprop.0+0x7e0>
    29ea:	f8db 3028 	ldr.w	r3, [fp, #40]	; 0x28
    29ee:	1ec1      	subs	r1, r0, #3
    29f0:	f8db 203c 	ldr.w	r2, [fp, #60]	; 0x3c
    29f4:	4402      	add	r2, r0
    29f6:	f8cb 203c 	str.w	r2, [fp, #60]	; 0x3c
    29fa:	7019      	strb	r1, [r3, #0]
    29fc:	0a2a      	lsrs	r2, r5, #8
    29fe:	f8db 3028 	ldr.w	r3, [fp, #40]	; 0x28
    2a02:	705d      	strb	r5, [r3, #1]
    2a04:	f8db 3028 	ldr.w	r3, [fp, #40]	; 0x28
    2a08:	709a      	strb	r2, [r3, #2]
    2a0a:	f8db 3028 	ldr.w	r3, [fp, #40]	; 0x28
    2a0e:	f8db 702c 	ldr.w	r7, [fp, #44]	; 0x2c
    2a12:	3303      	adds	r3, #3
    2a14:	f8cb 3028 	str.w	r3, [fp, #40]	; 0x28
    2a18:	783b      	ldrb	r3, [r7, #0]
    2a1a:	085b      	lsrs	r3, r3, #1
    2a1c:	f063 037f 	orn	r3, r3, #127	; 0x7f
    2a20:	703b      	strb	r3, [r7, #0]
    2a22:	4f8e      	ldr	r7, [pc, #568]	; (2c5c <tdefl_compress_normal.constprop.0+0x840>)
    2a24:	f8db 3038 	ldr.w	r3, [fp, #56]	; 0x38
    2a28:	447f      	add	r7, pc
    2a2a:	3b01      	subs	r3, #1
    2a2c:	443a      	add	r2, r7
    2a2e:	f837 1011 	ldrh.w	r1, [r7, r1, lsl #1]
    2a32:	bf01      	itttt	eq
    2a34:	f8db 3028 	ldreq.w	r3, [fp, #40]	; 0x28
    2a38:	f8cb 302c 	streq.w	r3, [fp, #44]	; 0x2c
    2a3c:	3301      	addeq	r3, #1
    2a3e:	f8cb 3028 	streq.w	r3, [fp, #40]	; 0x28
    2a42:	bf08      	it	eq
    2a44:	2308      	moveq	r3, #8
    2a46:	f8cb 3038 	str.w	r3, [fp, #56]	; 0x38
    2a4a:	f892 375c 	ldrb.w	r3, [r2, #1884]	; 0x75c
    2a4e:	eb0b 0241 	add.w	r2, fp, r1, lsl #1
    2a52:	f3c5 0108 	ubfx	r1, r5, #0, #9
    2a56:	f502 4200 	add.w	r2, r2, #32768	; 0x8000
    2a5a:	440f      	add	r7, r1
    2a5c:	f897 135c 	ldrb.w	r1, [r7, #860]	; 0x35c
    2a60:	f5b5 7f00 	cmp.w	r5, #512	; 0x200
    2a64:	bf38      	it	cc
    2a66:	460b      	movcc	r3, r1
    2a68:	eb0b 0343 	add.w	r3, fp, r3, lsl #1
    2a6c:	f503 4300 	add.w	r3, r3, #32768	; 0x8000
    2a70:	f8b3 13d2 	ldrh.w	r1, [r3, #978]	; 0x3d2
    2a74:	3101      	adds	r1, #1
    2a76:	f8a3 13d2 	strh.w	r1, [r3, #978]	; 0x3d2
    2a7a:	2100      	movs	r1, #0
    2a7c:	f8b2 3192 	ldrh.w	r3, [r2, #402]	; 0x192
    2a80:	3301      	adds	r3, #1
    2a82:	f8a2 3192 	strh.w	r3, [r2, #402]	; 0x192
    2a86:	f8cb 1050 	str.w	r1, [fp, #80]	; 0x50
    2a8a:	f8db 301c 	ldr.w	r3, [fp, #28]
    2a8e:	9301      	str	r3, [sp, #4]
    2a90:	e58a      	b.n	25a8 <tdefl_compress_normal.constprop.0+0x18c>
    2a92:	2802      	cmp	r0, #2
    2a94:	f240 80b2 	bls.w	2bfc <tdefl_compress_normal.constprop.0+0x7e0>
    2a98:	f5b5 4f00 	cmp.w	r5, #32768	; 0x8000
    2a9c:	f200 80ae 	bhi.w	2bfc <tdefl_compress_normal.constprop.0+0x7e0>
    2aa0:	f8db 2028 	ldr.w	r2, [fp, #40]	; 0x28
    2aa4:	1ec1      	subs	r1, r0, #3
    2aa6:	f8db 303c 	ldr.w	r3, [fp, #60]	; 0x3c
    2aaa:	3d01      	subs	r5, #1
    2aac:	4403      	add	r3, r0
    2aae:	f8cb 303c 	str.w	r3, [fp, #60]	; 0x3c
    2ab2:	7011      	strb	r1, [r2, #0]
    2ab4:	0a2a      	lsrs	r2, r5, #8
    2ab6:	f8db 3028 	ldr.w	r3, [fp, #40]	; 0x28
    2aba:	705d      	strb	r5, [r3, #1]
    2abc:	f8db 3028 	ldr.w	r3, [fp, #40]	; 0x28
    2ac0:	709a      	strb	r2, [r3, #2]
    2ac2:	f8db 3028 	ldr.w	r3, [fp, #40]	; 0x28
    2ac6:	f8db 702c 	ldr.w	r7, [fp, #44]	; 0x2c
    2aca:	3303      	adds	r3, #3
    2acc:	f8cb 3028 	str.w	r3, [fp, #40]	; 0x28
    2ad0:	783b      	ldrb	r3, [r7, #0]
    2ad2:	085b      	lsrs	r3, r3, #1
    2ad4:	f063 037f 	orn	r3, r3, #127	; 0x7f
    2ad8:	703b      	strb	r3, [r7, #0]
    2ada:	4f61      	ldr	r7, [pc, #388]	; (2c60 <tdefl_compress_normal.constprop.0+0x844>)
    2adc:	f8db 3038 	ldr.w	r3, [fp, #56]	; 0x38
    2ae0:	447f      	add	r7, pc
    2ae2:	3b01      	subs	r3, #1
    2ae4:	443a      	add	r2, r7
    2ae6:	f837 1011 	ldrh.w	r1, [r7, r1, lsl #1]
    2aea:	bf01      	itttt	eq
    2aec:	f8db 3028 	ldreq.w	r3, [fp, #40]	; 0x28
    2af0:	f8cb 302c 	streq.w	r3, [fp, #44]	; 0x2c
    2af4:	3301      	addeq	r3, #1
    2af6:	f8cb 3028 	streq.w	r3, [fp, #40]	; 0x28
    2afa:	bf08      	it	eq
    2afc:	2308      	moveq	r3, #8
    2afe:	f8cb 3038 	str.w	r3, [fp, #56]	; 0x38
    2b02:	f892 375c 	ldrb.w	r3, [r2, #1884]	; 0x75c
    2b06:	eb0b 0241 	add.w	r2, fp, r1, lsl #1
    2b0a:	f3c5 0108 	ubfx	r1, r5, #0, #9
    2b0e:	f502 4200 	add.w	r2, r2, #32768	; 0x8000
    2b12:	440f      	add	r7, r1
    2b14:	f897 135c 	ldrb.w	r1, [r7, #860]	; 0x35c
    2b18:	f5b5 7f00 	cmp.w	r5, #512	; 0x200
    2b1c:	bf38      	it	cc
    2b1e:	460b      	movcc	r3, r1
    2b20:	eb0b 0343 	add.w	r3, fp, r3, lsl #1
    2b24:	f503 4300 	add.w	r3, r3, #32768	; 0x8000
    2b28:	f8b3 13d2 	ldrh.w	r1, [r3, #978]	; 0x3d2
    2b2c:	3101      	adds	r1, #1
    2b2e:	f8a3 13d2 	strh.w	r1, [r3, #978]	; 0x3d2
    2b32:	f8b2 3192 	ldrh.w	r3, [r2, #402]	; 0x192
    2b36:	3301      	adds	r3, #1
    2b38:	f8a2 3192 	strh.w	r3, [r2, #402]	; 0x192
    2b3c:	f8db 301c 	ldr.w	r3, [fp, #28]
    2b40:	9301      	str	r3, [sp, #4]
    2b42:	e531      	b.n	25a8 <tdefl_compress_normal.constprop.0+0x18c>
    2b44:	2803      	cmp	r0, #3
    2b46:	f47f ad07 	bne.w	2558 <tdefl_compress_normal.constprop.0+0x13c>
    2b4a:	9a02      	ldr	r2, [sp, #8]
    2b4c:	429a      	cmp	r2, r3
    2b4e:	f43f ad74 	beq.w	263a <tdefl_compress_normal.constprop.0+0x21e>
    2b52:	9a05      	ldr	r2, [sp, #20]
    2b54:	0392      	lsls	r2, r2, #14
    2b56:	bf5c      	itt	pl
    2b58:	461d      	movpl	r5, r3
    2b5a:	2003      	movpl	r0, #3
    2b5c:	f57f ad08 	bpl.w	2570 <tdefl_compress_normal.constprop.0+0x154>
    2b60:	e56b      	b.n	263a <tdefl_compress_normal.constprop.0+0x21e>
    2b62:	9d09      	ldr	r5, [sp, #36]	; 0x24
    2b64:	4287      	cmp	r7, r0
    2b66:	f67f ae86 	bls.w	2876 <tdefl_compress_normal.constprop.0+0x45a>
    2b6a:	e9dd a40c 	ldrd	sl, r4, [sp, #48]	; 0x30
    2b6e:	4638      	mov	r0, r7
    2b70:	9e0e      	ldr	r6, [sp, #56]	; 0x38
    2b72:	9208      	str	r2, [sp, #32]
    2b74:	e558      	b.n	2628 <tdefl_compress_normal.constprop.0+0x20c>
    2b76:	9b02      	ldr	r3, [sp, #8]
    2b78:	f8db 201c 	ldr.w	r2, [fp, #28]
    2b7c:	445b      	add	r3, fp
    2b7e:	9201      	str	r2, [sp, #4]
    2b80:	f893 3090 	ldrb.w	r3, [r3, #144]	; 0x90
    2b84:	e9cb 0314 	strd	r0, r3, [fp, #80]	; 0x50
    2b88:	2001      	movs	r0, #1
    2b8a:	4613      	mov	r3, r2
    2b8c:	f8cb 504c 	str.w	r5, [fp, #76]	; 0x4c
    2b90:	e50a      	b.n	25a8 <tdefl_compress_normal.constprop.0+0x18c>
    2b92:	9d02      	ldr	r5, [sp, #8]
    2b94:	1e6a      	subs	r2, r5, #1
    2b96:	f3c2 020e 	ubfx	r2, r2, #0, #15
    2b9a:	445a      	add	r2, fp
    2b9c:	f892 0090 	ldrb.w	r0, [r2, #144]	; 0x90
    2ba0:	2900      	cmp	r1, #0
    2ba2:	f43f ad4a 	beq.w	263a <tdefl_compress_normal.constprop.0+0x21e>
    2ba6:	f105 028f 	add.w	r2, r5, #143	; 0x8f
    2baa:	445a      	add	r2, fp
    2bac:	e002      	b.n	2bb4 <tdefl_compress_normal.constprop.0+0x798>
    2bae:	3301      	adds	r3, #1
    2bb0:	428b      	cmp	r3, r1
    2bb2:	d003      	beq.n	2bbc <tdefl_compress_normal.constprop.0+0x7a0>
    2bb4:	f812 5f01 	ldrb.w	r5, [r2, #1]!
    2bb8:	4285      	cmp	r5, r0
    2bba:	d0f8      	beq.n	2bae <tdefl_compress_normal.constprop.0+0x792>
    2bbc:	2b02      	cmp	r3, #2
    2bbe:	f67f ad3c 	bls.w	263a <tdefl_compress_normal.constprop.0+0x21e>
    2bc2:	2b03      	cmp	r3, #3
    2bc4:	d015      	beq.n	2bf2 <tdefl_compress_normal.constprop.0+0x7d6>
    2bc6:	4618      	mov	r0, r3
    2bc8:	2501      	movs	r5, #1
    2bca:	e4c6      	b.n	255a <tdefl_compress_normal.constprop.0+0x13e>
    2bcc:	2300      	movs	r3, #0
    2bce:	e7bc      	b.n	2b4a <tdefl_compress_normal.constprop.0+0x72e>
    2bd0:	f5c0 4300 	rsb	r3, r0, #32768	; 0x8000
    2bd4:	4654      	mov	r4, sl
    2bd6:	429d      	cmp	r5, r3
    2bd8:	4601      	mov	r1, r0
    2bda:	bf28      	it	cs
    2bdc:	461d      	movcs	r5, r3
    2bde:	f8cb 5024 	str.w	r5, [fp, #36]	; 0x24
    2be2:	e49b      	b.n	251c <tdefl_compress_normal.constprop.0+0x100>
    2be4:	46b1      	mov	r9, r6
    2be6:	2001      	movs	r0, #1
    2be8:	e9cb a921 	strd	sl, r9, [fp, #132]	; 0x84
    2bec:	b011      	add	sp, #68	; 0x44
    2bee:	e8bd 8ff0 	ldmia.w	sp!, {r4, r5, r6, r7, r8, r9, sl, fp, pc}
    2bf2:	2301      	movs	r3, #1
    2bf4:	e7a9      	b.n	2b4a <tdefl_compress_normal.constprop.0+0x72e>
    2bf6:	46b1      	mov	r9, r6
    2bf8:	46a2      	mov	sl, r4
    2bfa:	e7f4      	b.n	2be6 <tdefl_compress_normal.constprop.0+0x7ca>
    2bfc:	4b19      	ldr	r3, [pc, #100]	; (2c64 <tdefl_compress_normal.constprop.0+0x848>)
    2bfe:	f240 626d 	movw	r2, #1645	; 0x66d
    2c02:	4919      	ldr	r1, [pc, #100]	; (2c68 <tdefl_compress_normal.constprop.0+0x84c>)
    2c04:	4819      	ldr	r0, [pc, #100]	; (2c6c <tdefl_compress_normal.constprop.0+0x850>)
    2c06:	447b      	add	r3, pc
    2c08:	4479      	add	r1, pc
    2c0a:	f603 03ec 	addw	r3, r3, #2284	; 0x8ec
    2c0e:	4478      	add	r0, pc
    2c10:	f7ff fffe 	bl	0 <__assert_fail>
    2c14:	4b16      	ldr	r3, [pc, #88]	; (2c70 <tdefl_compress_normal.constprop.0+0x854>)
    2c16:	f240 7204 	movw	r2, #1796	; 0x704
    2c1a:	4916      	ldr	r1, [pc, #88]	; (2c74 <tdefl_compress_normal.constprop.0+0x858>)
    2c1c:	4816      	ldr	r0, [pc, #88]	; (2c78 <tdefl_compress_normal.constprop.0+0x85c>)
    2c1e:	447b      	add	r3, pc
    2c20:	4479      	add	r1, pc
    2c22:	f503 6310 	add.w	r3, r3, #2304	; 0x900
    2c26:	4478      	add	r0, pc
    2c28:	f7ff fffe 	bl	0 <__assert_fail>
    2c2c:	9907      	ldr	r1, [sp, #28]
    2c2e:	e9dd a40c 	ldrd	sl, r4, [sp, #48]	; 0x30
    2c32:	4608      	mov	r0, r1
    2c34:	9e0e      	ldr	r6, [sp, #56]	; 0x38
    2c36:	9208      	str	r2, [sp, #32]
    2c38:	e4f6      	b.n	2628 <tdefl_compress_normal.constprop.0+0x20c>
    2c3a:	4b10      	ldr	r3, [pc, #64]	; (2c7c <tdefl_compress_normal.constprop.0+0x860>)
    2c3c:	f240 528a 	movw	r2, #1418	; 0x58a
    2c40:	490f      	ldr	r1, [pc, #60]	; (2c80 <tdefl_compress_normal.constprop.0+0x864>)
    2c42:	4810      	ldr	r0, [pc, #64]	; (2c84 <tdefl_compress_normal.constprop.0+0x868>)
    2c44:	447b      	add	r3, pc
    2c46:	4479      	add	r1, pc
    2c48:	f603 03d8 	addw	r3, r3, #2264	; 0x8d8
    2c4c:	4478      	add	r0, pc
    2c4e:	f7ff fffe 	bl	0 <__assert_fail>
    2c52:	bf00      	nop
    2c54:	00000824 	.word	0x00000824
    2c58:	000005b0 	.word	0x000005b0
    2c5c:	00000230 	.word	0x00000230
    2c60:	0000017c 	.word	0x0000017c
    2c64:	0000005a 	.word	0x0000005a
    2c68:	0000005c 	.word	0x0000005c
    2c6c:	0000005a 	.word	0x0000005a
    2c70:	0000004e 	.word	0x0000004e
    2c74:	00000050 	.word	0x00000050
    2c78:	0000004e 	.word	0x0000004e
    2c7c:	00000034 	.word	0x00000034
    2c80:	00000036 	.word	0x00000036
    2c84:	00000034 	.word	0x00000034

00002c88 <mz_zip_reader_init_internal>:
    2c88:	b570      	push	{r4, r5, r6, lr}
    2c8a:	4604      	mov	r4, r0
    2c8c:	b120      	cbz	r0, 2c98 <mz_zip_reader_init_internal+0x10>
    2c8e:	6c83      	ldr	r3, [r0, #72]	; 0x48
    2c90:	b11b      	cbz	r3, 2c9a <mz_zip_reader_init_internal+0x12>
    2c92:	2000      	movs	r0, #0
    2c94:	2318      	movs	r3, #24
    2c96:	61e3      	str	r3, [r4, #28]
    2c98:	bd70      	pop	{r4, r5, r6, pc}
    2c9a:	6943      	ldr	r3, [r0, #20]
    2c9c:	2b00      	cmp	r3, #0
    2c9e:	d1f8      	bne.n	2c92 <mz_zip_reader_init_internal+0xa>
    2ca0:	6a83      	ldr	r3, [r0, #40]	; 0x28
    2ca2:	460d      	mov	r5, r1
    2ca4:	b36b      	cbz	r3, 2d02 <mz_zip_reader_init_internal+0x7a>
    2ca6:	6ae2      	ldr	r2, [r4, #44]	; 0x2c
    2ca8:	b33a      	cbz	r2, 2cfa <mz_zip_reader_init_internal+0x72>
    2caa:	6b22      	ldr	r2, [r4, #48]	; 0x30
    2cac:	b30a      	cbz	r2, 2cf2 <mz_zip_reader_init_internal+0x6a>
    2cae:	2000      	movs	r0, #0
    2cb0:	2100      	movs	r1, #0
    2cb2:	2600      	movs	r6, #0
    2cb4:	e9c4 0100 	strd	r0, r1, [r4]
    2cb8:	e9c4 0102 	strd	r0, r1, [r4, #8]
    2cbc:	2258      	movs	r2, #88	; 0x58
    2cbe:	6b60      	ldr	r0, [r4, #52]	; 0x34
    2cc0:	2101      	movs	r1, #1
    2cc2:	6126      	str	r6, [r4, #16]
    2cc4:	61e6      	str	r6, [r4, #28]
    2cc6:	4798      	blx	r3
    2cc8:	64a0      	str	r0, [r4, #72]	; 0x48
    2cca:	b178      	cbz	r0, 2cec <mz_zip_reader_init_internal+0x64>
    2ccc:	4631      	mov	r1, r6
    2cce:	2258      	movs	r2, #88	; 0x58
    2cd0:	f7ff fffe 	bl	0 <memset>
    2cd4:	6ca3      	ldr	r3, [r4, #72]	; 0x48
    2cd6:	2201      	movs	r2, #1
    2cd8:	2104      	movs	r1, #4
    2cda:	4610      	mov	r0, r2
    2cdc:	631d      	str	r5, [r3, #48]	; 0x30
    2cde:	60da      	str	r2, [r3, #12]
    2ce0:	61d9      	str	r1, [r3, #28]
    2ce2:	62d9      	str	r1, [r3, #44]	; 0x2c
    2ce4:	e9c3 660d 	strd	r6, r6, [r3, #52]	; 0x34
    2ce8:	6162      	str	r2, [r4, #20]
    2cea:	bd70      	pop	{r4, r5, r6, pc}
    2cec:	2210      	movs	r2, #16
    2cee:	61e2      	str	r2, [r4, #28]
    2cf0:	bd70      	pop	{r4, r5, r6, pc}
    2cf2:	4a06      	ldr	r2, [pc, #24]	; (2d0c <mz_zip_reader_init_internal+0x84>)
    2cf4:	447a      	add	r2, pc
    2cf6:	6322      	str	r2, [r4, #48]	; 0x30
    2cf8:	e7d9      	b.n	2cae <mz_zip_reader_init_internal+0x26>
    2cfa:	4a05      	ldr	r2, [pc, #20]	; (2d10 <mz_zip_reader_init_internal+0x88>)
    2cfc:	447a      	add	r2, pc
    2cfe:	62e2      	str	r2, [r4, #44]	; 0x2c
    2d00:	e7d3      	b.n	2caa <mz_zip_reader_init_internal+0x22>
    2d02:	4b04      	ldr	r3, [pc, #16]	; (2d14 <mz_zip_reader_init_internal+0x8c>)
    2d04:	447b      	add	r3, pc
    2d06:	6283      	str	r3, [r0, #40]	; 0x28
    2d08:	e7cd      	b.n	2ca6 <mz_zip_reader_init_internal+0x1e>
    2d0a:	bf00      	nop
    2d0c:	00000014 	.word	0x00000014
    2d10:	00000010 	.word	0x00000010
    2d14:	0000000c 	.word	0x0000000c

00002d18 <mz_zip_writer_add_to_central_dir>:
    2d18:	e92d 4ff0 	stmdb	sp!, {r4, r5, r6, r7, r8, r9, sl, fp, lr}
    2d1c:	4693      	mov	fp, r2
    2d1e:	f8df 2410 	ldr.w	r2, [pc, #1040]	; 3130 <mz_zip_writer_add_to_central_dir+0x418>
    2d22:	b09f      	sub	sp, #124	; 0x7c
    2d24:	4605      	mov	r5, r0
    2d26:	447a      	add	r2, pc
    2d28:	930a      	str	r3, [sp, #40]	; 0x28
    2d2a:	f8df 3408 	ldr.w	r3, [pc, #1032]	; 3134 <mz_zip_writer_add_to_central_dir+0x41c>
    2d2e:	f8bd 00a0 	ldrh.w	r0, [sp, #160]	; 0xa0
    2d32:	9109      	str	r1, [sp, #36]	; 0x24
    2d34:	9001      	str	r0, [sp, #4]
    2d36:	6cac      	ldr	r4, [r5, #72]	; 0x48
    2d38:	58d3      	ldr	r3, [r2, r3]
    2d3a:	f8dd 90dc 	ldr.w	r9, [sp, #220]	; 0xdc
    2d3e:	681b      	ldr	r3, [r3, #0]
    2d40:	931d      	str	r3, [sp, #116]	; 0x74
    2d42:	f04f 0300 	mov.w	r3, #0
    2d46:	9b29      	ldr	r3, [sp, #164]	; 0xa4
    2d48:	930c      	str	r3, [sp, #48]	; 0x30
    2d4a:	f1b9 0f00 	cmp.w	r9, #0
    2d4e:	f8bd 30a8 	ldrh.w	r3, [sp, #168]	; 0xa8
    2d52:	9302      	str	r3, [sp, #8]
    2d54:	9b2c      	ldr	r3, [sp, #176]	; 0xb0
    2d56:	6b61      	ldr	r1, [r4, #52]	; 0x34
    2d58:	9304      	str	r3, [sp, #16]
    2d5a:	9b2d      	ldr	r3, [sp, #180]	; 0xb4
    2d5c:	fab1 f181 	clz	r1, r1
    2d60:	f8bd 20c8 	ldrh.w	r2, [sp, #200]	; 0xc8
    2d64:	9305      	str	r3, [sp, #20]
    2d66:	ea4f 1151 	mov.w	r1, r1, lsr #5
    2d6a:	9b2e      	ldr	r3, [sp, #184]	; 0xb8
    2d6c:	bf08      	it	eq
    2d6e:	2100      	moveq	r1, #0
    2d70:	6866      	ldr	r6, [r4, #4]
    2d72:	9306      	str	r3, [sp, #24]
    2d74:	9203      	str	r2, [sp, #12]
    2d76:	9b2f      	ldr	r3, [sp, #188]	; 0xbc
    2d78:	9a36      	ldr	r2, [sp, #216]	; 0xd8
    2d7a:	9307      	str	r3, [sp, #28]
    2d7c:	f8bd 80cc 	ldrh.w	r8, [sp, #204]	; 0xcc
    2d80:	f8bd 30c4 	ldrh.w	r3, [sp, #196]	; 0xc4
    2d84:	f8bd 70d0 	ldrh.w	r7, [sp, #208]	; 0xd0
    2d88:	9610      	str	r6, [sp, #64]	; 0x40
    2d8a:	9208      	str	r2, [sp, #32]
    2d8c:	9a39      	ldr	r2, [sp, #228]	; 0xe4
    2d8e:	920b      	str	r2, [sp, #44]	; 0x2c
    2d90:	2900      	cmp	r1, #0
    2d92:	f040 815a 	bne.w	304a <mz_zip_writer_add_to_central_dir+0x332>
    2d96:	9a02      	ldr	r2, [sp, #8]
    2d98:	f06f 0a01 	mvn.w	sl, #1
    2d9c:	983a      	ldr	r0, [sp, #232]	; 0xe8
    2d9e:	322e      	adds	r2, #46	; 0x2e
    2da0:	1812      	adds	r2, r2, r0
    2da2:	9801      	ldr	r0, [sp, #4]
    2da4:	f141 0c00 	adc.w	ip, r1, #0
    2da8:	1812      	adds	r2, r2, r0
    2daa:	f14c 0000 	adc.w	r0, ip, #0
    2dae:	eb12 020b 	adds.w	r2, r2, fp
    2db2:	f140 0000 	adc.w	r0, r0, #0
    2db6:	1992      	adds	r2, r2, r6
    2db8:	f140 0000 	adc.w	r0, r0, #0
    2dbc:	4592      	cmp	sl, r2
    2dbe:	eb71 0000 	sbcs.w	r0, r1, r0
    2dc2:	d210      	bcs.n	2de6 <mz_zip_writer_add_to_central_dir+0xce>
    2dc4:	4608      	mov	r0, r1
    2dc6:	230f      	movs	r3, #15
    2dc8:	61eb      	str	r3, [r5, #28]
    2dca:	4adb      	ldr	r2, [pc, #876]	; (3138 <mz_zip_writer_add_to_central_dir+0x420>)
    2dcc:	4bd9      	ldr	r3, [pc, #868]	; (3134 <mz_zip_writer_add_to_central_dir+0x41c>)
    2dce:	447a      	add	r2, pc
    2dd0:	58d3      	ldr	r3, [r2, r3]
    2dd2:	681a      	ldr	r2, [r3, #0]
    2dd4:	9b1d      	ldr	r3, [sp, #116]	; 0x74
    2dd6:	405a      	eors	r2, r3
    2dd8:	f04f 0300 	mov.w	r3, #0
    2ddc:	f040 8199 	bne.w	3112 <mz_zip_writer_add_to_central_dir+0x3fa>
    2de0:	b01f      	add	sp, #124	; 0x7c
    2de2:	e8bd 8ff0 	ldmia.w	sp!, {r4, r5, r6, r7, r8, r9, sl, fp, pc}
    2de6:	9a3a      	ldr	r2, [sp, #232]	; 0xe8
    2de8:	a812      	add	r0, sp, #72	; 0x48
    2dea:	930f      	str	r3, [sp, #60]	; 0x3c
    2dec:	9b01      	ldr	r3, [sp, #4]
    2dee:	910e      	str	r1, [sp, #56]	; 0x38
    2df0:	189a      	adds	r2, r3, r2
    2df2:	b293      	uxth	r3, r2
    2df4:	2226      	movs	r2, #38	; 0x26
    2df6:	930d      	str	r3, [sp, #52]	; 0x34
    2df8:	f7ff fffe 	bl	0 <memset>
    2dfc:	9b03      	ldr	r3, [sp, #12]
    2dfe:	f8ad 304c 	strh.w	r3, [sp, #76]	; 0x4c
    2e02:	9b0f      	ldr	r3, [sp, #60]	; 0x3c
    2e04:	990e      	ldr	r1, [sp, #56]	; 0x38
    2e06:	2b00      	cmp	r3, #0
    2e08:	f88d 304e 	strb.w	r3, [sp, #78]	; 0x4e
    2e0c:	9b30      	ldr	r3, [sp, #192]	; 0xc0
    2e0e:	9315      	str	r3, [sp, #84]	; 0x54
    2e10:	460b      	mov	r3, r1
    2e12:	9a07      	ldr	r2, [sp, #28]
    2e14:	f368 0307 	bfi	r3, r8, #0, #8
    2e18:	ea4f 2818 	mov.w	r8, r8, lsr #8
    2e1c:	f368 230f 	bfi	r3, r8, #8, #8
    2e20:	f106 082e 	add.w	r8, r6, #46	; 0x2e
    2e24:	f367 4317 	bfi	r3, r7, #16, #8
    2e28:	ea4f 2717 	mov.w	r7, r7, lsr #8
    2e2c:	f367 631f 	bfi	r3, r7, #24, #8
    2e30:	9314      	str	r3, [sp, #80]	; 0x50
    2e32:	bf14      	ite	ne
    2e34:	2314      	movne	r3, #20
    2e36:	2300      	moveq	r3, #0
    2e38:	f88d 304a 	strb.w	r3, [sp, #74]	; 0x4a
    2e3c:	f644 3350 	movw	r3, #19280	; 0x4b50
    2e40:	f2c0 2301 	movt	r3, #513	; 0x201
    2e44:	9311      	str	r3, [sp, #68]	; 0x44
    2e46:	9b06      	ldr	r3, [sp, #24]
    2e48:	459a      	cmp	sl, r3
    2e4a:	4191      	sbcs	r1, r2
    2e4c:	9904      	ldr	r1, [sp, #16]
    2e4e:	f06f 0201 	mvn.w	r2, #1
    2e52:	bf38      	it	cc
    2e54:	f04f 33ff 	movcc.w	r3, #4294967295	; 0xffffffff
    2e58:	428a      	cmp	r2, r1
    2e5a:	9a05      	ldr	r2, [sp, #20]
    2e5c:	9316      	str	r3, [sp, #88]	; 0x58
    2e5e:	f04f 0300 	mov.w	r3, #0
    2e62:	4193      	sbcs	r3, r2
    2e64:	ea4f 221b 	mov.w	r2, fp, lsr #8
    2e68:	bf2c      	ite	cs
    2e6a:	460b      	movcs	r3, r1
    2e6c:	f04f 33ff 	movcc.w	r3, #4294967295	; 0xffffffff
    2e70:	9317      	str	r3, [sp, #92]	; 0x5c
    2e72:	9b02      	ldr	r3, [sp, #8]
    2e74:	f8ad 3064 	strh.w	r3, [sp, #100]	; 0x64
    2e78:	9b38      	ldr	r3, [sp, #224]	; 0xe0
    2e7a:	f88d 306a 	strb.w	r3, [sp, #106]	; 0x6a
    2e7e:	2300      	movs	r3, #0
    2e80:	9908      	ldr	r1, [sp, #32]
    2e82:	f36b 0307 	bfi	r3, fp, #0, #8
    2e86:	f362 230f 	bfi	r3, r2, #8, #8
    2e8a:	9a0d      	ldr	r2, [sp, #52]	; 0x34
    2e8c:	f362 4317 	bfi	r3, r2, #16, #8
    2e90:	0a12      	lsrs	r2, r2, #8
    2e92:	f362 631f 	bfi	r3, r2, #24, #8
    2e96:	f06f 0201 	mvn.w	r2, #1
    2e9a:	428a      	cmp	r2, r1
    2e9c:	9318      	str	r3, [sp, #96]	; 0x60
    2e9e:	f04f 0300 	mov.w	r3, #0
    2ea2:	68e2      	ldr	r2, [r4, #12]
    2ea4:	eb73 0309 	sbcs.w	r3, r3, r9
    2ea8:	bf2c      	ite	cs
    2eaa:	460b      	movcs	r3, r1
    2eac:	f04f 33ff 	movcc.w	r3, #4294967295	; 0xffffffff
    2eb0:	f8cd 306e 	str.w	r3, [sp, #110]	; 0x6e
    2eb4:	68a3      	ldr	r3, [r4, #8]
    2eb6:	4598      	cmp	r8, r3
    2eb8:	f200 80a9 	bhi.w	300e <mz_zip_writer_add_to_central_dir+0x2f6>
    2ebc:	6820      	ldr	r0, [r4, #0]
    2ebe:	232e      	movs	r3, #46	; 0x2e
    2ec0:	fb02 0006 	mla	r0, r2, r6, r0
    2ec4:	f8c4 8004 	str.w	r8, [r4, #4]
    2ec8:	a911      	add	r1, sp, #68	; 0x44
    2eca:	fb03 f202 	mul.w	r2, r3, r2
    2ece:	f7ff fffe 	bl	0 <memcpy>
    2ed2:	e9d4 9a01 	ldrd	r9, sl, [r4, #4]
    2ed6:	eb0b 0809 	add.w	r8, fp, r9
    2eda:	45d0      	cmp	r8, sl
    2edc:	d860      	bhi.n	2fa0 <mz_zip_writer_add_to_central_dir+0x288>
    2ede:	9b09      	ldr	r3, [sp, #36]	; 0x24
    2ee0:	f8c4 8004 	str.w	r8, [r4, #4]
    2ee4:	b153      	cbz	r3, 2efc <mz_zip_writer_add_to_central_dir+0x1e4>
    2ee6:	6820      	ldr	r0, [r4, #0]
    2ee8:	4619      	mov	r1, r3
    2eea:	68e3      	ldr	r3, [r4, #12]
    2eec:	fb03 f20b 	mul.w	r2, r3, fp
    2ef0:	fb03 0009 	mla	r0, r3, r9, r0
    2ef4:	f7ff fffe 	bl	0 <memcpy>
    2ef8:	e9d4 8a01 	ldrd	r8, sl, [r4, #4]
    2efc:	9b01      	ldr	r3, [sp, #4]
    2efe:	eb03 0908 	add.w	r9, r3, r8
    2f02:	45d1      	cmp	r9, sl
    2f04:	d868      	bhi.n	2fd8 <mz_zip_writer_add_to_central_dir+0x2c0>
    2f06:	9b0a      	ldr	r3, [sp, #40]	; 0x28
    2f08:	f8c4 9004 	str.w	r9, [r4, #4]
    2f0c:	b15b      	cbz	r3, 2f26 <mz_zip_writer_add_to_central_dir+0x20e>
    2f0e:	9a01      	ldr	r2, [sp, #4]
    2f10:	4619      	mov	r1, r3
    2f12:	6820      	ldr	r0, [r4, #0]
    2f14:	68e3      	ldr	r3, [r4, #12]
    2f16:	fb03 f202 	mul.w	r2, r3, r2
    2f1a:	fb08 0003 	mla	r0, r8, r3, r0
    2f1e:	f7ff fffe 	bl	0 <memcpy>
    2f22:	e9d4 9a01 	ldrd	r9, sl, [r4, #4]
    2f26:	9b3a      	ldr	r3, [sp, #232]	; 0xe8
    2f28:	eb03 0809 	add.w	r8, r3, r9
    2f2c:	45d0      	cmp	r8, sl
    2f2e:	f200 8090 	bhi.w	3052 <mz_zip_writer_add_to_central_dir+0x33a>
    2f32:	9b0b      	ldr	r3, [sp, #44]	; 0x2c
    2f34:	f8c4 8004 	str.w	r8, [r4, #4]
    2f38:	b15b      	cbz	r3, 2f52 <mz_zip_writer_add_to_central_dir+0x23a>
    2f3a:	9a3a      	ldr	r2, [sp, #232]	; 0xe8
    2f3c:	4619      	mov	r1, r3
    2f3e:	6820      	ldr	r0, [r4, #0]
    2f40:	68e3      	ldr	r3, [r4, #12]
    2f42:	fb03 f202 	mul.w	r2, r3, r2
    2f46:	fb09 0003 	mla	r0, r9, r3, r0
    2f4a:	f7ff fffe 	bl	0 <memcpy>
    2f4e:	e9d4 8a01 	ldrd	r8, sl, [r4, #4]
    2f52:	9b02      	ldr	r3, [sp, #8]
    2f54:	eb03 0908 	add.w	r9, r3, r8
    2f58:	45d1      	cmp	r9, sl
    2f5a:	f200 8095 	bhi.w	3088 <mz_zip_writer_add_to_central_dir+0x370>
    2f5e:	9b0c      	ldr	r3, [sp, #48]	; 0x30
    2f60:	f8c4 9004 	str.w	r9, [r4, #4]
    2f64:	b14b      	cbz	r3, 2f7a <mz_zip_writer_add_to_central_dir+0x262>
    2f66:	9a02      	ldr	r2, [sp, #8]
    2f68:	4619      	mov	r1, r3
    2f6a:	6820      	ldr	r0, [r4, #0]
    2f6c:	68e3      	ldr	r3, [r4, #12]
    2f6e:	fb03 f202 	mul.w	r2, r3, r2
    2f72:	fb08 0003 	mla	r0, r8, r3, r0
    2f76:	f7ff fffe 	bl	0 <memcpy>
    2f7a:	f8d4 a014 	ldr.w	sl, [r4, #20]
    2f7e:	e9d4 3206 	ldrd	r3, r2, [r4, #24]
    2f82:	f10a 0901 	add.w	r9, sl, #1
    2f86:	4599      	cmp	r9, r3
    2f88:	f200 809e 	bhi.w	30c8 <mz_zip_writer_add_to_central_dir+0x3b0>
    2f8c:	6920      	ldr	r0, [r4, #16]
    2f8e:	fb02 000a 	mla	r0, r2, sl, r0
    2f92:	a910      	add	r1, sp, #64	; 0x40
    2f94:	f8c4 9014 	str.w	r9, [r4, #20]
    2f98:	f7ff fffe 	bl	0 <memcpy>
    2f9c:	2001      	movs	r0, #1
    2f9e:	e714      	b.n	2dca <mz_zip_writer_add_to_central_dir+0xb2>
    2fa0:	68e2      	ldr	r2, [r4, #12]
    2fa2:	2a00      	cmp	r2, #0
    2fa4:	f000 80b7 	beq.w	3116 <mz_zip_writer_add_to_central_dir+0x3fe>
    2fa8:	f1ba 0f01 	cmp.w	sl, #1
    2fac:	bf38      	it	cc
    2fae:	f04f 0a01 	movcc.w	sl, #1
    2fb2:	45d0      	cmp	r8, sl
    2fb4:	d905      	bls.n	2fc2 <mz_zip_writer_add_to_central_dir+0x2aa>
    2fb6:	4647      	mov	r7, r8
    2fb8:	ea4f 0a4a 	mov.w	sl, sl, lsl #1
    2fbc:	4557      	cmp	r7, sl
    2fbe:	d8fb      	bhi.n	2fb8 <mz_zip_writer_add_to_central_dir+0x2a0>
    2fc0:	46b8      	mov	r8, r7
    2fc2:	6821      	ldr	r1, [r4, #0]
    2fc4:	4653      	mov	r3, sl
    2fc6:	6b68      	ldr	r0, [r5, #52]	; 0x34
    2fc8:	6b2f      	ldr	r7, [r5, #48]	; 0x30
    2fca:	47b8      	blx	r7
    2fcc:	2800      	cmp	r0, #0
    2fce:	d034      	beq.n	303a <mz_zip_writer_add_to_central_dir+0x322>
    2fd0:	6020      	str	r0, [r4, #0]
    2fd2:	f8c4 a008 	str.w	sl, [r4, #8]
    2fd6:	e782      	b.n	2ede <mz_zip_writer_add_to_central_dir+0x1c6>
    2fd8:	68e2      	ldr	r2, [r4, #12]
    2fda:	2a00      	cmp	r2, #0
    2fdc:	f000 809b 	beq.w	3116 <mz_zip_writer_add_to_central_dir+0x3fe>
    2fe0:	f1ba 0f01 	cmp.w	sl, #1
    2fe4:	bf38      	it	cc
    2fe6:	f04f 0a01 	movcc.w	sl, #1
    2fea:	45d1      	cmp	r9, sl
    2fec:	d905      	bls.n	2ffa <mz_zip_writer_add_to_central_dir+0x2e2>
    2fee:	4647      	mov	r7, r8
    2ff0:	ea4f 0a4a 	mov.w	sl, sl, lsl #1
    2ff4:	45d1      	cmp	r9, sl
    2ff6:	d8fb      	bhi.n	2ff0 <mz_zip_writer_add_to_central_dir+0x2d8>
    2ff8:	46b8      	mov	r8, r7
    2ffa:	6821      	ldr	r1, [r4, #0]
    2ffc:	4653      	mov	r3, sl
    2ffe:	6b68      	ldr	r0, [r5, #52]	; 0x34
    3000:	6b2f      	ldr	r7, [r5, #48]	; 0x30
    3002:	47b8      	blx	r7
    3004:	b1c8      	cbz	r0, 303a <mz_zip_writer_add_to_central_dir+0x322>
    3006:	6020      	str	r0, [r4, #0]
    3008:	f8c4 a008 	str.w	sl, [r4, #8]
    300c:	e77b      	b.n	2f06 <mz_zip_writer_add_to_central_dir+0x1ee>
    300e:	2a00      	cmp	r2, #0
    3010:	f000 8081 	beq.w	3116 <mz_zip_writer_add_to_central_dir+0x3fe>
    3014:	2b01      	cmp	r3, #1
    3016:	bf38      	it	cc
    3018:	2301      	movcc	r3, #1
    301a:	4699      	mov	r9, r3
    301c:	4598      	cmp	r8, r3
    301e:	d905      	bls.n	302c <mz_zip_writer_add_to_central_dir+0x314>
    3020:	4647      	mov	r7, r8
    3022:	ea4f 0949 	mov.w	r9, r9, lsl #1
    3026:	454f      	cmp	r7, r9
    3028:	d8fb      	bhi.n	3022 <mz_zip_writer_add_to_central_dir+0x30a>
    302a:	46b8      	mov	r8, r7
    302c:	6821      	ldr	r1, [r4, #0]
    302e:	464b      	mov	r3, r9
    3030:	6b68      	ldr	r0, [r5, #52]	; 0x34
    3032:	6b2f      	ldr	r7, [r5, #48]	; 0x30
    3034:	47b8      	blx	r7
    3036:	2800      	cmp	r0, #0
    3038:	d141      	bne.n	30be <mz_zip_writer_add_to_central_dir+0x3a6>
    303a:	68a3      	ldr	r3, [r4, #8]
    303c:	429e      	cmp	r6, r3
    303e:	d85c      	bhi.n	30fa <mz_zip_writer_add_to_central_dir+0x3e2>
    3040:	6066      	str	r6, [r4, #4]
    3042:	2310      	movs	r3, #16
    3044:	2000      	movs	r0, #0
    3046:	61eb      	str	r3, [r5, #28]
    3048:	e6bf      	b.n	2dca <mz_zip_writer_add_to_central_dir+0xb2>
    304a:	2303      	movs	r3, #3
    304c:	2000      	movs	r0, #0
    304e:	61eb      	str	r3, [r5, #28]
    3050:	e6bb      	b.n	2dca <mz_zip_writer_add_to_central_dir+0xb2>
    3052:	68e2      	ldr	r2, [r4, #12]
    3054:	2a00      	cmp	r2, #0
    3056:	d05e      	beq.n	3116 <mz_zip_writer_add_to_central_dir+0x3fe>
    3058:	f1ba 0f01 	cmp.w	sl, #1
    305c:	bf38      	it	cc
    305e:	f04f 0a01 	movcc.w	sl, #1
    3062:	45d0      	cmp	r8, sl
    3064:	d905      	bls.n	3072 <mz_zip_writer_add_to_central_dir+0x35a>
    3066:	4647      	mov	r7, r8
    3068:	ea4f 0a4a 	mov.w	sl, sl, lsl #1
    306c:	4557      	cmp	r7, sl
    306e:	d8fb      	bhi.n	3068 <mz_zip_writer_add_to_central_dir+0x350>
    3070:	46b8      	mov	r8, r7
    3072:	6821      	ldr	r1, [r4, #0]
    3074:	4653      	mov	r3, sl
    3076:	6b68      	ldr	r0, [r5, #52]	; 0x34
    3078:	6b2f      	ldr	r7, [r5, #48]	; 0x30
    307a:	47b8      	blx	r7
    307c:	2800      	cmp	r0, #0
    307e:	d0dc      	beq.n	303a <mz_zip_writer_add_to_central_dir+0x322>
    3080:	6020      	str	r0, [r4, #0]
    3082:	f8c4 a008 	str.w	sl, [r4, #8]
    3086:	e754      	b.n	2f32 <mz_zip_writer_add_to_central_dir+0x21a>
    3088:	68e2      	ldr	r2, [r4, #12]
    308a:	2a00      	cmp	r2, #0
    308c:	d043      	beq.n	3116 <mz_zip_writer_add_to_central_dir+0x3fe>
    308e:	f1ba 0f01 	cmp.w	sl, #1
    3092:	bf38      	it	cc
    3094:	f04f 0a01 	movcc.w	sl, #1
    3098:	45d1      	cmp	r9, sl
    309a:	d905      	bls.n	30a8 <mz_zip_writer_add_to_central_dir+0x390>
    309c:	4647      	mov	r7, r8
    309e:	ea4f 0a4a 	mov.w	sl, sl, lsl #1
    30a2:	45d1      	cmp	r9, sl
    30a4:	d8fb      	bhi.n	309e <mz_zip_writer_add_to_central_dir+0x386>
    30a6:	46b8      	mov	r8, r7
    30a8:	6821      	ldr	r1, [r4, #0]
    30aa:	4653      	mov	r3, sl
    30ac:	6b68      	ldr	r0, [r5, #52]	; 0x34
    30ae:	6b2f      	ldr	r7, [r5, #48]	; 0x30
    30b0:	47b8      	blx	r7
    30b2:	2800      	cmp	r0, #0
    30b4:	d0c1      	beq.n	303a <mz_zip_writer_add_to_central_dir+0x322>
    30b6:	6020      	str	r0, [r4, #0]
    30b8:	f8c4 a008 	str.w	sl, [r4, #8]
    30bc:	e74f      	b.n	2f5e <mz_zip_writer_add_to_central_dir+0x246>
    30be:	68e2      	ldr	r2, [r4, #12]
    30c0:	f8c4 9008 	str.w	r9, [r4, #8]
    30c4:	6020      	str	r0, [r4, #0]
    30c6:	e6fa      	b.n	2ebe <mz_zip_writer_add_to_central_dir+0x1a6>
    30c8:	b32a      	cbz	r2, 3116 <mz_zip_writer_add_to_central_dir+0x3fe>
    30ca:	2b01      	cmp	r3, #1
    30cc:	bf38      	it	cc
    30ce:	2301      	movcc	r3, #1
    30d0:	4698      	mov	r8, r3
    30d2:	4599      	cmp	r9, r3
    30d4:	d905      	bls.n	30e2 <mz_zip_writer_add_to_central_dir+0x3ca>
    30d6:	464f      	mov	r7, r9
    30d8:	ea4f 0848 	mov.w	r8, r8, lsl #1
    30dc:	4547      	cmp	r7, r8
    30de:	d8fb      	bhi.n	30d8 <mz_zip_writer_add_to_central_dir+0x3c0>
    30e0:	46b9      	mov	r9, r7
    30e2:	6921      	ldr	r1, [r4, #16]
    30e4:	4643      	mov	r3, r8
    30e6:	6b68      	ldr	r0, [r5, #52]	; 0x34
    30e8:	6b2f      	ldr	r7, [r5, #48]	; 0x30
    30ea:	47b8      	blx	r7
    30ec:	2800      	cmp	r0, #0
    30ee:	d0a4      	beq.n	303a <mz_zip_writer_add_to_central_dir+0x322>
    30f0:	69e2      	ldr	r2, [r4, #28]
    30f2:	6120      	str	r0, [r4, #16]
    30f4:	f8c4 8018 	str.w	r8, [r4, #24]
    30f8:	e749      	b.n	2f8e <mz_zip_writer_add_to_central_dir+0x276>
    30fa:	68e2      	ldr	r2, [r4, #12]
    30fc:	b15a      	cbz	r2, 3116 <mz_zip_writer_add_to_central_dir+0x3fe>
    30fe:	6b2f      	ldr	r7, [r5, #48]	; 0x30
    3100:	4633      	mov	r3, r6
    3102:	6821      	ldr	r1, [r4, #0]
    3104:	6b68      	ldr	r0, [r5, #52]	; 0x34
    3106:	47b8      	blx	r7
    3108:	2800      	cmp	r0, #0
    310a:	d09a      	beq.n	3042 <mz_zip_writer_add_to_central_dir+0x32a>
    310c:	6020      	str	r0, [r4, #0]
    310e:	60a6      	str	r6, [r4, #8]
    3110:	e796      	b.n	3040 <mz_zip_writer_add_to_central_dir+0x328>
    3112:	f7ff fffe 	bl	0 <__stack_chk_fail>
    3116:	4b09      	ldr	r3, [pc, #36]	; (313c <mz_zip_writer_add_to_central_dir+0x424>)
    3118:	f640 428b 	movw	r2, #3211	; 0xc8b
    311c:	4908      	ldr	r1, [pc, #32]	; (3140 <mz_zip_writer_add_to_central_dir+0x428>)
    311e:	4809      	ldr	r0, [pc, #36]	; (3144 <mz_zip_writer_add_to_central_dir+0x42c>)
    3120:	447b      	add	r3, pc
    3122:	4479      	add	r1, pc
    3124:	f603 035c 	addw	r3, r3, #2140	; 0x85c
    3128:	4478      	add	r0, pc
    312a:	f7ff fffe 	bl	0 <__assert_fail>
    312e:	bf00      	nop
    3130:	00000406 	.word	0x00000406
    3134:	00000000 	.word	0x00000000
    3138:	00000366 	.word	0x00000366
    313c:	00000018 	.word	0x00000018
    3140:	0000001a 	.word	0x0000001a
    3144:	00000018 	.word	0x00000018

00003148 <mz_zip_reader_read_central_dir>:
    3148:	f8df 2918 	ldr.w	r2, [pc, #2328]	; 3a64 <mz_zip_reader_read_central_dir+0x91c>
    314c:	e92d 4ff0 	stmdb	sp!, {r4, r5, r6, r7, r8, r9, sl, fp, lr}
    3150:	4607      	mov	r7, r0
    3152:	f8df 3914 	ldr.w	r3, [pc, #2324]	; 3a68 <mz_zip_reader_read_central_dir+0x920>
    3156:	447a      	add	r2, pc
    3158:	f5ad 5d84 	sub.w	sp, sp, #4224	; 0x1080
    315c:	b083      	sub	sp, #12
    315e:	f50d 5084 	add.w	r0, sp, #4224	; 0x1080
    3162:	58d3      	ldr	r3, [r2, r3]
    3164:	3004      	adds	r0, #4
    3166:	681b      	ldr	r3, [r3, #0]
    3168:	6003      	str	r3, [r0, #0]
    316a:	f04f 0300 	mov.w	r3, #0
    316e:	9105      	str	r1, [sp, #20]
    3170:	e9d7 1300 	ldrd	r1, r3, [r7]
    3174:	2916      	cmp	r1, #22
    3176:	f173 0200 	sbcs.w	r2, r3, #0
    317a:	d217      	bcs.n	31ac <mz_zip_reader_read_central_dir+0x64>
    317c:	2000      	movs	r0, #0
    317e:	2308      	movs	r3, #8
    3180:	61fb      	str	r3, [r7, #28]
    3182:	f8df 28e8 	ldr.w	r2, [pc, #2280]	; 3a6c <mz_zip_reader_read_central_dir+0x924>
    3186:	f50d 5184 	add.w	r1, sp, #4224	; 0x1080
    318a:	f8df 38dc 	ldr.w	r3, [pc, #2268]	; 3a68 <mz_zip_reader_read_central_dir+0x920>
    318e:	3104      	adds	r1, #4
    3190:	447a      	add	r2, pc
    3192:	58d3      	ldr	r3, [r2, r3]
    3194:	681a      	ldr	r2, [r3, #0]
    3196:	680b      	ldr	r3, [r1, #0]
    3198:	405a      	eors	r2, r3
    319a:	f04f 0300 	mov.w	r3, #0
    319e:	f040 842e 	bne.w	39fe <mz_zip_reader_read_central_dir+0x8b6>
    31a2:	f50d 5d84 	add.w	sp, sp, #4224	; 0x1080
    31a6:	b003      	add	sp, #12
    31a8:	e8bd 8ff0 	ldmia.w	sp!, {r4, r5, r6, r7, r8, r9, sl, fp, pc}
    31ac:	f5b1 5f80 	cmp.w	r1, #4096	; 0x1000
    31b0:	4688      	mov	r8, r1
    31b2:	f173 0200 	sbcs.w	r2, r3, #0
    31b6:	469b      	mov	fp, r3
    31b8:	bfbc      	itt	lt
    31ba:	f44f 5880 	movlt.w	r8, #4096	; 0x1000
    31be:	f04f 0b00 	movlt.w	fp, #0
    31c2:	f10d 0a84 	add.w	sl, sp, #132	; 0x84
    31c6:	f5b8 5880 	subs.w	r8, r8, #4096	; 0x1000
    31ca:	f644 3950 	movw	r9, #19280	; 0x4b50
    31ce:	f2c0 6905 	movt	r9, #1541	; 0x605
    31d2:	f14b 3bff 	adc.w	fp, fp, #4294967295	; 0xffffffff
    31d6:	4655      	mov	r5, sl
    31d8:	2214      	movs	r2, #20
    31da:	f2c0 0201 	movt	r2, #1
    31de:	9203      	str	r2, [sp, #12]
    31e0:	f24f 0203 	movw	r2, #61443	; 0xf003
    31e4:	f6cf 72ff 	movt	r2, #65535	; 0xffff
    31e8:	9204      	str	r2, [sp, #16]
    31ea:	aa22      	add	r2, sp, #136	; 0x88
    31ec:	9206      	str	r2, [sp, #24]
    31ee:	ebb1 0408 	subs.w	r4, r1, r8
    31f2:	f241 0201 	movw	r2, #4097	; 0x1001
    31f6:	eb63 030b 	sbc.w	r3, r3, fp
    31fa:	4294      	cmp	r4, r2
    31fc:	6c78      	ldr	r0, [r7, #68]	; 0x44
    31fe:	f173 0300 	sbcs.w	r3, r3, #0
    3202:	6bb9      	ldr	r1, [r7, #56]	; 0x38
    3204:	f080 80a0 	bcs.w	3348 <mz_zip_reader_read_central_dir+0x200>
    3208:	4642      	mov	r2, r8
    320a:	465b      	mov	r3, fp
    320c:	e9cd 5400 	strd	r5, r4, [sp]
    3210:	4788      	blx	r1
    3212:	4284      	cmp	r4, r0
    3214:	f040 80a5 	bne.w	3362 <mz_zip_reader_read_central_dir+0x21a>
    3218:	1f21      	subs	r1, r4, #4
    321a:	d477      	bmi.n	330c <mz_zip_reader_read_central_dir+0x1c4>
    321c:	186a      	adds	r2, r5, r1
    321e:	eb11 0408 	adds.w	r4, r1, r8
    3222:	4696      	mov	lr, r2
    3224:	eb4b 7ce1 	adc.w	ip, fp, r1, asr #31
    3228:	78d6      	ldrb	r6, [r2, #3]
    322a:	7893      	ldrb	r3, [r2, #2]
    322c:	7850      	ldrb	r0, [r2, #1]
    322e:	46b2      	mov	sl, r6
    3230:	e008      	b.n	3244 <mz_zip_reader_read_central_dir+0xfc>
    3232:	3c01      	subs	r4, #1
    3234:	f101 31ff 	add.w	r1, r1, #4294967295	; 0xffffffff
    3238:	469a      	mov	sl, r3
    323a:	f16c 0c00 	sbc.w	ip, ip, #0
    323e:	4613      	mov	r3, r2
    3240:	1c4e      	adds	r6, r1, #1
    3242:	d063      	beq.n	330c <mz_zip_reader_read_central_dir+0x1c4>
    3244:	4602      	mov	r2, r0
    3246:	f81e 0901 	ldrb.w	r0, [lr], #-1
    324a:	ea40 2602 	orr.w	r6, r0, r2, lsl #8
    324e:	ea46 660a 	orr.w	r6, r6, sl, lsl #24
    3252:	ea46 4603 	orr.w	r6, r6, r3, lsl #16
    3256:	454e      	cmp	r6, r9
    3258:	d1eb      	bne.n	3232 <mz_zip_reader_read_central_dir+0xea>
    325a:	683e      	ldr	r6, [r7, #0]
    325c:	ebb6 0a04 	subs.w	sl, r6, r4
    3260:	687e      	ldr	r6, [r7, #4]
    3262:	eb66 060c 	sbc.w	r6, r6, ip
    3266:	f1ba 0f16 	cmp.w	sl, #22
    326a:	f176 0600 	sbcs.w	r6, r6, #0
    326e:	d3e0      	bcc.n	3232 <mz_zip_reader_read_central_dir+0xea>
    3270:	46aa      	mov	sl, r5
    3272:	f8cd a000 	str.w	sl, [sp]
    3276:	6bb9      	ldr	r1, [r7, #56]	; 0x38
    3278:	2316      	movs	r3, #22
    327a:	6c78      	ldr	r0, [r7, #68]	; 0x44
    327c:	4622      	mov	r2, r4
    327e:	9301      	str	r3, [sp, #4]
    3280:	4663      	mov	r3, ip
    3282:	4665      	mov	r5, ip
    3284:	4788      	blx	r1
    3286:	2816      	cmp	r0, #22
    3288:	d16f      	bne.n	336a <mz_zip_reader_read_central_dir+0x222>
    328a:	9b06      	ldr	r3, [sp, #24]
    328c:	f853 3c04 	ldr.w	r3, [r3, #-4]
    3290:	454b      	cmp	r3, r9
    3292:	f47f af73 	bne.w	317c <mz_zip_reader_read_central_dir+0x34>
    3296:	2c4c      	cmp	r4, #76	; 0x4c
    3298:	f175 0300 	sbcs.w	r3, r5, #0
    329c:	db69      	blt.n	3372 <mz_zip_reader_read_central_dir+0x22a>
    329e:	f1b4 0214 	subs.w	r2, r4, #20
    32a2:	6bb9      	ldr	r1, [r7, #56]	; 0x38
    32a4:	6c78      	ldr	r0, [r7, #68]	; 0x44
    32a6:	f165 0300 	sbc.w	r3, r5, #0
    32aa:	2414      	movs	r4, #20
    32ac:	9401      	str	r4, [sp, #4]
    32ae:	ac0e      	add	r4, sp, #56	; 0x38
    32b0:	9400      	str	r4, [sp, #0]
    32b2:	4788      	blx	r1
    32b4:	2814      	cmp	r0, #20
    32b6:	d15c      	bne.n	3372 <mz_zip_reader_read_central_dir+0x22a>
    32b8:	9a06      	ldr	r2, [sp, #24]
    32ba:	f644 3350 	movw	r3, #19280	; 0x4b50
    32be:	f2c0 7306 	movt	r3, #1798	; 0x706
    32c2:	f852 2c50 	ldr.w	r2, [r2, #-80]
    32c6:	429a      	cmp	r2, r3
    32c8:	d153      	bne.n	3372 <mz_zip_reader_read_central_dir+0x22a>
    32ca:	e9d4 2302 	ldrd	r2, r3, [r4, #8]
    32ce:	6839      	ldr	r1, [r7, #0]
    32d0:	6878      	ldr	r0, [r7, #4]
    32d2:	3938      	subs	r1, #56	; 0x38
    32d4:	f140 30ff 	adc.w	r0, r0, #4294967295	; 0xffffffff
    32d8:	4291      	cmp	r1, r2
    32da:	4198      	sbcs	r0, r3
    32dc:	f4ff af4e 	bcc.w	317c <mz_zip_reader_read_central_dir+0x34>
    32e0:	6bb9      	ldr	r1, [r7, #56]	; 0x38
    32e2:	2438      	movs	r4, #56	; 0x38
    32e4:	6c78      	ldr	r0, [r7, #68]	; 0x44
    32e6:	9401      	str	r4, [sp, #4]
    32e8:	ac13      	add	r4, sp, #76	; 0x4c
    32ea:	9400      	str	r4, [sp, #0]
    32ec:	4788      	blx	r1
    32ee:	2838      	cmp	r0, #56	; 0x38
    32f0:	d13f      	bne.n	3372 <mz_zip_reader_read_central_dir+0x22a>
    32f2:	9a06      	ldr	r2, [sp, #24]
    32f4:	f644 3350 	movw	r3, #19280	; 0x4b50
    32f8:	f2c0 6306 	movt	r3, #1542	; 0x606
    32fc:	6cbc      	ldr	r4, [r7, #72]	; 0x48
    32fe:	f852 2c3c 	ldr.w	r2, [r2, #-60]
    3302:	429a      	cmp	r2, r3
    3304:	bf04      	itt	eq
    3306:	2301      	moveq	r3, #1
    3308:	6363      	streq	r3, [r4, #52]	; 0x34
    330a:	e033      	b.n	3374 <mz_zip_reader_read_central_dir+0x22c>
    330c:	ea58 030b 	orrs.w	r3, r8, fp
    3310:	d027      	beq.n	3362 <mz_zip_reader_read_central_dir+0x21a>
    3312:	e9d7 1300 	ldrd	r1, r3, [r7]
    3316:	2000      	movs	r0, #0
    3318:	9e03      	ldr	r6, [sp, #12]
    331a:	ebb1 0408 	subs.w	r4, r1, r8
    331e:	eb63 020b 	sbc.w	r2, r3, fp
    3322:	42a6      	cmp	r6, r4
    3324:	eb70 0202 	sbcs.w	r2, r0, r2
    3328:	d31b      	bcc.n	3362 <mz_zip_reader_read_central_dir+0x21a>
    332a:	f640 72fd 	movw	r2, #4093	; 0xffd
    332e:	4590      	cmp	r8, r2
    3330:	f17b 0400 	sbcs.w	r4, fp, #0
    3334:	bfb8      	it	lt
    3336:	4690      	movlt	r8, r2
    3338:	9a04      	ldr	r2, [sp, #16]
    333a:	bfb8      	it	lt
    333c:	4683      	movlt	fp, r0
    333e:	eb18 0802 	adds.w	r8, r8, r2
    3342:	f16b 0b00 	sbc.w	fp, fp, #0
    3346:	e752      	b.n	31ee <mz_zip_reader_read_central_dir+0xa6>
    3348:	f44f 5380 	mov.w	r3, #4096	; 0x1000
    334c:	4642      	mov	r2, r8
    334e:	9301      	str	r3, [sp, #4]
    3350:	465b      	mov	r3, fp
    3352:	9500      	str	r5, [sp, #0]
    3354:	4788      	blx	r1
    3356:	f5b0 5f80 	cmp.w	r0, #4096	; 0x1000
    335a:	d102      	bne.n	3362 <mz_zip_reader_read_central_dir+0x21a>
    335c:	f640 71fc 	movw	r1, #4092	; 0xffc
    3360:	e75c      	b.n	321c <mz_zip_reader_read_central_dir+0xd4>
    3362:	2307      	movs	r3, #7
    3364:	2000      	movs	r0, #0
    3366:	61fb      	str	r3, [r7, #28]
    3368:	e70b      	b.n	3182 <mz_zip_reader_read_central_dir+0x3a>
    336a:	2314      	movs	r3, #20
    336c:	2000      	movs	r0, #0
    336e:	61fb      	str	r3, [r7, #28]
    3370:	e707      	b.n	3182 <mz_zip_reader_read_central_dir+0x3a>
    3372:	6cbc      	ldr	r4, [r7, #72]	; 0x48
    3374:	9e06      	ldr	r6, [sp, #24]
    3376:	6b63      	ldr	r3, [r4, #52]	; 0x34
    3378:	9403      	str	r4, [sp, #12]
    337a:	88f5      	ldrh	r5, [r6, #6]
    337c:	88b2      	ldrh	r2, [r6, #4]
    337e:	8830      	ldrh	r0, [r6, #0]
    3380:	8871      	ldrh	r1, [r6, #2]
    3382:	613d      	str	r5, [r7, #16]
    3384:	e9d6 9602 	ldrd	r9, r6, [r6, #8]
    3388:	2b00      	cmp	r3, #0
    338a:	f040 810f 	bne.w	35ac <mz_zip_reader_read_central_dir+0x464>
    338e:	4698      	mov	r8, r3
    3390:	9004      	str	r0, [sp, #16]
    3392:	42aa      	cmp	r2, r5
    3394:	f040 8135 	bne.w	3602 <mz_zip_reader_read_central_dir+0x4ba>
    3398:	9a04      	ldr	r2, [sp, #16]
    339a:	ea52 0301 	orrs.w	r3, r2, r1
    339e:	d004      	beq.n	33aa <mz_zip_reader_read_central_dir+0x262>
    33a0:	2901      	cmp	r1, #1
    33a2:	bf08      	it	eq
    33a4:	2a01      	cmpeq	r2, #1
    33a6:	f040 812c 	bne.w	3602 <mz_zip_reader_read_central_dir+0x4ba>
    33aa:	232e      	movs	r3, #46	; 0x2e
    33ac:	fb05 f303 	mul.w	r3, r5, r3
    33b0:	454b      	cmp	r3, r9
    33b2:	f200 80f7 	bhi.w	35a4 <mz_zip_reader_read_central_dir+0x45c>
    33b6:	e9d7 2300 	ldrd	r2, r3, [r7]
    33ba:	eb19 0006 	adds.w	r0, r9, r6
    33be:	f148 0100 	adc.w	r1, r8, #0
    33c2:	4282      	cmp	r2, r0
    33c4:	eb73 0101 	sbcs.w	r1, r3, r1
    33c8:	f0c0 80ec 	bcc.w	35a4 <mz_zip_reader_read_central_dir+0x45c>
    33cc:	9b05      	ldr	r3, [sp, #20]
    33ce:	e9c7 6802 	strd	r6, r8, [r7, #8]
    33d2:	f403 6b00 	and.w	fp, r3, #2048	; 0x800
    33d6:	2d00      	cmp	r5, #0
    33d8:	f000 811e 	beq.w	3618 <mz_zip_reader_read_central_dir+0x4d0>
    33dc:	68a3      	ldr	r3, [r4, #8]
    33de:	4599      	cmp	r9, r3
    33e0:	bf98      	it	ls
    33e2:	46a2      	movls	sl, r4
    33e4:	f200 82fc 	bhi.w	39e0 <mz_zip_reader_read_central_dir+0x898>
    33e8:	f8da 3018 	ldr.w	r3, [sl, #24]
    33ec:	f8c4 9004 	str.w	r9, [r4, #4]
    33f0:	42ab      	cmp	r3, r5
    33f2:	bf28      	it	cs
    33f4:	4654      	movcs	r4, sl
    33f6:	f0c0 831f 	bcc.w	3a38 <mz_zip_reader_read_central_dir+0x8f0>
    33fa:	f8ca 5014 	str.w	r5, [sl, #20]
    33fe:	f1bb 0f00 	cmp.w	fp, #0
    3402:	d108      	bne.n	3416 <mz_zip_reader_read_central_dir+0x2ce>
    3404:	6aa3      	ldr	r3, [r4, #40]	; 0x28
    3406:	693d      	ldr	r5, [r7, #16]
    3408:	429d      	cmp	r5, r3
    340a:	bf98      	it	ls
    340c:	4623      	movls	r3, r4
    340e:	f200 82f8 	bhi.w	3a02 <mz_zip_reader_read_central_dir+0x8ba>
    3412:	6265      	str	r5, [r4, #36]	; 0x24
    3414:	461c      	mov	r4, r3
    3416:	f8cd 9004 	str.w	r9, [sp, #4]
    341a:	4632      	mov	r2, r6
    341c:	4643      	mov	r3, r8
    341e:	6821      	ldr	r1, [r4, #0]
    3420:	9100      	str	r1, [sp, #0]
    3422:	6bb9      	ldr	r1, [r7, #56]	; 0x38
    3424:	6c78      	ldr	r0, [r7, #68]	; 0x44
    3426:	4788      	blx	r1
    3428:	4548      	cmp	r0, r9
    342a:	d19e      	bne.n	336a <mz_zip_reader_read_central_dir+0x222>
    342c:	6cbb      	ldr	r3, [r7, #72]	; 0x48
    342e:	9303      	str	r3, [sp, #12]
    3430:	461a      	mov	r2, r3
    3432:	693b      	ldr	r3, [r7, #16]
    3434:	6812      	ldr	r2, [r2, #0]
    3436:	9205      	str	r2, [sp, #20]
    3438:	2b00      	cmp	r3, #0
    343a:	f000 80ed 	beq.w	3618 <mz_zip_reader_read_central_dir+0x4d0>
    343e:	f1b9 0f2d 	cmp.w	r9, #45	; 0x2d
    3442:	f240 80af 	bls.w	35a4 <mz_zip_reader_read_central_dir+0x45c>
    3446:	2100      	movs	r1, #0
    3448:	f644 3e50 	movw	lr, #19280	; 0x4b50
    344c:	f2c0 2e01 	movt	lr, #513	; 0x201
    3450:	f8cd b018 	str.w	fp, [sp, #24]
    3454:	4613      	mov	r3, r2
    3456:	f8dd b00c 	ldr.w	fp, [sp, #12]
    345a:	468a      	mov	sl, r1
    345c:	46bc      	mov	ip, r7
    345e:	e05b      	b.n	3518 <mz_zip_reader_read_central_dir+0x3d0>
    3460:	f1b2 3fff 	cmp.w	r2, #4294967295	; 0xffffffff
    3464:	bf18      	it	ne
    3466:	f1b4 3fff 	cmpne.w	r4, #4294967295	; 0xffffffff
    346a:	d019      	beq.n	34a0 <mz_zip_reader_read_central_dir+0x358>
    346c:	f1ba 0f00 	cmp.w	sl, #0
    3470:	bf08      	it	eq
    3472:	42a2      	cmpeq	r2, r4
    3474:	f8d3 500a 	ldr.w	r5, [r3, #10]
    3478:	bf14      	ite	ne
    347a:	2001      	movne	r0, #1
    347c:	2000      	moveq	r0, #0
    347e:	2d00      	cmp	r5, #0
    3480:	bf14      	ite	ne
    3482:	2000      	movne	r0, #0
    3484:	f000 0001 	andeq.w	r0, r0, #1
    3488:	2800      	cmp	r0, #0
    348a:	f040 808a 	bne.w	35a2 <mz_zip_reader_read_central_dir+0x45a>
    348e:	3c00      	subs	r4, #0
    3490:	bf18      	it	ne
    3492:	2401      	movne	r4, #1
    3494:	2a00      	cmp	r2, #0
    3496:	bf18      	it	ne
    3498:	2400      	movne	r4, #0
    349a:	2c00      	cmp	r4, #0
    349c:	f040 8081 	bne.w	35a2 <mz_zip_reader_read_central_dir+0x45a>
    34a0:	8c58      	ldrh	r0, [r3, #34]	; 0x22
    34a2:	f64f 74ff 	movw	r4, #65535	; 0xffff
    34a6:	42a0      	cmp	r0, r4
    34a8:	f000 80aa 	beq.w	3600 <mz_zip_reader_read_central_dir+0x4b8>
    34ac:	9c04      	ldr	r4, [sp, #16]
    34ae:	4284      	cmp	r4, r0
    34b0:	bf18      	it	ne
    34b2:	2801      	cmpne	r0, #1
    34b4:	bf14      	ite	ne
    34b6:	2001      	movne	r0, #1
    34b8:	2000      	moveq	r0, #0
    34ba:	f040 80a1 	bne.w	3600 <mz_zip_reader_read_central_dir+0x4b8>
    34be:	4582      	cmp	sl, r0
    34c0:	bf08      	it	eq
    34c2:	f1b2 3fff 	cmpeq.w	r2, #4294967295	; 0xffffffff
    34c6:	d010      	beq.n	34ea <mz_zip_reader_read_central_dir+0x3a2>
    34c8:	f8d3 002a 	ldr.w	r0, [r3, #42]	; 0x2a
    34cc:	1882      	adds	r2, r0, r2
    34ce:	f8dc 0000 	ldr.w	r0, [ip]
    34d2:	f14a 0500 	adc.w	r5, sl, #0
    34d6:	f112 041e 	adds.w	r4, r2, #30
    34da:	f8dc 2004 	ldr.w	r2, [ip, #4]
    34de:	f145 0500 	adc.w	r5, r5, #0
    34e2:	42a0      	cmp	r0, r4
    34e4:	eb72 0505 	sbcs.w	r5, r2, r5
    34e8:	d35b      	bcc.n	35a2 <mz_zip_reader_read_central_dir+0x45a>
    34ea:	891a      	ldrh	r2, [r3, #8]
    34ec:	0492      	lsls	r2, r2, #18
    34ee:	f100 8098 	bmi.w	3622 <mz_zip_reader_read_central_dir+0x4da>
    34f2:	8bd8      	ldrh	r0, [r3, #30]
    34f4:	8b9a      	ldrh	r2, [r3, #28]
    34f6:	4402      	add	r2, r0
    34f8:	8c18      	ldrh	r0, [r3, #32]
    34fa:	322e      	adds	r2, #46	; 0x2e
    34fc:	4402      	add	r2, r0
    34fe:	454a      	cmp	r2, r9
    3500:	d84f      	bhi.n	35a2 <mz_zip_reader_read_central_dir+0x45a>
    3502:	eba9 0902 	sub.w	r9, r9, r2
    3506:	4413      	add	r3, r2
    3508:	f8dc 2010 	ldr.w	r2, [ip, #16]
    350c:	3101      	adds	r1, #1
    350e:	428a      	cmp	r2, r1
    3510:	d97f      	bls.n	3612 <mz_zip_reader_read_central_dir+0x4ca>
    3512:	f1b9 0f2d 	cmp.w	r9, #45	; 0x2d
    3516:	d944      	bls.n	35a2 <mz_zip_reader_read_central_dir+0x45a>
    3518:	681a      	ldr	r2, [r3, #0]
    351a:	4572      	cmp	r2, lr
    351c:	d141      	bne.n	35a2 <mz_zip_reader_read_central_dir+0x45a>
    351e:	f8db 2010 	ldr.w	r2, [fp, #16]
    3522:	9805      	ldr	r0, [sp, #20]
    3524:	1a18      	subs	r0, r3, r0
    3526:	f842 0021 	str.w	r0, [r2, r1, lsl #2]
    352a:	9a06      	ldr	r2, [sp, #24]
    352c:	b91a      	cbnz	r2, 3536 <mz_zip_reader_read_central_dir+0x3ee>
    352e:	f8db 2020 	ldr.w	r2, [fp, #32]
    3532:	f842 1021 	str.w	r1, [r2, r1, lsl #2]
    3536:	f8db 2038 	ldr.w	r2, [fp, #56]	; 0x38
    353a:	8bdd      	ldrh	r5, [r3, #30]
    353c:	fab2 f082 	clz	r0, r2
    3540:	699c      	ldr	r4, [r3, #24]
    3542:	2d00      	cmp	r5, #0
    3544:	695a      	ldr	r2, [r3, #20]
    3546:	ea4f 1050 	mov.w	r0, r0, lsr #5
    354a:	f8d3 702a 	ldr.w	r7, [r3, #42]	; 0x2a
    354e:	8b9e      	ldrh	r6, [r3, #28]
    3550:	bf08      	it	eq
    3552:	2000      	moveq	r0, #0
    3554:	2800      	cmp	r0, #0
    3556:	d083      	beq.n	3460 <mz_zip_reader_read_central_dir+0x318>
    3558:	4294      	cmp	r4, r2
    355a:	4620      	mov	r0, r4
    355c:	bf38      	it	cc
    355e:	4610      	movcc	r0, r2
    3560:	42b8      	cmp	r0, r7
    3562:	bf38      	it	cc
    3564:	4638      	movcc	r0, r7
    3566:	45d2      	cmp	sl, sl
    3568:	bf08      	it	eq
    356a:	f1b0 3fff 	cmpeq.w	r0, #4294967295	; 0xffffffff
    356e:	f47f af77 	bne.w	3460 <mz_zip_reader_read_central_dir+0x318>
    3572:	f106 002e 	add.w	r0, r6, #46	; 0x2e
    3576:	4418      	add	r0, r3
    3578:	e011      	b.n	359e <mz_zip_reader_read_central_dir+0x456>
    357a:	8846      	ldrh	r6, [r0, #2]
    357c:	8807      	ldrh	r7, [r0, #0]
    357e:	f106 0804 	add.w	r8, r6, #4
    3582:	45a8      	cmp	r8, r5
    3584:	d80d      	bhi.n	35a2 <mz_zip_reader_read_central_dir+0x45a>
    3586:	2f01      	cmp	r7, #1
    3588:	f000 8268 	beq.w	3a5c <mz_zip_reader_read_central_dir+0x914>
    358c:	f1c6 26ff 	rsb	r6, r6, #4278255360	; 0xff00ff00
    3590:	4440      	add	r0, r8
    3592:	f506 067f 	add.w	r6, r6, #16711680	; 0xff0000
    3596:	36fc      	adds	r6, #252	; 0xfc
    3598:	19ad      	adds	r5, r5, r6
    359a:	f43f af61 	beq.w	3460 <mz_zip_reader_read_central_dir+0x318>
    359e:	2d03      	cmp	r5, #3
    35a0:	d8eb      	bhi.n	357a <mz_zip_reader_read_central_dir+0x432>
    35a2:	4667      	mov	r7, ip
    35a4:	2309      	movs	r3, #9
    35a6:	2000      	movs	r0, #0
    35a8:	61fb      	str	r3, [r7, #28]
    35aa:	e5ea      	b.n	3182 <mz_zip_reader_read_central_dir+0x3a>
    35ac:	9915      	ldr	r1, [sp, #84]	; 0x54
    35ae:	ab12      	add	r3, sp, #72	; 0x48
    35b0:	9104      	str	r1, [sp, #16]
    35b2:	9a06      	ldr	r2, [sp, #24]
    35b4:	6899      	ldr	r1, [r3, #8]
    35b6:	e9d3 5809 	ldrd	r5, r8, [r3, #36]	; 0x24
    35ba:	292c      	cmp	r1, #44	; 0x2c
    35bc:	9904      	ldr	r1, [sp, #16]
    35be:	f852 0c40 	ldr.w	r0, [r2, #-64]
    35c2:	e9d3 6c0b 	ldrd	r6, ip, [r3, #44]	; 0x2c
    35c6:	f171 0100 	sbcs.w	r1, r1, #0
    35ca:	e9d3 2e07 	ldrd	r2, lr, [r3, #28]
    35ce:	d3e9      	bcc.n	35a4 <mz_zip_reader_read_central_dir+0x45c>
    35d0:	2801      	cmp	r0, #1
    35d2:	d116      	bne.n	3602 <mz_zip_reader_read_central_dir+0x4ba>
    35d4:	2000      	movs	r0, #0
    35d6:	f1b8 0f00 	cmp.w	r8, #0
    35da:	d116      	bne.n	360a <mz_zip_reader_read_central_dir+0x4c2>
    35dc:	613d      	str	r5, [r7, #16]
    35de:	f1be 0f00 	cmp.w	lr, #0
    35e2:	d112      	bne.n	360a <mz_zip_reader_read_central_dir+0x4c2>
    35e4:	f1bc 0f00 	cmp.w	ip, #0
    35e8:	f040 81f6 	bne.w	39d8 <mz_zip_reader_read_central_dir+0x890>
    35ec:	9906      	ldr	r1, [sp, #24]
    35ee:	46b1      	mov	r9, r6
    35f0:	e9d3 680d 	ldrd	r6, r8, [r3, #52]	; 0x34
    35f4:	f851 0c2c 	ldr.w	r0, [r1, #-44]
    35f8:	9004      	str	r0, [sp, #16]
    35fa:	f851 1c28 	ldr.w	r1, [r1, #-40]
    35fe:	e6c8      	b.n	3392 <mz_zip_reader_read_central_dir+0x24a>
    3600:	4667      	mov	r7, ip
    3602:	230a      	movs	r3, #10
    3604:	2000      	movs	r0, #0
    3606:	61fb      	str	r3, [r7, #28]
    3608:	e5bb      	b.n	3182 <mz_zip_reader_read_central_dir+0x3a>
    360a:	2302      	movs	r3, #2
    360c:	2000      	movs	r0, #0
    360e:	61fb      	str	r3, [r7, #28]
    3610:	e5b7      	b.n	3182 <mz_zip_reader_read_central_dir+0x3a>
    3612:	f8dd b018 	ldr.w	fp, [sp, #24]
    3616:	4667      	mov	r7, ip
    3618:	f1bb 0f00 	cmp.w	fp, #0
    361c:	d006      	beq.n	362c <mz_zip_reader_read_central_dir+0x4e4>
    361e:	2001      	movs	r0, #1
    3620:	e5af      	b.n	3182 <mz_zip_reader_read_central_dir+0x3a>
    3622:	2305      	movs	r3, #5
    3624:	2000      	movs	r0, #0
    3626:	f8cc 301c 	str.w	r3, [ip, #28]
    362a:	e5aa      	b.n	3182 <mz_zip_reader_read_central_dir+0x3a>
    362c:	693b      	ldr	r3, [r7, #16]
    362e:	9304      	str	r3, [sp, #16]
    3630:	2b01      	cmp	r3, #1
    3632:	d9f4      	bls.n	361e <mz_zip_reader_read_central_dir+0x4d6>
    3634:	9a03      	ldr	r2, [sp, #12]
    3636:	3b02      	subs	r3, #2
    3638:	2102      	movs	r1, #2
    363a:	465c      	mov	r4, fp
    363c:	085b      	lsrs	r3, r3, #1
    363e:	4658      	mov	r0, fp
    3640:	f8d2 8020 	ldr.w	r8, [r2, #32]
    3644:	2201      	movs	r2, #1
    3646:	fbe3 2401 	umlal	r2, r4, r3, r1
    364a:	9904      	ldr	r1, [sp, #16]
    364c:	18df      	adds	r7, r3, r3
    364e:	eb40 0c00 	adc.w	ip, r0, r0
    3652:	428a      	cmp	r2, r1
    3654:	f174 0100 	sbcs.w	r1, r4, #0
    3658:	f080 8086 	bcs.w	3768 <mz_zip_reader_read_central_dir+0x620>
    365c:	9903      	ldr	r1, [sp, #12]
    365e:	46b9      	mov	r9, r7
    3660:	f858 6023 	ldr.w	r6, [r8, r3, lsl #2]
    3664:	960b      	str	r6, [sp, #44]	; 0x2c
    3666:	690d      	ldr	r5, [r1, #16]
    3668:	9506      	str	r5, [sp, #24]
    366a:	4625      	mov	r5, r4
    366c:	6809      	ldr	r1, [r1, #0]
    366e:	9105      	str	r1, [sp, #20]
    3670:	9906      	ldr	r1, [sp, #24]
    3672:	9308      	str	r3, [sp, #32]
    3674:	eb01 0186 	add.w	r1, r1, r6, lsl #2
    3678:	4616      	mov	r6, r2
    367a:	910a      	str	r1, [sp, #40]	; 0x28
    367c:	f858 1026 	ldr.w	r1, [r8, r6, lsl #2]
    3680:	f119 0902 	adds.w	r9, r9, #2
    3684:	9f06      	ldr	r7, [sp, #24]
    3686:	f14c 0c00 	adc.w	ip, ip, #0
    368a:	f857 e021 	ldr.w	lr, [r7, r1, lsl #2]
    368e:	9905      	ldr	r1, [sp, #20]
    3690:	448e      	add	lr, r1
    3692:	00b1      	lsls	r1, r6, #2
    3694:	f8be 701c 	ldrh.w	r7, [lr, #28]
    3698:	9707      	str	r7, [sp, #28]
    369a:	9f04      	ldr	r7, [sp, #16]
    369c:	45b9      	cmp	r9, r7
    369e:	f17c 0c00 	sbcs.w	ip, ip, #0
    36a2:	bf28      	it	cs
    36a4:	4631      	movcs	r1, r6
    36a6:	f0c0 8144 	bcc.w	3932 <mz_zip_reader_read_central_dir+0x7ea>
    36aa:	9e08      	ldr	r6, [sp, #32]
    36ac:	9f0a      	ldr	r7, [sp, #40]	; 0x28
    36ae:	00b6      	lsls	r6, r6, #2
    36b0:	960c      	str	r6, [sp, #48]	; 0x30
    36b2:	f858 6021 	ldr.w	r6, [r8, r1, lsl #2]
    36b6:	9607      	str	r6, [sp, #28]
    36b8:	683e      	ldr	r6, [r7, #0]
    36ba:	9f05      	ldr	r7, [sp, #20]
    36bc:	eb07 0c06 	add.w	ip, r7, r6
    36c0:	e9dd 7606 	ldrd	r7, r6, [sp, #24]
    36c4:	f10c 092e 	add.w	r9, ip, #46	; 0x2e
    36c8:	f857 6026 	ldr.w	r6, [r7, r6, lsl #2]
    36cc:	9f05      	ldr	r7, [sp, #20]
    36ce:	eb07 0e06 	add.w	lr, r7, r6
    36d2:	f8bc 601c 	ldrh.w	r6, [ip, #28]
    36d6:	008f      	lsls	r7, r1, #2
    36d8:	970d      	str	r7, [sp, #52]	; 0x34
    36da:	9608      	str	r6, [sp, #32]
    36dc:	f8be 701c 	ldrh.w	r7, [lr, #28]
    36e0:	9709      	str	r7, [sp, #36]	; 0x24
    36e2:	42be      	cmp	r6, r7
    36e4:	bf94      	ite	ls
    36e6:	eb09 0b06 	addls.w	fp, r9, r6
    36ea:	eb09 0b07 	addhi.w	fp, r9, r7
    36ee:	45d9      	cmp	r9, fp
    36f0:	f080 8160 	bcs.w	39b4 <mz_zip_reader_read_central_dir+0x86c>
    36f4:	46cc      	mov	ip, r9
    36f6:	f10e 0e2d 	add.w	lr, lr, #45	; 0x2d
    36fa:	e002      	b.n	3702 <mz_zip_reader_read_central_dir+0x5ba>
    36fc:	45e3      	cmp	fp, ip
    36fe:	f000 80d1 	beq.w	38a4 <mz_zip_reader_read_central_dir+0x75c>
    3702:	46e1      	mov	r9, ip
    3704:	f81c 6b01 	ldrb.w	r6, [ip], #1
    3708:	f1a6 0741 	sub.w	r7, r6, #65	; 0x41
    370c:	2f19      	cmp	r7, #25
    370e:	f81e 7f01 	ldrb.w	r7, [lr, #1]!
    3712:	bf98      	it	ls
    3714:	3620      	addls	r6, #32
    3716:	f1a7 0a41 	sub.w	sl, r7, #65	; 0x41
    371a:	bf98      	it	ls
    371c:	b2f6      	uxtbls	r6, r6
    371e:	f1ba 0f19 	cmp.w	sl, #25
    3722:	bf9c      	itt	ls
    3724:	3720      	addls	r7, #32
    3726:	b2ff      	uxtbls	r7, r7
    3728:	42be      	cmp	r6, r7
    372a:	d0e7      	beq.n	36fc <mz_zip_reader_read_central_dir+0x5b4>
    372c:	45cb      	cmp	fp, r9
    372e:	f000 80b9 	beq.w	38a4 <mz_zip_reader_read_central_dir+0x75c>
    3732:	42be      	cmp	r6, r7
    3734:	bf2c      	ite	cs
    3736:	2600      	movcs	r6, #0
    3738:	2601      	movcc	r6, #1
    373a:	b1ae      	cbz	r6, 3768 <mz_zip_reader_read_central_dir+0x620>
    373c:	9e0c      	ldr	r6, [sp, #48]	; 0x30
    373e:	9f07      	ldr	r7, [sp, #28]
    3740:	f848 7006 	str.w	r7, [r8, r6]
    3744:	9e0d      	ldr	r6, [sp, #52]	; 0x34
    3746:	9f0b      	ldr	r7, [sp, #44]	; 0x2c
    3748:	f848 7006 	str.w	r7, [r8, r6]
    374c:	184f      	adds	r7, r1, r1
    374e:	eb45 0c05 	adc.w	ip, r5, r5
    3752:	46b9      	mov	r9, r7
    3754:	1c7e      	adds	r6, r7, #1
    3756:	9f04      	ldr	r7, [sp, #16]
    3758:	f14c 0500 	adc.w	r5, ip, #0
    375c:	42be      	cmp	r6, r7
    375e:	f175 0e00 	sbcs.w	lr, r5, #0
    3762:	d201      	bcs.n	3768 <mz_zip_reader_read_central_dir+0x620>
    3764:	9108      	str	r1, [sp, #32]
    3766:	e789      	b.n	367c <mz_zip_reader_read_central_dir+0x534>
    3768:	3a02      	subs	r2, #2
    376a:	f164 0400 	sbc.w	r4, r4, #0
    376e:	3b01      	subs	r3, #1
    3770:	f160 0000 	sbc.w	r0, r0, #0
    3774:	f1b0 3fff 	cmp.w	r0, #4294967295	; 0xffffffff
    3778:	bf08      	it	eq
    377a:	f1b3 3fff 	cmpeq.w	r3, #4294967295	; 0xffffffff
    377e:	f47f af64 	bne.w	364a <mz_zip_reader_read_central_dir+0x502>
    3782:	9a04      	ldr	r2, [sp, #16]
    3784:	f8d8 3000 	ldr.w	r3, [r8]
    3788:	f102 3aff 	add.w	sl, r2, #4294967295	; 0xffffffff
    378c:	46d3      	mov	fp, sl
    378e:	eb08 0282 	add.w	r2, r8, r2, lsl #2
    3792:	9206      	str	r2, [sp, #24]
    3794:	9a06      	ldr	r2, [sp, #24]
    3796:	f10b 34ff 	add.w	r4, fp, #4294967295	; 0xffffffff
    379a:	f1bb 0f01 	cmp.w	fp, #1
    379e:	f852 0d04 	ldr.w	r0, [r2, #-4]!
    37a2:	6013      	str	r3, [r2, #0]
    37a4:	9206      	str	r2, [sp, #24]
    37a6:	f8c8 0000 	str.w	r0, [r8]
    37aa:	d072      	beq.n	3892 <mz_zip_reader_read_central_dir+0x74a>
    37ac:	9b03      	ldr	r3, [sp, #12]
    37ae:	2200      	movs	r2, #0
    37b0:	2101      	movs	r1, #1
    37b2:	4615      	mov	r5, r2
    37b4:	4616      	mov	r6, r2
    37b6:	691f      	ldr	r7, [r3, #16]
    37b8:	681b      	ldr	r3, [r3, #0]
    37ba:	9304      	str	r3, [sp, #16]
    37bc:	9705      	str	r7, [sp, #20]
    37be:	eb07 0380 	add.w	r3, r7, r0, lsl #2
    37c2:	e9cd 2308 	strd	r2, r3, [sp, #32]
    37c6:	f858 3021 	ldr.w	r3, [r8, r1, lsl #2]
    37ca:	3502      	adds	r5, #2
    37cc:	9f05      	ldr	r7, [sp, #20]
    37ce:	f146 0600 	adc.w	r6, r6, #0
    37d2:	455d      	cmp	r5, fp
    37d4:	ea4f 0c81 	mov.w	ip, r1, lsl #2
    37d8:	f176 0600 	sbcs.w	r6, r6, #0
    37dc:	f857 7023 	ldr.w	r7, [r7, r3, lsl #2]
    37e0:	9b04      	ldr	r3, [sp, #16]
    37e2:	441f      	add	r7, r3
    37e4:	8bbb      	ldrh	r3, [r7, #28]
    37e6:	9307      	str	r3, [sp, #28]
    37e8:	bf24      	itt	cs
    37ea:	460b      	movcs	r3, r1
    37ec:	4611      	movcs	r1, r2
    37ee:	d367      	bcc.n	38c0 <mz_zip_reader_read_central_dir+0x778>
    37f0:	9a08      	ldr	r2, [sp, #32]
    37f2:	f858 a023 	ldr.w	sl, [r8, r3, lsl #2]
    37f6:	9e05      	ldr	r6, [sp, #20]
    37f8:	0092      	lsls	r2, r2, #2
    37fa:	920a      	str	r2, [sp, #40]	; 0x28
    37fc:	9a09      	ldr	r2, [sp, #36]	; 0x24
    37fe:	9d04      	ldr	r5, [sp, #16]
    3800:	f856 702a 	ldr.w	r7, [r6, sl, lsl #2]
    3804:	6812      	ldr	r2, [r2, #0]
    3806:	442f      	add	r7, r5
    3808:	442a      	add	r2, r5
    380a:	009d      	lsls	r5, r3, #2
    380c:	f102 0c2e 	add.w	ip, r2, #46	; 0x2e
    3810:	950b      	str	r5, [sp, #44]	; 0x2c
    3812:	8bbd      	ldrh	r5, [r7, #28]
    3814:	8b92      	ldrh	r2, [r2, #28]
    3816:	9207      	str	r2, [sp, #28]
    3818:	42aa      	cmp	r2, r5
    381a:	bf94      	ite	ls
    381c:	eb0c 0902 	addls.w	r9, ip, r2
    3820:	eb0c 0905 	addhi.w	r9, ip, r5
    3824:	9508      	str	r5, [sp, #32]
    3826:	45cc      	cmp	ip, r9
    3828:	f080 80c7 	bcs.w	39ba <mz_zip_reader_read_central_dir+0x872>
    382c:	4666      	mov	r6, ip
    382e:	372d      	adds	r7, #45	; 0x2d
    3830:	e001      	b.n	3836 <mz_zip_reader_read_central_dir+0x6ee>
    3832:	45b1      	cmp	r9, r6
    3834:	d03d      	beq.n	38b2 <mz_zip_reader_read_central_dir+0x76a>
    3836:	46b4      	mov	ip, r6
    3838:	f816 2b01 	ldrb.w	r2, [r6], #1
    383c:	f1a2 0541 	sub.w	r5, r2, #65	; 0x41
    3840:	2d19      	cmp	r5, #25
    3842:	f817 5f01 	ldrb.w	r5, [r7, #1]!
    3846:	bf98      	it	ls
    3848:	3220      	addls	r2, #32
    384a:	f1a5 0e41 	sub.w	lr, r5, #65	; 0x41
    384e:	bf98      	it	ls
    3850:	b2d2      	uxtbls	r2, r2
    3852:	f1be 0f19 	cmp.w	lr, #25
    3856:	bf9c      	itt	ls
    3858:	3520      	addls	r5, #32
    385a:	b2ed      	uxtbls	r5, r5
    385c:	42aa      	cmp	r2, r5
    385e:	d0e8      	beq.n	3832 <mz_zip_reader_read_central_dir+0x6ea>
    3860:	45e1      	cmp	r9, ip
    3862:	d026      	beq.n	38b2 <mz_zip_reader_read_central_dir+0x76a>
    3864:	42aa      	cmp	r2, r5
    3866:	bf2c      	ite	cs
    3868:	2200      	movcs	r2, #0
    386a:	2201      	movcc	r2, #1
    386c:	b1ba      	cbz	r2, 389e <mz_zip_reader_read_central_dir+0x756>
    386e:	9a0a      	ldr	r2, [sp, #40]	; 0x28
    3870:	18dd      	adds	r5, r3, r3
    3872:	4149      	adcs	r1, r1
    3874:	460e      	mov	r6, r1
    3876:	1c69      	adds	r1, r5, #1
    3878:	f848 a002 	str.w	sl, [r8, r2]
    387c:	9a0b      	ldr	r2, [sp, #44]	; 0x2c
    387e:	f848 0002 	str.w	r0, [r8, r2]
    3882:	f146 0200 	adc.w	r2, r6, #0
    3886:	4559      	cmp	r1, fp
    3888:	f172 0700 	sbcs.w	r7, r2, #0
    388c:	d207      	bcs.n	389e <mz_zip_reader_read_central_dir+0x756>
    388e:	9308      	str	r3, [sp, #32]
    3890:	e799      	b.n	37c6 <mz_zip_reader_read_central_dir+0x67e>
    3892:	2c00      	cmp	r4, #0
    3894:	f43f aec3 	beq.w	361e <mz_zip_reader_read_central_dir+0x4d6>
    3898:	4603      	mov	r3, r0
    389a:	46a3      	mov	fp, r4
    389c:	e77a      	b.n	3794 <mz_zip_reader_read_central_dir+0x64c>
    389e:	f8d8 0000 	ldr.w	r0, [r8]
    38a2:	e7f9      	b.n	3898 <mz_zip_reader_read_central_dir+0x750>
    38a4:	e9dd 6708 	ldrd	r6, r7, [sp, #32]
    38a8:	42be      	cmp	r6, r7
    38aa:	bf2c      	ite	cs
    38ac:	2600      	movcs	r6, #0
    38ae:	2601      	movcc	r6, #1
    38b0:	e743      	b.n	373a <mz_zip_reader_read_central_dir+0x5f2>
    38b2:	e9dd 2507 	ldrd	r2, r5, [sp, #28]
    38b6:	42aa      	cmp	r2, r5
    38b8:	bf2c      	ite	cs
    38ba:	2200      	movcs	r2, #0
    38bc:	2201      	movcc	r2, #1
    38be:	e7d5      	b.n	386c <mz_zip_reader_read_central_dir+0x724>
    38c0:	eb0c 0308 	add.w	r3, ip, r8
    38c4:	9d05      	ldr	r5, [sp, #20]
    38c6:	372e      	adds	r7, #46	; 0x2e
    38c8:	685b      	ldr	r3, [r3, #4]
    38ca:	f855 c023 	ldr.w	ip, [r5, r3, lsl #2]
    38ce:	9b04      	ldr	r3, [sp, #16]
    38d0:	449c      	add	ip, r3
    38d2:	9b07      	ldr	r3, [sp, #28]
    38d4:	f8bc a01c 	ldrh.w	sl, [ip, #28]
    38d8:	459a      	cmp	sl, r3
    38da:	bf94      	ite	ls
    38dc:	eb07 090a 	addls.w	r9, r7, sl
    38e0:	eb07 0903 	addhi.w	r9, r7, r3
    38e4:	45b9      	cmp	r9, r7
    38e6:	d974      	bls.n	39d2 <mz_zip_reader_read_central_dir+0x88a>
    38e8:	463e      	mov	r6, r7
    38ea:	f10c 0c2d 	add.w	ip, ip, #45	; 0x2d
    38ee:	e001      	b.n	38f4 <mz_zip_reader_read_central_dir+0x7ac>
    38f0:	45b1      	cmp	r9, r6
    38f2:	d065      	beq.n	39c0 <mz_zip_reader_read_central_dir+0x878>
    38f4:	4637      	mov	r7, r6
    38f6:	f816 3b01 	ldrb.w	r3, [r6], #1
    38fa:	f1a3 0541 	sub.w	r5, r3, #65	; 0x41
    38fe:	2d19      	cmp	r5, #25
    3900:	f81c 5f01 	ldrb.w	r5, [ip, #1]!
    3904:	bf98      	it	ls
    3906:	3320      	addls	r3, #32
    3908:	f1a5 0e41 	sub.w	lr, r5, #65	; 0x41
    390c:	bf98      	it	ls
    390e:	b2db      	uxtbls	r3, r3
    3910:	f1be 0f19 	cmp.w	lr, #25
    3914:	bf9c      	itt	ls
    3916:	3520      	addls	r5, #32
    3918:	b2ed      	uxtbls	r5, r5
    391a:	42ab      	cmp	r3, r5
    391c:	d0e8      	beq.n	38f0 <mz_zip_reader_read_central_dir+0x7a8>
    391e:	45b9      	cmp	r9, r7
    3920:	d04e      	beq.n	39c0 <mz_zip_reader_read_central_dir+0x878>
    3922:	42ab      	cmp	r3, r5
    3924:	bf2c      	ite	cs
    3926:	2300      	movcs	r3, #0
    3928:	2301      	movcc	r3, #1
    392a:	185b      	adds	r3, r3, r1
    392c:	f142 0100 	adc.w	r1, r2, #0
    3930:	e75e      	b.n	37f0 <mz_zip_reader_read_central_dir+0x6a8>
    3932:	4441      	add	r1, r8
    3934:	9f06      	ldr	r7, [sp, #24]
    3936:	f10e 0e2e 	add.w	lr, lr, #46	; 0x2e
    393a:	6849      	ldr	r1, [r1, #4]
    393c:	f857 9021 	ldr.w	r9, [r7, r1, lsl #2]
    3940:	9905      	ldr	r1, [sp, #20]
    3942:	9f07      	ldr	r7, [sp, #28]
    3944:	4489      	add	r9, r1
    3946:	f8b9 101c 	ldrh.w	r1, [r9, #28]
    394a:	9109      	str	r1, [sp, #36]	; 0x24
    394c:	42b9      	cmp	r1, r7
    394e:	bf94      	ite	ls
    3950:	eb0e 0b01 	addls.w	fp, lr, r1
    3954:	eb0e 0b07 	addhi.w	fp, lr, r7
    3958:	45f3      	cmp	fp, lr
    395a:	d937      	bls.n	39cc <mz_zip_reader_read_central_dir+0x884>
    395c:	46f4      	mov	ip, lr
    395e:	f109 092d 	add.w	r9, r9, #45	; 0x2d
    3962:	e001      	b.n	3968 <mz_zip_reader_read_central_dir+0x820>
    3964:	45e3      	cmp	fp, ip
    3966:	d01e      	beq.n	39a6 <mz_zip_reader_read_central_dir+0x85e>
    3968:	46e6      	mov	lr, ip
    396a:	f81c 1b01 	ldrb.w	r1, [ip], #1
    396e:	f1a1 0741 	sub.w	r7, r1, #65	; 0x41
    3972:	2f19      	cmp	r7, #25
    3974:	f819 7f01 	ldrb.w	r7, [r9, #1]!
    3978:	bf98      	it	ls
    397a:	3120      	addls	r1, #32
    397c:	f1a7 0a41 	sub.w	sl, r7, #65	; 0x41
    3980:	bf98      	it	ls
    3982:	b2c9      	uxtbls	r1, r1
    3984:	f1ba 0f19 	cmp.w	sl, #25
    3988:	bf9c      	itt	ls
    398a:	3720      	addls	r7, #32
    398c:	b2ff      	uxtbls	r7, r7
    398e:	42b9      	cmp	r1, r7
    3990:	d0e8      	beq.n	3964 <mz_zip_reader_read_central_dir+0x81c>
    3992:	45f3      	cmp	fp, lr
    3994:	d007      	beq.n	39a6 <mz_zip_reader_read_central_dir+0x85e>
    3996:	42b9      	cmp	r1, r7
    3998:	bf2c      	ite	cs
    399a:	2100      	movcs	r1, #0
    399c:	2101      	movcc	r1, #1
    399e:	1989      	adds	r1, r1, r6
    39a0:	f145 0500 	adc.w	r5, r5, #0
    39a4:	e681      	b.n	36aa <mz_zip_reader_read_central_dir+0x562>
    39a6:	9909      	ldr	r1, [sp, #36]	; 0x24
    39a8:	9f07      	ldr	r7, [sp, #28]
    39aa:	42b9      	cmp	r1, r7
    39ac:	bf94      	ite	ls
    39ae:	2100      	movls	r1, #0
    39b0:	2101      	movhi	r1, #1
    39b2:	e7f4      	b.n	399e <mz_zip_reader_read_central_dir+0x856>
    39b4:	2700      	movs	r7, #0
    39b6:	463e      	mov	r6, r7
    39b8:	e6b8      	b.n	372c <mz_zip_reader_read_central_dir+0x5e4>
    39ba:	2500      	movs	r5, #0
    39bc:	462a      	mov	r2, r5
    39be:	e74f      	b.n	3860 <mz_zip_reader_read_central_dir+0x718>
    39c0:	9b07      	ldr	r3, [sp, #28]
    39c2:	459a      	cmp	sl, r3
    39c4:	bf94      	ite	ls
    39c6:	2300      	movls	r3, #0
    39c8:	2301      	movhi	r3, #1
    39ca:	e7ae      	b.n	392a <mz_zip_reader_read_central_dir+0x7e2>
    39cc:	2700      	movs	r7, #0
    39ce:	4639      	mov	r1, r7
    39d0:	e7df      	b.n	3992 <mz_zip_reader_read_central_dir+0x84a>
    39d2:	2500      	movs	r5, #0
    39d4:	462b      	mov	r3, r5
    39d6:	e7a2      	b.n	391e <mz_zip_reader_read_central_dir+0x7d6>
    39d8:	230f      	movs	r3, #15
    39da:	61fb      	str	r3, [r7, #28]
    39dc:	f7ff bbd1 	b.w	3182 <mz_zip_reader_read_central_dir+0x3a>
    39e0:	68e2      	ldr	r2, [r4, #12]
    39e2:	b1ea      	cbz	r2, 3a20 <mz_zip_reader_read_central_dir+0x8d8>
    39e4:	6b3d      	ldr	r5, [r7, #48]	; 0x30
    39e6:	464b      	mov	r3, r9
    39e8:	6821      	ldr	r1, [r4, #0]
    39ea:	6b78      	ldr	r0, [r7, #52]	; 0x34
    39ec:	47a8      	blx	r5
    39ee:	b190      	cbz	r0, 3a16 <mz_zip_reader_read_central_dir+0x8ce>
    39f0:	f8d7 a048 	ldr.w	sl, [r7, #72]	; 0x48
    39f4:	693d      	ldr	r5, [r7, #16]
    39f6:	6020      	str	r0, [r4, #0]
    39f8:	f8c4 9008 	str.w	r9, [r4, #8]
    39fc:	e4f4      	b.n	33e8 <mz_zip_reader_read_central_dir+0x2a0>
    39fe:	f7ff fffe 	bl	0 <__stack_chk_fail>
    3a02:	465b      	mov	r3, fp
    3a04:	462a      	mov	r2, r5
    3a06:	f104 0120 	add.w	r1, r4, #32
    3a0a:	4638      	mov	r0, r7
    3a0c:	f7fd f936 	bl	c7c <mz_zip_array_ensure_capacity>
    3a10:	b108      	cbz	r0, 3a16 <mz_zip_reader_read_central_dir+0x8ce>
    3a12:	6cbb      	ldr	r3, [r7, #72]	; 0x48
    3a14:	e4fd      	b.n	3412 <mz_zip_reader_read_central_dir+0x2ca>
    3a16:	2310      	movs	r3, #16
    3a18:	2000      	movs	r0, #0
    3a1a:	61fb      	str	r3, [r7, #28]
    3a1c:	f7ff bbb1 	b.w	3182 <mz_zip_reader_read_central_dir+0x3a>
    3a20:	4b13      	ldr	r3, [pc, #76]	; (3a70 <mz_zip_reader_read_central_dir+0x928>)
    3a22:	f640 428b 	movw	r2, #3211	; 0xc8b
    3a26:	4913      	ldr	r1, [pc, #76]	; (3a74 <mz_zip_reader_read_central_dir+0x92c>)
    3a28:	4813      	ldr	r0, [pc, #76]	; (3a78 <mz_zip_reader_read_central_dir+0x930>)
    3a2a:	447b      	add	r3, pc
    3a2c:	4479      	add	r1, pc
    3a2e:	f603 035c 	addw	r3, r3, #2140	; 0x85c
    3a32:	4478      	add	r0, pc
    3a34:	f7ff fffe 	bl	0 <__assert_fail>
    3a38:	f8da 201c 	ldr.w	r2, [sl, #28]
    3a3c:	2a00      	cmp	r2, #0
    3a3e:	d0ef      	beq.n	3a20 <mz_zip_reader_read_central_dir+0x8d8>
    3a40:	6b3c      	ldr	r4, [r7, #48]	; 0x30
    3a42:	462b      	mov	r3, r5
    3a44:	f8da 1010 	ldr.w	r1, [sl, #16]
    3a48:	6b78      	ldr	r0, [r7, #52]	; 0x34
    3a4a:	47a0      	blx	r4
    3a4c:	2800      	cmp	r0, #0
    3a4e:	d0e2      	beq.n	3a16 <mz_zip_reader_read_central_dir+0x8ce>
    3a50:	6cbc      	ldr	r4, [r7, #72]	; 0x48
    3a52:	f8ca 0010 	str.w	r0, [sl, #16]
    3a56:	f8ca 5018 	str.w	r5, [sl, #24]
    3a5a:	e4ce      	b.n	33fa <mz_zip_reader_read_central_dir+0x2b2>
    3a5c:	e9cb 770d 	strd	r7, r7, [fp, #52]	; 0x34
    3a60:	e4fe      	b.n	3460 <mz_zip_reader_read_central_dir+0x318>
    3a62:	bf00      	nop
    3a64:	0000090a 	.word	0x0000090a
    3a68:	00000000 	.word	0x00000000
    3a6c:	000008d8 	.word	0x000008d8
    3a70:	00000042 	.word	0x00000042
    3a74:	00000044 	.word	0x00000044
    3a78:	00000042 	.word	0x00000042

00003a7c <mz_zip_reader_init_file_v2.part.0>:
    3a7c:	e92d 43f8 	stmdb	sp!, {r3, r4, r5, r6, r7, r8, r9, lr}
    3a80:	4604      	mov	r4, r0
    3a82:	4608      	mov	r0, r1
    3a84:	492f      	ldr	r1, [pc, #188]	; (3b44 <mz_zip_reader_init_file_v2.part.0+0xc8>)
    3a86:	4690      	mov	r8, r2
    3a88:	e9dd 790a 	ldrd	r7, r9, [sp, #40]	; 0x28
    3a8c:	4479      	add	r1, pc
    3a8e:	f7ff fffe 	bl	0 <fopen>
    3a92:	4606      	mov	r6, r0
    3a94:	2800      	cmp	r0, #0
    3a96:	d050      	beq.n	3b3a <mz_zip_reader_init_file_v2.part.0+0xbe>
    3a98:	ea57 0309 	orrs.w	r3, r7, r9
    3a9c:	d021      	beq.n	3ae2 <mz_zip_reader_init_file_v2.part.0+0x66>
    3a9e:	2f16      	cmp	r7, #22
    3aa0:	f179 0300 	sbcs.w	r3, r9, #0
    3aa4:	d32c      	bcc.n	3b00 <mz_zip_reader_init_file_v2.part.0+0x84>
    3aa6:	4641      	mov	r1, r8
    3aa8:	4620      	mov	r0, r4
    3aaa:	f7ff f8ed 	bl	2c88 <mz_zip_reader_init_internal>
    3aae:	4605      	mov	r5, r0
    3ab0:	b378      	cbz	r0, 3b12 <mz_zip_reader_init_file_v2.part.0+0x96>
    3ab2:	6ca3      	ldr	r3, [r4, #72]	; 0x48
    3ab4:	4641      	mov	r1, r8
    3ab6:	4a24      	ldr	r2, [pc, #144]	; (3b48 <mz_zip_reader_init_file_v2.part.0+0xcc>)
    3ab8:	4620      	mov	r0, r4
    3aba:	6464      	str	r4, [r4, #68]	; 0x44
    3abc:	447a      	add	r2, pc
    3abe:	63a2      	str	r2, [r4, #56]	; 0x38
    3ac0:	2204      	movs	r2, #4
    3ac2:	61a2      	str	r2, [r4, #24]
    3ac4:	63de      	str	r6, [r3, #60]	; 0x3c
    3ac6:	e9dd 5608 	ldrd	r5, r6, [sp, #32]
    3aca:	e9c4 7900 	strd	r7, r9, [r4]
    3ace:	e9c3 5610 	strd	r5, r6, [r3, #64]	; 0x40
    3ad2:	f7ff fb39 	bl	3148 <mz_zip_reader_read_central_dir>
    3ad6:	4605      	mov	r5, r0
    3ad8:	b350      	cbz	r0, 3b30 <mz_zip_reader_init_file_v2.part.0+0xb4>
    3ada:	2501      	movs	r5, #1
    3adc:	4628      	mov	r0, r5
    3ade:	e8bd 83f8 	ldmia.w	sp!, {r3, r4, r5, r6, r7, r8, r9, pc}
    3ae2:	2202      	movs	r2, #2
    3ae4:	2100      	movs	r1, #0
    3ae6:	f7ff fffe 	bl	0 <fseeko>
    3aea:	b9c0      	cbnz	r0, 3b1e <mz_zip_reader_init_file_v2.part.0+0xa2>
    3aec:	4630      	mov	r0, r6
    3aee:	f7ff fffe 	bl	0 <ftello>
